;
; File generated by cc65 v 2.18 - N/A
;
	.fopt		compiler,"cc65 v 2.18 - N/A"
	.setcpu		"6502"
	.smart		on
	.autoimport	on
	.case		on
	.debuginfo	off
	.importzp	sp, sreg, regsave, regbank
	.importzp	tmp1, tmp2, tmp3, tmp4, ptr1, ptr2, ptr3, ptr4
	.macpack	longbranch
	.forceimport	__STARTUP__
	.import		_pal_bg
	.import		_pal_spr
	.import		_pal_bright
	.import		_ppu_wait_nmi
	.import		_ppu_off
	.import		_ppu_on_all
	.import		_ppu_mask
	.import		_oam_clear
	.import		_oam_spr
	.import		_oam_meta_spr
	.import		_pad_poll
	.import		_bank_spr
	.import		_bank_bg
	.import		_memcpy
	.import		_set_vram_buffer
	.import		_multi_vram_buffer_horz
	.import		_get_pad_new
	.import		_get_frame_count
	.import		_check_collision
	.import		_pal_fade_to
	.import		_set_scroll_x
	.import		_set_scroll_y
	.import		_get_ppu_addr
	.import		_set_data_pointer
	.import		_set_mt_pointer
	.import		_buffer_4_mt
	.import		_flush_vram_update2
	.export		_animate_bread_data
	.export		_animate_bread2_data
	.export		_animate_bun_data
	.export		_animate_bun2_data
	.export		_animate_fruit_data
	.export		_animate_wine_data
	.export		_animate_implosion1_data
	.export		_animate_implosion2_data
	.export		_animate_implosion3_data
	.export		_animate_orb0_data
	.export		_animate_meter28_data
	.export		_animate_meter27_data
	.export		_animate_meter26_data
	.export		_animate_meter25_data
	.export		_animate_meter24_data
	.export		_animate_meter23_data
	.export		_animate_meter22_data
	.export		_animate_meter21_data
	.export		_animate_meter20_data
	.export		_animate_meter19_data
	.export		_animate_meter18_data
	.export		_animate_meter17_data
	.export		_animate_meter16_data
	.export		_animate_meter15_data
	.export		_animate_meter14_data
	.export		_animate_meter13_data
	.export		_animate_meter12_data
	.export		_animate_meter11_data
	.export		_animate_meter10_data
	.export		_animate_meter9_data
	.export		_animate_meter8_data
	.export		_animate_meter7_data
	.export		_animate_meter6_data
	.export		_animate_meter5_data
	.export		_animate_meter4_data
	.export		_animate_meter3_data
	.export		_animate_meter2_data
	.export		_animate_meter1_data
	.export		_animate_meter0_data
	.export		_animate_playerclimb1_data
	.export		_animate_playerclimb2_data
	.export		_animate_playerclimbshootleft_data
	.export		_animate_playerclimbshootright_data
	.export		_animate_recoilleft_data
	.export		_animate_skeletonleft_data
	.export		_animate_deathleft1_data
	.export		_animate_deathleft2_data
	.export		_animate_deathleft3_data
	.export		_animate_deathleft4_data
	.export		_animate_deathleft5_data
	.export		_animate_deathleft6_data
	.export		_animate_deathleft7_data
	.export		_animate_deathleft8_data
	.export		_animate_recoilright_data
	.export		_animate_skeletonright_data
	.export		_animate_deathright1_data
	.export		_animate_deathright2_data
	.export		_animate_deathright3_data
	.export		_animate_deathright4_data
	.export		_animate_deathright5_data
	.export		_animate_deathright6_data
	.export		_animate_deathright7_data
	.export		_animate_deathright8_data
	.export		_animate_playerstandright_data
	.export		_animate_playerstandleft_data
	.export		_animate_playerstandshootleft_data
	.export		_animate_playerstandshootright_data
	.export		_animate_playerrun1left_data
	.export		_animate_playerrun2left_data
	.export		_animate_playerrun3left_data
	.export		_animate_playerrun1right_data
	.export		_animate_playerrun2right_data
	.export		_animate_playerrun3right_data
	.export		_animate_playerrunshoot1left_data
	.export		_animate_playerrunshoot2left_data
	.export		_animate_playerrunshoot3left_data
	.export		_animate_playerrunshoot1right_data
	.export		_animate_playerrunshoot2right_data
	.export		_animate_playerrunshoot3right_data
	.export		_animate_playerjumpleft_data
	.export		_animate_playerjumpleftshoot_data
	.export		_animate_playerjumpright_data
	.export		_animate_playerjumprightshoot_data
	.export		_animate_hootyowl1left_data
	.export		_animate_hootyowl2left_data
	.export		_animate_hootyowl3left_data
	.export		_animate_hootyowl4left_data
	.export		_animate_hootyowl5left_data
	.export		_animate_hootyowl1right_data
	.export		_animate_hootyowl2right_data
	.export		_animate_hootyowl3right_data
	.export		_animate_hootyowl4right_data
	.export		_animate_hootyowl5right_data
	.export		_animate_snail1left_data
	.export		_animate_snail2left_data
	.export		_animate_snail3left_data
	.export		_animate_snail1right_data
	.export		_animate_snail2right_data
	.export		_animate_snail3right_data
	.export		_animate_snake1left_data
	.export		_animate_snake2left_data
	.export		_animate_snake3left_data
	.export		_animate_snake4left_data
	.export		_animate_snake5left_data
	.export		_animate_snake6left_data
	.export		_animate_snake7left_data
	.export		_animate_snake8left_data
	.export		_animate_snake9left_data
	.export		_animate_snake10left_data
	.export		_animate_snake11left_data
	.export		_animate_snake12left_data
	.export		_animate_snake13left_data
	.export		_animate_snake14left_data
	.export		_animate_snake15left_data
	.export		_animate_snake16left_data
	.export		_animate_snake17left_data
	.export		_animate_snake18left_data
	.export		_animate_snake19left_data
	.export		_animate_snake20left_data
	.export		_animate_snake21left_data
	.export		_animate_snake22left_data
	.export		_animate_mole1_data
	.export		_animate_mole2_data
	.export		_animate_mole3_data
	.export		_animate_mole4_data
	.export		_animate_mole5_data
	.export		_animate_mole6_data
	.export		_animate_mole7_data
	.export		_animate_mole8_data
	.export		_animate_spidrer1_data
	.export		_animate_spider2_data
	.export		_animate_spider3_data
	.export		_animate_spiderweb_data
	.export		_animate_mousewalk1left_data
	.export		_animate_mousewalk2left_data
	.export		_animate_mousewalk3left_data
	.export		_animate_mousewalk1right_data
	.export		_animate_mousewalk2right_data
	.export		_animate_mousewalk3right_data
	.export		_animate_mousejumpleft_data
	.export		_animate_mousejumpright_data
	.export		_animate_bearstandleft_data
	.export		_animate_bearstandright_data
	.export		_animate_bearroarleft_data
	.export		_animate_bearroarright_data
	.export		_animate_beararms_data
	.export		_animate_beararmsright_data
	.export		_animate_bearwalk1eft_data
	.export		_animate_bearwalk2left_data
	.export		_animate_bearwalk3left_data
	.export		_animate_bearwalkright_data
	.export		_animate_bearwalk2right_data
	.export		_animate_bearwalk3right_data
	.export		_animate_bouldersmall_data
	.export		_animate_fisleft_data
	.export		_animate_fishright_data
	.export		_animate_boulderbig_data
	.export		_animate_boulderbig__1_data
	.export		_animate_boulderbig__1__1_data
	.export		_animate_boulderbig__1__1__1_data
	.export		_animate_boulderbig__1__1__1__1_data
	.export		_animate_boulderbig__1__1__1__1__1_data
	.export		_animate_boulderbig__1__1__1__1__1__1_data
	.export		_animate_boulderbig__1__1__1__1__1__1__1_data
	.export		_animate_boulderbig__1__1__1__1__1__1__1__1_data
	.export		_animate_boulderbig__1__1__1__1__1__1__1__1__1_data
	.export		_animate_boulderbig__1__1__1__1__1__1__1__1__1__1_data
	.export		_animate_boulderbig__1__1__1__1__1__1__1__1__1__1__1_data
	.export		_animate_boulderbig__1__1__1__1__1__1__1__1__1__1__1__1_data
	.export		_animate_boulderbig__1__1__1__1__1__1__1__1__1__1__1__1__1_data
	.export		_animate_boulderbig__1__1__1__1__1__1__1__1__1__1__1__1__1__1_dat
	.export		_debug
	.export		_pad1
	.export		_pad1_new
	.export		_short_jump_count
	.export		_map_loaded
	.export		_collision
	.export		_player_in_air
	.export		_player_is_running
	.export		_player_on_ladder
	.export		_player_on_ladder_pose
	.export		_player_in_hitstun
	.export		_player_running
	.export		_collision_L
	.export		_collision_R
	.export		_collision_U
	.export		_collision_D
	.export		_coordinates
	.export		_temp1
	.export		_temp2
	.export		_temp3
	.export		_temp4
	.export		_multi_jump
	.export		_temp5
	.export		_temp6
	.export		_tempint
	.export		_tempint2
	.export		_temp_playerlocation
	.export		_temp_cmap1
	.export		_temp_cmap2
	.export		_level
	.export		_offset
	.export		_level_up
	.export		_level_down
	.export		_eject_L
	.export		_eject_R
	.export		_eject_D
	.export		_eject_U
	.export		_direction
	.export		_direction_y
	.export		_sprite_frame_counter
	.export		_frame_counter
	.export		_frame_counter2
	.export		_address
	.export		_x
	.export		_y
	.export		_nt
	.export		_index
	.export		_index2
	.export		_room_to_load
	.export		_current_room
	.export		_map
	.export		_scroll_x
	.export		_scroll_y
	.export		_scroll_count
	.export		_pseudo_scroll_x
	.export		_song
	.export		_game_mode
	.export		_pointer
	.export		_l_scroll_frames
	.export		_r_scroll_frames
	.export		_old_x
	.export		_old_y
	.export		_bright
	.export		_bright_count
	.export		_temp_x
	.export		_temp_y
	.export		_temp_room
	.export		_player_shooting
	.export		_death
	.export		_death_flag
	.export		_invul_frames
	.export		_projectile_cooldown
	.export		_projectile_count
	.export		_projectile_index
	.export		_projectiles_list
	.export		_projectiles_x
	.export		_projectiles_y
	.export		_sine_wave
	.export		_shuffle_array
	.export		_c_map
	.export		_c_map2
	.export		_Generic
	.export		_Generic2
	.export		_BoxGuy1
	.export		_max_rooms
	.export		_max_scroll
	.export		_palette_sp
	.export		_enemy_x
	.export		_enemy_y
	.export		_enemy_active
	.export		_enemy_health
	.export		_enemy_room
	.export		_enemy_actual_x
	.export		_enemy_type
	.export		_enemy_dir
	.export		_enemy_anim
	.export		_enemy_frames
	.export		_entity_x
	.export		_entity_y
	.export		_entity_active
	.export		_entity_room
	.export		_entity_actual_x
	.export		_entity_type
	.export		_entity_anim
	.export		_entity_frames
	.export		_palette_bg
	.export		_metatile
	.export		_metatile_colision_map
	.export		_level0_0
	.export		_level0_1
	.export		_level0_2
	.export		_level0_3
	.export		_level0_4
	.export		_level0_5
	.export		_level0_6
	.export		_level0_7
	.export		_level1_0
	.export		_level2_0
	.export		_level2_1
	.export		_level2_2
	.export		_level2_3
	.export		_level3_0
	.export		_level4_0
	.export		_level4_1
	.export		_level4_2
	.export		_level4_3
	.export		_level4_4
	.export		_level5_0
	.export		_level6_0
	.export		_stage1_levels_list
	.export		_level_max_rooms
	.export		_level_offsets
	.export		_level_0_enemies
	.export		_level_1_enemies
	.export		_level_2_enemies
	.export		_level_3_enemies
	.export		_level_4_enemies
	.export		_level_5_enemies
	.export		_level_6_enemies
	.export		_Enemy_list
	.export		_level_0_entities
	.export		_level_1_entities
	.export		_level_2_entities
	.export		_level_3_entities
	.export		_level_4_entities
	.export		_level_5_entities
	.export		_level_6_entities
	.export		_entity_list
	.export		_load_room
	.export		_draw_sprites
	.export		_movement
	.export		_bg_collision_sub
	.export		_draw_screen_R
	.export		_draw_screen_L
	.export		_new_cmap
	.export		_handle_scrolling
	.export		_projectile_movement
	.export		_check_spr_objects
	.export		_check_entity_objects
	.export		_sprite_collisions
	.export		_entity_collisions
	.export		_enemy_moves
	.export		_reset
	.export		_sprite_obj_init
	.export		_entity_obj_init
	.export		_init_death
	.export		_bg_coll_L
	.export		_bg_coll_R
	.export		_bg_coll_U
	.export		_bg_coll_D
	.export		_bg_coll_D2
	.export		_get_position
	.export		_bg_collision_fast
	.export		_bg_coll_ladder
	.export		_bg_coll_ladder_top_under_player
	.export		_draw_player_health_meter
	.export		_draw_player_sprites
	.export		_main

.segment	"DATA"

_direction:
	.byte	$01
_direction_y:
	.byte	$01
_room_to_load:
	.byte	$00
_current_room:
	.byte	$00
_projectiles_list:
	.byte	$FF
	.byte	$FF
	.byte	$FF
	.byte	$FF
_projectiles_x:
	.byte	$00
	.byte	$00
	.byte	$00
	.byte	$00
_projectiles_y:
	.byte	$00
	.byte	$00
	.byte	$00
	.byte	$00
_sine_wave:
	.byte	$05
	.byte	$08
	.byte	$0A
	.byte	$0A
	.byte	$08
	.byte	$05
	.byte	$02
	.byte	$00
	.byte	$00
	.byte	$02
_BoxGuy1:
	.word	$4000
	.word	$8400
	.res	5,$00

.segment	"RODATA"

_animate_bread_data:
	.byte	$00
	.byte	$00
	.byte	$0D
	.byte	$00
	.byte	$08
	.byte	$00
	.byte	$0E
	.byte	$00
	.byte	$00
	.byte	$F8
	.byte	$2B
	.byte	$02
	.byte	$08
	.byte	$F8
	.byte	$2B
	.byte	$C2
	.byte	$80
_animate_bread2_data:
	.byte	$00
	.byte	$00
	.byte	$0D
	.byte	$00
	.byte	$08
	.byte	$00
	.byte	$0E
	.byte	$00
	.byte	$00
	.byte	$F8
	.byte	$2B
	.byte	$82
	.byte	$08
	.byte	$F8
	.byte	$2B
	.byte	$42
	.byte	$80
_animate_bun_data:
	.byte	$00
	.byte	$00
	.byte	$1D
	.byte	$00
	.byte	$00
	.byte	$F8
	.byte	$2B
	.byte	$02
	.byte	$80
_animate_bun2_data:
	.byte	$00
	.byte	$00
	.byte	$1D
	.byte	$00
	.byte	$00
	.byte	$F8
	.byte	$2B
	.byte	$C2
	.byte	$80
_animate_fruit_data:
	.byte	$00
	.byte	$00
	.byte	$1E
	.byte	$00
	.byte	$80
_animate_wine_data:
	.byte	$00
	.byte	$00
	.byte	$0F
	.byte	$02
	.byte	$00
	.byte	$08
	.byte	$1F
	.byte	$02
	.byte	$00
	.byte	$01
	.byte	$1C
	.byte	$00
	.byte	$80
_animate_implosion1_data:
	.byte	$00
	.byte	$00
	.byte	$2E
	.byte	$02
	.byte	$08
	.byte	$00
	.byte	$2F
	.byte	$02
	.byte	$00
	.byte	$08
	.byte	$3E
	.byte	$02
	.byte	$08
	.byte	$08
	.byte	$3F
	.byte	$02
	.byte	$80
_animate_implosion2_data:
	.byte	$04
	.byte	$04
	.byte	$4E
	.byte	$02
	.byte	$80
_animate_implosion3_data:
	.byte	$04
	.byte	$05
	.byte	$4F
	.byte	$02
	.byte	$80
_animate_orb0_data:
	.byte	$00
	.byte	$00
	.byte	$0C
	.byte	$00
	.byte	$80
_animate_meter28_data:
	.byte	$00
	.byte	$00
	.byte	$50
	.byte	$02
	.byte	$00
	.byte	$08
	.byte	$50
	.byte	$02
	.byte	$00
	.byte	$10
	.byte	$50
	.byte	$02
	.byte	$00
	.byte	$18
	.byte	$50
	.byte	$02
	.byte	$00
	.byte	$20
	.byte	$50
	.byte	$02
	.byte	$00
	.byte	$28
	.byte	$50
	.byte	$02
	.byte	$00
	.byte	$30
	.byte	$50
	.byte	$02
	.byte	$80
_animate_meter27_data:
	.byte	$00
	.byte	$00
	.byte	$51
	.byte	$02
	.byte	$00
	.byte	$08
	.byte	$50
	.byte	$02
	.byte	$00
	.byte	$10
	.byte	$50
	.byte	$02
	.byte	$00
	.byte	$18
	.byte	$50
	.byte	$02
	.byte	$00
	.byte	$20
	.byte	$50
	.byte	$02
	.byte	$00
	.byte	$28
	.byte	$50
	.byte	$02
	.byte	$00
	.byte	$30
	.byte	$50
	.byte	$02
	.byte	$80
_animate_meter26_data:
	.byte	$00
	.byte	$00
	.byte	$52
	.byte	$02
	.byte	$00
	.byte	$08
	.byte	$50
	.byte	$02
	.byte	$00
	.byte	$10
	.byte	$50
	.byte	$02
	.byte	$00
	.byte	$18
	.byte	$50
	.byte	$02
	.byte	$00
	.byte	$20
	.byte	$50
	.byte	$02
	.byte	$00
	.byte	$28
	.byte	$50
	.byte	$02
	.byte	$00
	.byte	$30
	.byte	$50
	.byte	$02
	.byte	$80
_animate_meter25_data:
	.byte	$00
	.byte	$00
	.byte	$53
	.byte	$02
	.byte	$00
	.byte	$08
	.byte	$50
	.byte	$02
	.byte	$00
	.byte	$10
	.byte	$50
	.byte	$02
	.byte	$00
	.byte	$18
	.byte	$50
	.byte	$02
	.byte	$00
	.byte	$20
	.byte	$50
	.byte	$02
	.byte	$00
	.byte	$28
	.byte	$50
	.byte	$02
	.byte	$00
	.byte	$30
	.byte	$50
	.byte	$02
	.byte	$80
_animate_meter24_data:
	.byte	$00
	.byte	$00
	.byte	$54
	.byte	$02
	.byte	$00
	.byte	$08
	.byte	$50
	.byte	$02
	.byte	$00
	.byte	$10
	.byte	$50
	.byte	$02
	.byte	$00
	.byte	$18
	.byte	$50
	.byte	$02
	.byte	$00
	.byte	$20
	.byte	$50
	.byte	$02
	.byte	$00
	.byte	$28
	.byte	$50
	.byte	$02
	.byte	$00
	.byte	$30
	.byte	$50
	.byte	$02
	.byte	$80
_animate_meter23_data:
	.byte	$00
	.byte	$00
	.byte	$54
	.byte	$02
	.byte	$00
	.byte	$08
	.byte	$51
	.byte	$02
	.byte	$00
	.byte	$10
	.byte	$50
	.byte	$02
	.byte	$00
	.byte	$18
	.byte	$50
	.byte	$02
	.byte	$00
	.byte	$20
	.byte	$50
	.byte	$02
	.byte	$00
	.byte	$28
	.byte	$50
	.byte	$02
	.byte	$00
	.byte	$30
	.byte	$50
	.byte	$02
	.byte	$80
_animate_meter22_data:
	.byte	$00
	.byte	$00
	.byte	$54
	.byte	$02
	.byte	$00
	.byte	$08
	.byte	$52
	.byte	$02
	.byte	$00
	.byte	$10
	.byte	$50
	.byte	$02
	.byte	$00
	.byte	$18
	.byte	$50
	.byte	$02
	.byte	$00
	.byte	$20
	.byte	$50
	.byte	$02
	.byte	$00
	.byte	$28
	.byte	$50
	.byte	$02
	.byte	$00
	.byte	$30
	.byte	$50
	.byte	$02
	.byte	$80
_animate_meter21_data:
	.byte	$00
	.byte	$00
	.byte	$54
	.byte	$02
	.byte	$00
	.byte	$08
	.byte	$53
	.byte	$02
	.byte	$00
	.byte	$10
	.byte	$50
	.byte	$02
	.byte	$00
	.byte	$18
	.byte	$50
	.byte	$02
	.byte	$00
	.byte	$20
	.byte	$50
	.byte	$02
	.byte	$00
	.byte	$28
	.byte	$50
	.byte	$02
	.byte	$00
	.byte	$30
	.byte	$50
	.byte	$02
	.byte	$80
_animate_meter20_data:
	.byte	$00
	.byte	$00
	.byte	$54
	.byte	$02
	.byte	$00
	.byte	$08
	.byte	$54
	.byte	$02
	.byte	$00
	.byte	$10
	.byte	$50
	.byte	$02
	.byte	$00
	.byte	$18
	.byte	$50
	.byte	$02
	.byte	$00
	.byte	$20
	.byte	$50
	.byte	$02
	.byte	$00
	.byte	$28
	.byte	$50
	.byte	$02
	.byte	$00
	.byte	$30
	.byte	$50
	.byte	$02
	.byte	$80
_animate_meter19_data:
	.byte	$00
	.byte	$00
	.byte	$54
	.byte	$02
	.byte	$00
	.byte	$08
	.byte	$54
	.byte	$02
	.byte	$00
	.byte	$10
	.byte	$51
	.byte	$02
	.byte	$00
	.byte	$18
	.byte	$50
	.byte	$02
	.byte	$00
	.byte	$20
	.byte	$50
	.byte	$02
	.byte	$00
	.byte	$28
	.byte	$50
	.byte	$02
	.byte	$00
	.byte	$30
	.byte	$50
	.byte	$02
	.byte	$80
_animate_meter18_data:
	.byte	$00
	.byte	$00
	.byte	$54
	.byte	$02
	.byte	$00
	.byte	$08
	.byte	$54
	.byte	$02
	.byte	$00
	.byte	$10
	.byte	$52
	.byte	$02
	.byte	$00
	.byte	$18
	.byte	$50
	.byte	$02
	.byte	$00
	.byte	$20
	.byte	$50
	.byte	$02
	.byte	$00
	.byte	$28
	.byte	$50
	.byte	$02
	.byte	$00
	.byte	$30
	.byte	$50
	.byte	$02
	.byte	$80
_animate_meter17_data:
	.byte	$00
	.byte	$00
	.byte	$54
	.byte	$02
	.byte	$00
	.byte	$08
	.byte	$54
	.byte	$02
	.byte	$00
	.byte	$10
	.byte	$53
	.byte	$02
	.byte	$00
	.byte	$18
	.byte	$50
	.byte	$02
	.byte	$00
	.byte	$20
	.byte	$50
	.byte	$02
	.byte	$00
	.byte	$28
	.byte	$50
	.byte	$02
	.byte	$00
	.byte	$30
	.byte	$50
	.byte	$02
	.byte	$80
_animate_meter16_data:
	.byte	$00
	.byte	$00
	.byte	$54
	.byte	$02
	.byte	$00
	.byte	$08
	.byte	$54
	.byte	$02
	.byte	$00
	.byte	$10
	.byte	$54
	.byte	$02
	.byte	$00
	.byte	$18
	.byte	$50
	.byte	$02
	.byte	$00
	.byte	$20
	.byte	$50
	.byte	$02
	.byte	$00
	.byte	$28
	.byte	$50
	.byte	$02
	.byte	$00
	.byte	$30
	.byte	$50
	.byte	$02
	.byte	$80
_animate_meter15_data:
	.byte	$00
	.byte	$00
	.byte	$54
	.byte	$02
	.byte	$00
	.byte	$08
	.byte	$54
	.byte	$02
	.byte	$00
	.byte	$10
	.byte	$54
	.byte	$02
	.byte	$00
	.byte	$18
	.byte	$51
	.byte	$02
	.byte	$00
	.byte	$20
	.byte	$50
	.byte	$02
	.byte	$00
	.byte	$28
	.byte	$50
	.byte	$02
	.byte	$00
	.byte	$30
	.byte	$50
	.byte	$02
	.byte	$80
_animate_meter14_data:
	.byte	$00
	.byte	$00
	.byte	$54
	.byte	$02
	.byte	$00
	.byte	$08
	.byte	$54
	.byte	$02
	.byte	$00
	.byte	$10
	.byte	$54
	.byte	$02
	.byte	$00
	.byte	$18
	.byte	$52
	.byte	$02
	.byte	$00
	.byte	$20
	.byte	$50
	.byte	$02
	.byte	$00
	.byte	$28
	.byte	$50
	.byte	$02
	.byte	$00
	.byte	$30
	.byte	$50
	.byte	$02
	.byte	$80
_animate_meter13_data:
	.byte	$00
	.byte	$00
	.byte	$54
	.byte	$02
	.byte	$00
	.byte	$08
	.byte	$54
	.byte	$02
	.byte	$00
	.byte	$10
	.byte	$54
	.byte	$02
	.byte	$00
	.byte	$18
	.byte	$53
	.byte	$02
	.byte	$00
	.byte	$20
	.byte	$50
	.byte	$02
	.byte	$00
	.byte	$28
	.byte	$50
	.byte	$02
	.byte	$00
	.byte	$30
	.byte	$50
	.byte	$02
	.byte	$80
_animate_meter12_data:
	.byte	$00
	.byte	$00
	.byte	$54
	.byte	$02
	.byte	$00
	.byte	$08
	.byte	$54
	.byte	$02
	.byte	$00
	.byte	$10
	.byte	$54
	.byte	$02
	.byte	$00
	.byte	$18
	.byte	$54
	.byte	$02
	.byte	$00
	.byte	$20
	.byte	$50
	.byte	$02
	.byte	$00
	.byte	$28
	.byte	$50
	.byte	$02
	.byte	$00
	.byte	$30
	.byte	$50
	.byte	$02
	.byte	$80
_animate_meter11_data:
	.byte	$00
	.byte	$00
	.byte	$54
	.byte	$02
	.byte	$00
	.byte	$08
	.byte	$54
	.byte	$02
	.byte	$00
	.byte	$10
	.byte	$54
	.byte	$02
	.byte	$00
	.byte	$18
	.byte	$54
	.byte	$02
	.byte	$00
	.byte	$20
	.byte	$51
	.byte	$02
	.byte	$00
	.byte	$28
	.byte	$50
	.byte	$02
	.byte	$00
	.byte	$30
	.byte	$50
	.byte	$02
	.byte	$80
_animate_meter10_data:
	.byte	$00
	.byte	$00
	.byte	$54
	.byte	$02
	.byte	$00
	.byte	$08
	.byte	$54
	.byte	$02
	.byte	$00
	.byte	$10
	.byte	$54
	.byte	$02
	.byte	$00
	.byte	$18
	.byte	$54
	.byte	$02
	.byte	$00
	.byte	$20
	.byte	$52
	.byte	$02
	.byte	$00
	.byte	$28
	.byte	$50
	.byte	$02
	.byte	$00
	.byte	$30
	.byte	$50
	.byte	$02
	.byte	$80
_animate_meter9_data:
	.byte	$00
	.byte	$00
	.byte	$54
	.byte	$02
	.byte	$00
	.byte	$08
	.byte	$54
	.byte	$02
	.byte	$00
	.byte	$10
	.byte	$54
	.byte	$02
	.byte	$00
	.byte	$18
	.byte	$54
	.byte	$02
	.byte	$00
	.byte	$20
	.byte	$53
	.byte	$02
	.byte	$00
	.byte	$28
	.byte	$50
	.byte	$02
	.byte	$00
	.byte	$30
	.byte	$50
	.byte	$02
	.byte	$80
_animate_meter8_data:
	.byte	$00
	.byte	$00
	.byte	$54
	.byte	$02
	.byte	$00
	.byte	$08
	.byte	$54
	.byte	$02
	.byte	$00
	.byte	$10
	.byte	$54
	.byte	$02
	.byte	$00
	.byte	$18
	.byte	$54
	.byte	$02
	.byte	$00
	.byte	$20
	.byte	$54
	.byte	$02
	.byte	$00
	.byte	$28
	.byte	$50
	.byte	$02
	.byte	$00
	.byte	$30
	.byte	$50
	.byte	$02
	.byte	$80
_animate_meter7_data:
	.byte	$00
	.byte	$00
	.byte	$54
	.byte	$02
	.byte	$00
	.byte	$08
	.byte	$54
	.byte	$02
	.byte	$00
	.byte	$10
	.byte	$54
	.byte	$02
	.byte	$00
	.byte	$18
	.byte	$54
	.byte	$02
	.byte	$00
	.byte	$20
	.byte	$54
	.byte	$02
	.byte	$00
	.byte	$28
	.byte	$51
	.byte	$02
	.byte	$00
	.byte	$30
	.byte	$50
	.byte	$02
	.byte	$80
_animate_meter6_data:
	.byte	$00
	.byte	$00
	.byte	$54
	.byte	$02
	.byte	$00
	.byte	$08
	.byte	$54
	.byte	$02
	.byte	$00
	.byte	$10
	.byte	$54
	.byte	$02
	.byte	$00
	.byte	$18
	.byte	$54
	.byte	$02
	.byte	$00
	.byte	$20
	.byte	$54
	.byte	$02
	.byte	$00
	.byte	$28
	.byte	$52
	.byte	$02
	.byte	$00
	.byte	$30
	.byte	$50
	.byte	$02
	.byte	$80
_animate_meter5_data:
	.byte	$00
	.byte	$00
	.byte	$54
	.byte	$02
	.byte	$00
	.byte	$08
	.byte	$54
	.byte	$02
	.byte	$00
	.byte	$10
	.byte	$54
	.byte	$02
	.byte	$00
	.byte	$18
	.byte	$54
	.byte	$02
	.byte	$00
	.byte	$20
	.byte	$54
	.byte	$02
	.byte	$00
	.byte	$28
	.byte	$53
	.byte	$02
	.byte	$00
	.byte	$30
	.byte	$50
	.byte	$02
	.byte	$80
_animate_meter4_data:
	.byte	$00
	.byte	$00
	.byte	$54
	.byte	$02
	.byte	$00
	.byte	$08
	.byte	$54
	.byte	$02
	.byte	$00
	.byte	$10
	.byte	$54
	.byte	$02
	.byte	$00
	.byte	$18
	.byte	$54
	.byte	$02
	.byte	$00
	.byte	$20
	.byte	$54
	.byte	$02
	.byte	$00
	.byte	$28
	.byte	$54
	.byte	$02
	.byte	$00
	.byte	$30
	.byte	$50
	.byte	$02
	.byte	$80
_animate_meter3_data:
	.byte	$00
	.byte	$00
	.byte	$54
	.byte	$02
	.byte	$00
	.byte	$08
	.byte	$54
	.byte	$02
	.byte	$00
	.byte	$10
	.byte	$54
	.byte	$02
	.byte	$00
	.byte	$18
	.byte	$54
	.byte	$02
	.byte	$00
	.byte	$20
	.byte	$54
	.byte	$02
	.byte	$00
	.byte	$28
	.byte	$54
	.byte	$02
	.byte	$00
	.byte	$30
	.byte	$51
	.byte	$02
	.byte	$80
_animate_meter2_data:
	.byte	$00
	.byte	$00
	.byte	$54
	.byte	$02
	.byte	$00
	.byte	$08
	.byte	$54
	.byte	$02
	.byte	$00
	.byte	$10
	.byte	$54
	.byte	$02
	.byte	$00
	.byte	$18
	.byte	$54
	.byte	$02
	.byte	$00
	.byte	$20
	.byte	$54
	.byte	$02
	.byte	$00
	.byte	$28
	.byte	$54
	.byte	$02
	.byte	$00
	.byte	$30
	.byte	$52
	.byte	$02
	.byte	$80
_animate_meter1_data:
	.byte	$00
	.byte	$00
	.byte	$54
	.byte	$02
	.byte	$00
	.byte	$08
	.byte	$54
	.byte	$02
	.byte	$00
	.byte	$10
	.byte	$54
	.byte	$02
	.byte	$00
	.byte	$18
	.byte	$54
	.byte	$02
	.byte	$00
	.byte	$20
	.byte	$54
	.byte	$02
	.byte	$00
	.byte	$28
	.byte	$54
	.byte	$02
	.byte	$00
	.byte	$30
	.byte	$53
	.byte	$02
	.byte	$80
_animate_meter0_data:
	.byte	$00
	.byte	$00
	.byte	$54
	.byte	$02
	.byte	$00
	.byte	$08
	.byte	$54
	.byte	$02
	.byte	$00
	.byte	$10
	.byte	$54
	.byte	$02
	.byte	$00
	.byte	$18
	.byte	$54
	.byte	$02
	.byte	$00
	.byte	$20
	.byte	$54
	.byte	$02
	.byte	$00
	.byte	$28
	.byte	$54
	.byte	$02
	.byte	$00
	.byte	$30
	.byte	$54
	.byte	$02
	.byte	$80
_animate_playerclimb1_data:
	.byte	$00
	.byte	$F8
	.byte	$04
	.byte	$00
	.byte	$08
	.byte	$F8
	.byte	$03
	.byte	$00
	.byte	$00
	.byte	$00
	.byte	$14
	.byte	$00
	.byte	$08
	.byte	$00
	.byte	$13
	.byte	$00
	.byte	$00
	.byte	$08
	.byte	$22
	.byte	$00
	.byte	$08
	.byte	$08
	.byte	$25
	.byte	$00
	.byte	$80
_animate_playerclimb2_data:
	.byte	$00
	.byte	$F8
	.byte	$02
	.byte	$00
	.byte	$08
	.byte	$F8
	.byte	$05
	.byte	$00
	.byte	$00
	.byte	$00
	.byte	$12
	.byte	$00
	.byte	$08
	.byte	$00
	.byte	$15
	.byte	$00
	.byte	$00
	.byte	$08
	.byte	$24
	.byte	$00
	.byte	$08
	.byte	$08
	.byte	$23
	.byte	$00
	.byte	$80
_animate_playerclimbshootleft_data:
	.byte	$00
	.byte	$F8
	.byte	$06
	.byte	$00
	.byte	$08
	.byte	$F8
	.byte	$07
	.byte	$00
	.byte	$00
	.byte	$00
	.byte	$16
	.byte	$00
	.byte	$08
	.byte	$00
	.byte	$13
	.byte	$00
	.byte	$00
	.byte	$08
	.byte	$22
	.byte	$00
	.byte	$08
	.byte	$08
	.byte	$25
	.byte	$00
	.byte	$01
	.byte	$F9
	.byte	$0A
	.byte	$02
	.byte	$F8
	.byte	$00
	.byte	$08
	.byte	$00
	.byte	$80
_animate_playerclimbshootright_data:
	.byte	$00
	.byte	$F8
	.byte	$07
	.byte	$40
	.byte	$08
	.byte	$F8
	.byte	$06
	.byte	$40
	.byte	$00
	.byte	$00
	.byte	$12
	.byte	$00
	.byte	$08
	.byte	$00
	.byte	$16
	.byte	$40
	.byte	$00
	.byte	$08
	.byte	$24
	.byte	$00
	.byte	$08
	.byte	$08
	.byte	$23
	.byte	$00
	.byte	$10
	.byte	$00
	.byte	$08
	.byte	$40
	.byte	$07
	.byte	$F9
	.byte	$0A
	.byte	$42
	.byte	$80
_animate_recoilleft_data:
	.byte	$00
	.byte	$F8
	.byte	$29
	.byte	$00
	.byte	$08
	.byte	$F8
	.byte	$2A
	.byte	$00
	.byte	$00
	.byte	$00
	.byte	$39
	.byte	$00
	.byte	$08
	.byte	$00
	.byte	$3A
	.byte	$00
	.byte	$00
	.byte	$08
	.byte	$49
	.byte	$00
	.byte	$08
	.byte	$08
	.byte	$4A
	.byte	$00
	.byte	$10
	.byte	$00
	.byte	$3B
	.byte	$00
	.byte	$F8
	.byte	$00
	.byte	$3B
	.byte	$40
	.byte	$04
	.byte	$F9
	.byte	$0B
	.byte	$02
	.byte	$80
_animate_skeletonleft_data:
	.byte	$00
	.byte	$F8
	.byte	$2C
	.byte	$02
	.byte	$00
	.byte	$08
	.byte	$4C
	.byte	$02
	.byte	$00
	.byte	$00
	.byte	$3C
	.byte	$02
	.byte	$08
	.byte	$00
	.byte	$3D
	.byte	$02
	.byte	$08
	.byte	$F8
	.byte	$2D
	.byte	$02
	.byte	$08
	.byte	$08
	.byte	$4D
	.byte	$02
	.byte	$10
	.byte	$00
	.byte	$4B
	.byte	$42
	.byte	$F8
	.byte	$00
	.byte	$4B
	.byte	$02
	.byte	$80
_animate_deathleft1_data:
	.byte	$00
	.byte	$F8
	.byte	$2C
	.byte	$02
	.byte	$00
	.byte	$08
	.byte	$4C
	.byte	$02
	.byte	$00
	.byte	$00
	.byte	$3C
	.byte	$02
	.byte	$08
	.byte	$00
	.byte	$3D
	.byte	$02
	.byte	$08
	.byte	$F8
	.byte	$2D
	.byte	$02
	.byte	$08
	.byte	$08
	.byte	$4D
	.byte	$02
	.byte	$10
	.byte	$00
	.byte	$4B
	.byte	$42
	.byte	$F8
	.byte	$00
	.byte	$4B
	.byte	$02
	.byte	$80
_animate_deathleft2_data:
	.byte	$00
	.byte	$F8
	.byte	$2C
	.byte	$02
	.byte	$00
	.byte	$08
	.byte	$4C
	.byte	$02
	.byte	$00
	.byte	$00
	.byte	$3C
	.byte	$02
	.byte	$08
	.byte	$00
	.byte	$3D
	.byte	$02
	.byte	$08
	.byte	$F8
	.byte	$2D
	.byte	$02
	.byte	$08
	.byte	$08
	.byte	$4D
	.byte	$02
	.byte	$10
	.byte	$00
	.byte	$4B
	.byte	$42
	.byte	$F8
	.byte	$00
	.byte	$4B
	.byte	$02
	.byte	$80
_animate_deathleft3_data:
	.byte	$00
	.byte	$FA
	.byte	$2C
	.byte	$02
	.byte	$00
	.byte	$02
	.byte	$3C
	.byte	$02
	.byte	$08
	.byte	$02
	.byte	$3D
	.byte	$02
	.byte	$08
	.byte	$FA
	.byte	$2D
	.byte	$02
	.byte	$10
	.byte	$00
	.byte	$4B
	.byte	$42
	.byte	$F8
	.byte	$00
	.byte	$4B
	.byte	$02
	.byte	$00
	.byte	$08
	.byte	$4C
	.byte	$02
	.byte	$08
	.byte	$08
	.byte	$4D
	.byte	$02
	.byte	$80
_animate_deathleft4_data:
	.byte	$00
	.byte	$FC
	.byte	$2C
	.byte	$02
	.byte	$00
	.byte	$04
	.byte	$3C
	.byte	$02
	.byte	$08
	.byte	$04
	.byte	$3D
	.byte	$02
	.byte	$08
	.byte	$FC
	.byte	$2D
	.byte	$02
	.byte	$10
	.byte	$02
	.byte	$4B
	.byte	$42
	.byte	$F8
	.byte	$02
	.byte	$4B
	.byte	$02
	.byte	$00
	.byte	$08
	.byte	$4C
	.byte	$02
	.byte	$08
	.byte	$08
	.byte	$4D
	.byte	$02
	.byte	$80
_animate_deathleft5_data:
	.byte	$00
	.byte	$FE
	.byte	$2C
	.byte	$02
	.byte	$00
	.byte	$06
	.byte	$3C
	.byte	$02
	.byte	$08
	.byte	$06
	.byte	$3D
	.byte	$02
	.byte	$08
	.byte	$FE
	.byte	$2D
	.byte	$02
	.byte	$10
	.byte	$04
	.byte	$4B
	.byte	$42
	.byte	$F8
	.byte	$04
	.byte	$4B
	.byte	$02
	.byte	$00
	.byte	$08
	.byte	$4C
	.byte	$02
	.byte	$08
	.byte	$08
	.byte	$4D
	.byte	$02
	.byte	$80
_animate_deathleft6_data:
	.byte	$00
	.byte	$FE
	.byte	$2C
	.byte	$02
	.byte	$00
	.byte	$06
	.byte	$3C
	.byte	$02
	.byte	$08
	.byte	$06
	.byte	$3D
	.byte	$02
	.byte	$08
	.byte	$FE
	.byte	$2D
	.byte	$02
	.byte	$10
	.byte	$06
	.byte	$4B
	.byte	$42
	.byte	$F8
	.byte	$06
	.byte	$4B
	.byte	$02
	.byte	$00
	.byte	$08
	.byte	$4C
	.byte	$02
	.byte	$08
	.byte	$08
	.byte	$4D
	.byte	$02
	.byte	$80
_animate_deathleft7_data:
	.byte	$00
	.byte	$FF
	.byte	$2C
	.byte	$02
	.byte	$00
	.byte	$07
	.byte	$5E
	.byte	$02
	.byte	$08
	.byte	$07
	.byte	$5F
	.byte	$02
	.byte	$08
	.byte	$FF
	.byte	$2D
	.byte	$02
	.byte	$0F
	.byte	$09
	.byte	$4B
	.byte	$42
	.byte	$F9
	.byte	$09
	.byte	$4B
	.byte	$02
	.byte	$80
_animate_deathleft8_data:
	.byte	$00
	.byte	$FF
	.byte	$2C
	.byte	$02
	.byte	$00
	.byte	$07
	.byte	$5E
	.byte	$02
	.byte	$08
	.byte	$07
	.byte	$5F
	.byte	$02
	.byte	$08
	.byte	$FF
	.byte	$2D
	.byte	$02
	.byte	$0F
	.byte	$0B
	.byte	$4B
	.byte	$42
	.byte	$F9
	.byte	$0B
	.byte	$4B
	.byte	$02
	.byte	$80
_animate_recoilright_data:
	.byte	$08
	.byte	$F8
	.byte	$29
	.byte	$40
	.byte	$00
	.byte	$F8
	.byte	$2A
	.byte	$40
	.byte	$08
	.byte	$00
	.byte	$39
	.byte	$40
	.byte	$00
	.byte	$00
	.byte	$3A
	.byte	$40
	.byte	$08
	.byte	$08
	.byte	$49
	.byte	$40
	.byte	$00
	.byte	$08
	.byte	$4A
	.byte	$40
	.byte	$F8
	.byte	$00
	.byte	$3B
	.byte	$40
	.byte	$10
	.byte	$00
	.byte	$3B
	.byte	$00
	.byte	$04
	.byte	$F9
	.byte	$0B
	.byte	$42
	.byte	$80
_animate_skeletonright_data:
	.byte	$08
	.byte	$F8
	.byte	$2C
	.byte	$42
	.byte	$08
	.byte	$08
	.byte	$4C
	.byte	$42
	.byte	$08
	.byte	$00
	.byte	$3C
	.byte	$42
	.byte	$00
	.byte	$00
	.byte	$3D
	.byte	$42
	.byte	$00
	.byte	$F8
	.byte	$2D
	.byte	$42
	.byte	$00
	.byte	$08
	.byte	$4D
	.byte	$42
	.byte	$F8
	.byte	$00
	.byte	$4B
	.byte	$02
	.byte	$10
	.byte	$00
	.byte	$4B
	.byte	$42
	.byte	$80
_animate_deathright1_data:
	.byte	$08
	.byte	$F8
	.byte	$2C
	.byte	$42
	.byte	$08
	.byte	$08
	.byte	$4C
	.byte	$42
	.byte	$08
	.byte	$00
	.byte	$3C
	.byte	$42
	.byte	$00
	.byte	$00
	.byte	$3D
	.byte	$42
	.byte	$00
	.byte	$F8
	.byte	$2D
	.byte	$42
	.byte	$00
	.byte	$08
	.byte	$4D
	.byte	$42
	.byte	$F8
	.byte	$00
	.byte	$4B
	.byte	$02
	.byte	$10
	.byte	$00
	.byte	$4B
	.byte	$42
	.byte	$80
_animate_deathright2_data:
	.byte	$08
	.byte	$F8
	.byte	$2C
	.byte	$42
	.byte	$08
	.byte	$08
	.byte	$4C
	.byte	$42
	.byte	$08
	.byte	$00
	.byte	$3C
	.byte	$42
	.byte	$00
	.byte	$00
	.byte	$3D
	.byte	$42
	.byte	$00
	.byte	$F8
	.byte	$2D
	.byte	$42
	.byte	$00
	.byte	$08
	.byte	$4D
	.byte	$42
	.byte	$F8
	.byte	$00
	.byte	$4B
	.byte	$02
	.byte	$10
	.byte	$00
	.byte	$4B
	.byte	$42
	.byte	$80
_animate_deathright3_data:
	.byte	$08
	.byte	$FA
	.byte	$2C
	.byte	$42
	.byte	$08
	.byte	$02
	.byte	$3C
	.byte	$42
	.byte	$00
	.byte	$02
	.byte	$3D
	.byte	$42
	.byte	$00
	.byte	$FA
	.byte	$2D
	.byte	$42
	.byte	$F8
	.byte	$00
	.byte	$4B
	.byte	$02
	.byte	$10
	.byte	$00
	.byte	$4B
	.byte	$42
	.byte	$08
	.byte	$08
	.byte	$4C
	.byte	$42
	.byte	$00
	.byte	$08
	.byte	$4D
	.byte	$42
	.byte	$80
_animate_deathright4_data:
	.byte	$08
	.byte	$FC
	.byte	$2C
	.byte	$42
	.byte	$08
	.byte	$04
	.byte	$3C
	.byte	$42
	.byte	$00
	.byte	$04
	.byte	$3D
	.byte	$42
	.byte	$00
	.byte	$FC
	.byte	$2D
	.byte	$42
	.byte	$F8
	.byte	$02
	.byte	$4B
	.byte	$02
	.byte	$10
	.byte	$02
	.byte	$4B
	.byte	$42
	.byte	$08
	.byte	$08
	.byte	$4C
	.byte	$42
	.byte	$00
	.byte	$08
	.byte	$4D
	.byte	$42
	.byte	$80
_animate_deathright5_data:
	.byte	$08
	.byte	$FE
	.byte	$2C
	.byte	$42
	.byte	$08
	.byte	$06
	.byte	$3C
	.byte	$42
	.byte	$00
	.byte	$06
	.byte	$3D
	.byte	$42
	.byte	$00
	.byte	$FE
	.byte	$2D
	.byte	$42
	.byte	$F8
	.byte	$04
	.byte	$4B
	.byte	$02
	.byte	$10
	.byte	$04
	.byte	$4B
	.byte	$42
	.byte	$08
	.byte	$08
	.byte	$4C
	.byte	$42
	.byte	$00
	.byte	$08
	.byte	$4D
	.byte	$42
	.byte	$80
_animate_deathright6_data:
	.byte	$08
	.byte	$FE
	.byte	$2C
	.byte	$42
	.byte	$08
	.byte	$06
	.byte	$3C
	.byte	$42
	.byte	$00
	.byte	$06
	.byte	$3D
	.byte	$42
	.byte	$00
	.byte	$FE
	.byte	$2D
	.byte	$42
	.byte	$F8
	.byte	$06
	.byte	$4B
	.byte	$02
	.byte	$10
	.byte	$06
	.byte	$4B
	.byte	$42
	.byte	$08
	.byte	$08
	.byte	$4C
	.byte	$42
	.byte	$00
	.byte	$08
	.byte	$4D
	.byte	$42
	.byte	$80
_animate_deathright7_data:
	.byte	$08
	.byte	$FF
	.byte	$2C
	.byte	$42
	.byte	$08
	.byte	$07
	.byte	$5E
	.byte	$42
	.byte	$00
	.byte	$07
	.byte	$5F
	.byte	$42
	.byte	$00
	.byte	$FF
	.byte	$2D
	.byte	$42
	.byte	$F9
	.byte	$09
	.byte	$4B
	.byte	$02
	.byte	$0F
	.byte	$09
	.byte	$4B
	.byte	$42
	.byte	$80
_animate_deathright8_data:
	.byte	$08
	.byte	$FF
	.byte	$2C
	.byte	$42
	.byte	$08
	.byte	$07
	.byte	$5E
	.byte	$42
	.byte	$00
	.byte	$07
	.byte	$5F
	.byte	$42
	.byte	$00
	.byte	$FF
	.byte	$2D
	.byte	$42
	.byte	$F9
	.byte	$0B
	.byte	$4B
	.byte	$02
	.byte	$0F
	.byte	$0B
	.byte	$4B
	.byte	$42
	.byte	$80
_animate_playerstandright_data:
	.byte	$08
	.byte	$F8
	.byte	$00
	.byte	$40
	.byte	$00
	.byte	$F8
	.byte	$01
	.byte	$40
	.byte	$08
	.byte	$00
	.byte	$10
	.byte	$40
	.byte	$00
	.byte	$00
	.byte	$11
	.byte	$40
	.byte	$08
	.byte	$08
	.byte	$20
	.byte	$40
	.byte	$00
	.byte	$08
	.byte	$21
	.byte	$40
	.byte	$04
	.byte	$F9
	.byte	$0B
	.byte	$42
	.byte	$80
_animate_playerstandleft_data:
	.byte	$00
	.byte	$F8
	.byte	$00
	.byte	$00
	.byte	$08
	.byte	$F8
	.byte	$01
	.byte	$00
	.byte	$00
	.byte	$00
	.byte	$10
	.byte	$00
	.byte	$08
	.byte	$00
	.byte	$11
	.byte	$00
	.byte	$00
	.byte	$08
	.byte	$20
	.byte	$00
	.byte	$08
	.byte	$08
	.byte	$21
	.byte	$00
	.byte	$04
	.byte	$F9
	.byte	$0B
	.byte	$02
	.byte	$80
_animate_playerstandshootleft_data:
	.byte	$00
	.byte	$F8
	.byte	$00
	.byte	$00
	.byte	$08
	.byte	$F8
	.byte	$01
	.byte	$00
	.byte	$00
	.byte	$00
	.byte	$09
	.byte	$00
	.byte	$08
	.byte	$00
	.byte	$11
	.byte	$00
	.byte	$00
	.byte	$08
	.byte	$20
	.byte	$00
	.byte	$08
	.byte	$08
	.byte	$21
	.byte	$00
	.byte	$04
	.byte	$F9
	.byte	$0B
	.byte	$02
	.byte	$F8
	.byte	$00
	.byte	$08
	.byte	$00
	.byte	$80
_animate_playerstandshootright_data:
	.byte	$08
	.byte	$F8
	.byte	$00
	.byte	$40
	.byte	$00
	.byte	$F8
	.byte	$01
	.byte	$40
	.byte	$08
	.byte	$00
	.byte	$09
	.byte	$40
	.byte	$00
	.byte	$00
	.byte	$11
	.byte	$40
	.byte	$08
	.byte	$08
	.byte	$20
	.byte	$40
	.byte	$00
	.byte	$08
	.byte	$21
	.byte	$40
	.byte	$04
	.byte	$F9
	.byte	$0B
	.byte	$42
	.byte	$10
	.byte	$00
	.byte	$08
	.byte	$40
	.byte	$80
_animate_playerrun1left_data:
	.byte	$00
	.byte	$F8
	.byte	$1A
	.byte	$00
	.byte	$08
	.byte	$F8
	.byte	$1B
	.byte	$00
	.byte	$00
	.byte	$00
	.byte	$32
	.byte	$00
	.byte	$08
	.byte	$00
	.byte	$33
	.byte	$00
	.byte	$00
	.byte	$08
	.byte	$42
	.byte	$00
	.byte	$08
	.byte	$08
	.byte	$43
	.byte	$00
	.byte	$10
	.byte	$08
	.byte	$46
	.byte	$00
	.byte	$04
	.byte	$FB
	.byte	$0B
	.byte	$02
	.byte	$80
_animate_playerrun2left_data:
	.byte	$00
	.byte	$F8
	.byte	$00
	.byte	$00
	.byte	$08
	.byte	$F8
	.byte	$01
	.byte	$00
	.byte	$00
	.byte	$00
	.byte	$30
	.byte	$00
	.byte	$08
	.byte	$00
	.byte	$31
	.byte	$00
	.byte	$00
	.byte	$08
	.byte	$40
	.byte	$00
	.byte	$08
	.byte	$08
	.byte	$41
	.byte	$00
	.byte	$04
	.byte	$F9
	.byte	$0B
	.byte	$02
	.byte	$80
_animate_playerrun3left_data:
	.byte	$00
	.byte	$F8
	.byte	$1A
	.byte	$00
	.byte	$08
	.byte	$F8
	.byte	$1B
	.byte	$00
	.byte	$00
	.byte	$00
	.byte	$34
	.byte	$00
	.byte	$08
	.byte	$00
	.byte	$35
	.byte	$00
	.byte	$00
	.byte	$08
	.byte	$44
	.byte	$00
	.byte	$08
	.byte	$08
	.byte	$45
	.byte	$00
	.byte	$10
	.byte	$08
	.byte	$46
	.byte	$00
	.byte	$04
	.byte	$FB
	.byte	$0B
	.byte	$02
	.byte	$80
_animate_playerrun1right_data:
	.byte	$08
	.byte	$F8
	.byte	$1A
	.byte	$40
	.byte	$00
	.byte	$F8
	.byte	$1B
	.byte	$40
	.byte	$08
	.byte	$00
	.byte	$32
	.byte	$40
	.byte	$00
	.byte	$00
	.byte	$33
	.byte	$40
	.byte	$08
	.byte	$08
	.byte	$42
	.byte	$40
	.byte	$00
	.byte	$08
	.byte	$43
	.byte	$40
	.byte	$F8
	.byte	$08
	.byte	$46
	.byte	$40
	.byte	$04
	.byte	$FB
	.byte	$0B
	.byte	$42
	.byte	$80
_animate_playerrun2right_data:
	.byte	$08
	.byte	$F8
	.byte	$00
	.byte	$40
	.byte	$00
	.byte	$F8
	.byte	$01
	.byte	$40
	.byte	$08
	.byte	$00
	.byte	$30
	.byte	$40
	.byte	$00
	.byte	$00
	.byte	$31
	.byte	$40
	.byte	$08
	.byte	$08
	.byte	$40
	.byte	$40
	.byte	$00
	.byte	$08
	.byte	$41
	.byte	$40
	.byte	$04
	.byte	$F9
	.byte	$0B
	.byte	$42
	.byte	$80
_animate_playerrun3right_data:
	.byte	$08
	.byte	$F8
	.byte	$1A
	.byte	$40
	.byte	$00
	.byte	$F8
	.byte	$1B
	.byte	$40
	.byte	$08
	.byte	$00
	.byte	$34
	.byte	$40
	.byte	$00
	.byte	$00
	.byte	$35
	.byte	$40
	.byte	$08
	.byte	$08
	.byte	$44
	.byte	$40
	.byte	$00
	.byte	$08
	.byte	$45
	.byte	$40
	.byte	$F8
	.byte	$08
	.byte	$46
	.byte	$40
	.byte	$04
	.byte	$FB
	.byte	$0B
	.byte	$42
	.byte	$80
_animate_playerrunshoot1left_data:
	.byte	$00
	.byte	$F8
	.byte	$1A
	.byte	$00
	.byte	$08
	.byte	$F8
	.byte	$1B
	.byte	$00
	.byte	$00
	.byte	$00
	.byte	$19
	.byte	$00
	.byte	$08
	.byte	$00
	.byte	$33
	.byte	$00
	.byte	$00
	.byte	$08
	.byte	$42
	.byte	$00
	.byte	$08
	.byte	$08
	.byte	$43
	.byte	$00
	.byte	$10
	.byte	$08
	.byte	$46
	.byte	$00
	.byte	$04
	.byte	$FB
	.byte	$0B
	.byte	$02
	.byte	$F8
	.byte	$00
	.byte	$18
	.byte	$00
	.byte	$80
_animate_playerrunshoot2left_data:
	.byte	$00
	.byte	$F8
	.byte	$00
	.byte	$00
	.byte	$08
	.byte	$F8
	.byte	$01
	.byte	$00
	.byte	$00
	.byte	$00
	.byte	$09
	.byte	$00
	.byte	$08
	.byte	$00
	.byte	$31
	.byte	$00
	.byte	$00
	.byte	$08
	.byte	$40
	.byte	$00
	.byte	$08
	.byte	$08
	.byte	$41
	.byte	$00
	.byte	$04
	.byte	$F9
	.byte	$0B
	.byte	$02
	.byte	$F8
	.byte	$00
	.byte	$08
	.byte	$00
	.byte	$80
_animate_playerrunshoot3left_data:
	.byte	$00
	.byte	$F8
	.byte	$1A
	.byte	$00
	.byte	$08
	.byte	$F8
	.byte	$1B
	.byte	$00
	.byte	$00
	.byte	$00
	.byte	$19
	.byte	$00
	.byte	$08
	.byte	$00
	.byte	$35
	.byte	$00
	.byte	$00
	.byte	$08
	.byte	$44
	.byte	$00
	.byte	$08
	.byte	$08
	.byte	$45
	.byte	$00
	.byte	$10
	.byte	$08
	.byte	$46
	.byte	$00
	.byte	$04
	.byte	$FB
	.byte	$0B
	.byte	$02
	.byte	$F8
	.byte	$00
	.byte	$18
	.byte	$00
	.byte	$80
_animate_playerrunshoot1right_data:
	.byte	$08
	.byte	$F8
	.byte	$1A
	.byte	$40
	.byte	$00
	.byte	$F8
	.byte	$1B
	.byte	$40
	.byte	$08
	.byte	$00
	.byte	$19
	.byte	$40
	.byte	$00
	.byte	$00
	.byte	$33
	.byte	$40
	.byte	$08
	.byte	$08
	.byte	$42
	.byte	$40
	.byte	$00
	.byte	$08
	.byte	$43
	.byte	$40
	.byte	$F8
	.byte	$08
	.byte	$46
	.byte	$40
	.byte	$04
	.byte	$FB
	.byte	$0B
	.byte	$42
	.byte	$10
	.byte	$00
	.byte	$18
	.byte	$40
	.byte	$80
_animate_playerrunshoot2right_data:
	.byte	$08
	.byte	$F8
	.byte	$00
	.byte	$40
	.byte	$00
	.byte	$F8
	.byte	$01
	.byte	$40
	.byte	$08
	.byte	$00
	.byte	$09
	.byte	$40
	.byte	$00
	.byte	$00
	.byte	$31
	.byte	$40
	.byte	$08
	.byte	$08
	.byte	$40
	.byte	$40
	.byte	$00
	.byte	$08
	.byte	$41
	.byte	$40
	.byte	$04
	.byte	$F9
	.byte	$0B
	.byte	$42
	.byte	$10
	.byte	$00
	.byte	$08
	.byte	$40
	.byte	$80
_animate_playerrunshoot3right_data:
	.byte	$08
	.byte	$F8
	.byte	$1A
	.byte	$40
	.byte	$00
	.byte	$F8
	.byte	$1B
	.byte	$40
	.byte	$08
	.byte	$00
	.byte	$19
	.byte	$40
	.byte	$00
	.byte	$00
	.byte	$35
	.byte	$40
	.byte	$08
	.byte	$08
	.byte	$44
	.byte	$40
	.byte	$00
	.byte	$08
	.byte	$45
	.byte	$40
	.byte	$F8
	.byte	$08
	.byte	$46
	.byte	$40
	.byte	$04
	.byte	$FB
	.byte	$0B
	.byte	$42
	.byte	$10
	.byte	$00
	.byte	$18
	.byte	$40
	.byte	$80
_animate_playerjumpleft_data:
	.byte	$00
	.byte	$F8
	.byte	$27
	.byte	$00
	.byte	$08
	.byte	$F8
	.byte	$28
	.byte	$00
	.byte	$00
	.byte	$00
	.byte	$37
	.byte	$00
	.byte	$08
	.byte	$00
	.byte	$38
	.byte	$00
	.byte	$00
	.byte	$08
	.byte	$47
	.byte	$00
	.byte	$08
	.byte	$08
	.byte	$48
	.byte	$00
	.byte	$08
	.byte	$10
	.byte	$58
	.byte	$00
	.byte	$04
	.byte	$F9
	.byte	$0B
	.byte	$02
	.byte	$80
_animate_playerjumpleftshoot_data:
	.byte	$00
	.byte	$F8
	.byte	$00
	.byte	$00
	.byte	$08
	.byte	$F8
	.byte	$28
	.byte	$00
	.byte	$00
	.byte	$00
	.byte	$09
	.byte	$00
	.byte	$08
	.byte	$00
	.byte	$38
	.byte	$00
	.byte	$00
	.byte	$08
	.byte	$47
	.byte	$00
	.byte	$08
	.byte	$08
	.byte	$48
	.byte	$00
	.byte	$08
	.byte	$10
	.byte	$58
	.byte	$00
	.byte	$04
	.byte	$F9
	.byte	$0B
	.byte	$02
	.byte	$F8
	.byte	$00
	.byte	$08
	.byte	$00
	.byte	$80
_animate_playerjumpright_data:
	.byte	$08
	.byte	$F8
	.byte	$27
	.byte	$40
	.byte	$00
	.byte	$F8
	.byte	$28
	.byte	$40
	.byte	$08
	.byte	$00
	.byte	$37
	.byte	$40
	.byte	$00
	.byte	$00
	.byte	$38
	.byte	$40
	.byte	$08
	.byte	$08
	.byte	$47
	.byte	$40
	.byte	$00
	.byte	$08
	.byte	$48
	.byte	$40
	.byte	$00
	.byte	$10
	.byte	$58
	.byte	$40
	.byte	$04
	.byte	$F9
	.byte	$0B
	.byte	$42
	.byte	$80
_animate_playerjumprightshoot_data:
	.byte	$08
	.byte	$F8
	.byte	$00
	.byte	$40
	.byte	$00
	.byte	$F8
	.byte	$28
	.byte	$40
	.byte	$08
	.byte	$00
	.byte	$09
	.byte	$40
	.byte	$00
	.byte	$00
	.byte	$38
	.byte	$40
	.byte	$08
	.byte	$08
	.byte	$47
	.byte	$40
	.byte	$00
	.byte	$08
	.byte	$48
	.byte	$40
	.byte	$00
	.byte	$10
	.byte	$58
	.byte	$40
	.byte	$04
	.byte	$F9
	.byte	$0B
	.byte	$42
	.byte	$10
	.byte	$00
	.byte	$08
	.byte	$40
	.byte	$80
_animate_hootyowl1left_data:
	.byte	$00
	.byte	$00
	.byte	$E7
	.byte	$02
	.byte	$00
	.byte	$08
	.byte	$F7
	.byte	$02
	.byte	$08
	.byte	$00
	.byte	$E8
	.byte	$02
	.byte	$10
	.byte	$00
	.byte	$E9
	.byte	$02
	.byte	$08
	.byte	$08
	.byte	$F8
	.byte	$02
	.byte	$10
	.byte	$08
	.byte	$F9
	.byte	$02
	.byte	$80
_animate_hootyowl2left_data:
	.byte	$00
	.byte	$00
	.byte	$C7
	.byte	$02
	.byte	$00
	.byte	$08
	.byte	$F7
	.byte	$02
	.byte	$08
	.byte	$00
	.byte	$E8
	.byte	$02
	.byte	$10
	.byte	$00
	.byte	$C9
	.byte	$02
	.byte	$08
	.byte	$08
	.byte	$F8
	.byte	$02
	.byte	$10
	.byte	$08
	.byte	$F9
	.byte	$02
	.byte	$80
_animate_hootyowl3left_data:
	.byte	$00
	.byte	$00
	.byte	$A7
	.byte	$02
	.byte	$00
	.byte	$08
	.byte	$B7
	.byte	$02
	.byte	$08
	.byte	$00
	.byte	$E8
	.byte	$02
	.byte	$10
	.byte	$00
	.byte	$A9
	.byte	$02
	.byte	$08
	.byte	$08
	.byte	$F8
	.byte	$02
	.byte	$10
	.byte	$08
	.byte	$B9
	.byte	$02
	.byte	$80
_animate_hootyowl4left_data:
	.byte	$00
	.byte	$00
	.byte	$87
	.byte	$02
	.byte	$08
	.byte	$00
	.byte	$88
	.byte	$02
	.byte	$10
	.byte	$00
	.byte	$89
	.byte	$02
	.byte	$08
	.byte	$08
	.byte	$98
	.byte	$02
	.byte	$00
	.byte	$08
	.byte	$97
	.byte	$02
	.byte	$10
	.byte	$08
	.byte	$99
	.byte	$02
	.byte	$80
_animate_hootyowl5left_data:
	.byte	$00
	.byte	$08
	.byte	$87
	.byte	$82
	.byte	$08
	.byte	$08
	.byte	$88
	.byte	$82
	.byte	$10
	.byte	$08
	.byte	$89
	.byte	$82
	.byte	$08
	.byte	$00
	.byte	$98
	.byte	$82
	.byte	$00
	.byte	$00
	.byte	$97
	.byte	$82
	.byte	$10
	.byte	$00
	.byte	$99
	.byte	$82
	.byte	$80
_animate_hootyowl1right_data:
	.byte	$10
	.byte	$00
	.byte	$E7
	.byte	$42
	.byte	$10
	.byte	$08
	.byte	$F7
	.byte	$42
	.byte	$08
	.byte	$00
	.byte	$E8
	.byte	$42
	.byte	$00
	.byte	$00
	.byte	$E9
	.byte	$42
	.byte	$08
	.byte	$08
	.byte	$F8
	.byte	$42
	.byte	$00
	.byte	$08
	.byte	$F9
	.byte	$42
	.byte	$80
_animate_hootyowl2right_data:
	.byte	$10
	.byte	$00
	.byte	$C7
	.byte	$42
	.byte	$10
	.byte	$08
	.byte	$F7
	.byte	$42
	.byte	$08
	.byte	$00
	.byte	$E8
	.byte	$42
	.byte	$00
	.byte	$00
	.byte	$C9
	.byte	$42
	.byte	$08
	.byte	$08
	.byte	$F8
	.byte	$42
	.byte	$00
	.byte	$08
	.byte	$F9
	.byte	$42
	.byte	$80
_animate_hootyowl3right_data:
	.byte	$10
	.byte	$00
	.byte	$A7
	.byte	$42
	.byte	$10
	.byte	$08
	.byte	$B7
	.byte	$42
	.byte	$08
	.byte	$00
	.byte	$E8
	.byte	$42
	.byte	$00
	.byte	$00
	.byte	$A9
	.byte	$42
	.byte	$08
	.byte	$08
	.byte	$F8
	.byte	$42
	.byte	$00
	.byte	$08
	.byte	$B9
	.byte	$42
	.byte	$80
_animate_hootyowl4right_data:
	.byte	$10
	.byte	$00
	.byte	$87
	.byte	$42
	.byte	$08
	.byte	$00
	.byte	$88
	.byte	$42
	.byte	$00
	.byte	$00
	.byte	$89
	.byte	$42
	.byte	$08
	.byte	$08
	.byte	$98
	.byte	$42
	.byte	$10
	.byte	$08
	.byte	$97
	.byte	$42
	.byte	$00
	.byte	$08
	.byte	$99
	.byte	$42
	.byte	$80
_animate_hootyowl5right_data:
	.byte	$10
	.byte	$08
	.byte	$87
	.byte	$C2
	.byte	$08
	.byte	$08
	.byte	$88
	.byte	$C2
	.byte	$00
	.byte	$08
	.byte	$89
	.byte	$C2
	.byte	$08
	.byte	$00
	.byte	$98
	.byte	$C2
	.byte	$10
	.byte	$00
	.byte	$97
	.byte	$C2
	.byte	$00
	.byte	$00
	.byte	$99
	.byte	$C2
	.byte	$80
_animate_snail1left_data:
	.byte	$00
	.byte	$00
	.byte	$ED
	.byte	$01
	.byte	$00
	.byte	$08
	.byte	$FD
	.byte	$01
	.byte	$08
	.byte	$00
	.byte	$EE
	.byte	$01
	.byte	$08
	.byte	$08
	.byte	$FE
	.byte	$01
	.byte	$10
	.byte	$00
	.byte	$EF
	.byte	$01
	.byte	$10
	.byte	$08
	.byte	$FF
	.byte	$01
	.byte	$80
_animate_snail2left_data:
	.byte	$00
	.byte	$00
	.byte	$CD
	.byte	$01
	.byte	$00
	.byte	$08
	.byte	$DD
	.byte	$01
	.byte	$08
	.byte	$00
	.byte	$EE
	.byte	$01
	.byte	$08
	.byte	$08
	.byte	$FE
	.byte	$01
	.byte	$10
	.byte	$00
	.byte	$EF
	.byte	$01
	.byte	$10
	.byte	$08
	.byte	$DF
	.byte	$01
	.byte	$80
_animate_snail3left_data:
	.byte	$00
	.byte	$00
	.byte	$AD
	.byte	$01
	.byte	$00
	.byte	$08
	.byte	$BD
	.byte	$01
	.byte	$08
	.byte	$00
	.byte	$EE
	.byte	$01
	.byte	$08
	.byte	$08
	.byte	$FE
	.byte	$01
	.byte	$10
	.byte	$00
	.byte	$EF
	.byte	$01
	.byte	$10
	.byte	$08
	.byte	$BF
	.byte	$01
	.byte	$80
_animate_snail1right_data:
	.byte	$10
	.byte	$00
	.byte	$ED
	.byte	$41
	.byte	$10
	.byte	$08
	.byte	$FD
	.byte	$41
	.byte	$08
	.byte	$00
	.byte	$EE
	.byte	$41
	.byte	$08
	.byte	$08
	.byte	$FE
	.byte	$41
	.byte	$00
	.byte	$00
	.byte	$EF
	.byte	$41
	.byte	$00
	.byte	$08
	.byte	$FF
	.byte	$41
	.byte	$80
_animate_snail2right_data:
	.byte	$10
	.byte	$00
	.byte	$CD
	.byte	$41
	.byte	$10
	.byte	$08
	.byte	$DD
	.byte	$41
	.byte	$08
	.byte	$00
	.byte	$EE
	.byte	$41
	.byte	$08
	.byte	$08
	.byte	$FE
	.byte	$41
	.byte	$00
	.byte	$00
	.byte	$EF
	.byte	$41
	.byte	$00
	.byte	$08
	.byte	$DF
	.byte	$41
	.byte	$80
_animate_snail3right_data:
	.byte	$10
	.byte	$00
	.byte	$AD
	.byte	$41
	.byte	$10
	.byte	$08
	.byte	$BD
	.byte	$41
	.byte	$08
	.byte	$00
	.byte	$EE
	.byte	$41
	.byte	$08
	.byte	$08
	.byte	$FE
	.byte	$41
	.byte	$00
	.byte	$00
	.byte	$EF
	.byte	$41
	.byte	$00
	.byte	$08
	.byte	$BF
	.byte	$41
	.byte	$80
_animate_snake1left_data:
	.byte	$20
	.byte	$08
	.byte	$FA
	.byte	$C1
	.byte	$80
_animate_snake2left_data:
	.byte	$20
	.byte	$00
	.byte	$FA
	.byte	$C1
	.byte	$20
	.byte	$08
	.byte	$CC
	.byte	$01
	.byte	$80
_animate_snake3left_data:
	.byte	$20
	.byte	$00
	.byte	$EB
	.byte	$01
	.byte	$20
	.byte	$08
	.byte	$CC
	.byte	$01
	.byte	$18
	.byte	$00
	.byte	$CB
	.byte	$01
	.byte	$80
_animate_snake4left_data:
	.byte	$20
	.byte	$00
	.byte	$EB
	.byte	$01
	.byte	$20
	.byte	$08
	.byte	$CC
	.byte	$01
	.byte	$10
	.byte	$00
	.byte	$CB
	.byte	$01
	.byte	$18
	.byte	$00
	.byte	$DC
	.byte	$81
	.byte	$80
_animate_snake5left_data:
	.byte	$20
	.byte	$00
	.byte	$EB
	.byte	$01
	.byte	$20
	.byte	$08
	.byte	$CC
	.byte	$01
	.byte	$10
	.byte	$00
	.byte	$EA
	.byte	$01
	.byte	$18
	.byte	$00
	.byte	$DC
	.byte	$81
	.byte	$10
	.byte	$08
	.byte	$FA
	.byte	$01
	.byte	$80
_animate_snake6left_data:
	.byte	$20
	.byte	$00
	.byte	$EB
	.byte	$01
	.byte	$20
	.byte	$08
	.byte	$CC
	.byte	$01
	.byte	$10
	.byte	$00
	.byte	$EA
	.byte	$01
	.byte	$18
	.byte	$00
	.byte	$DC
	.byte	$81
	.byte	$10
	.byte	$08
	.byte	$CC
	.byte	$41
	.byte	$80
_animate_snake7left_data:
	.byte	$20
	.byte	$00
	.byte	$EB
	.byte	$01
	.byte	$20
	.byte	$08
	.byte	$EC
	.byte	$C1
	.byte	$10
	.byte	$00
	.byte	$EA
	.byte	$01
	.byte	$18
	.byte	$00
	.byte	$DC
	.byte	$81
	.byte	$10
	.byte	$08
	.byte	$CC
	.byte	$41
	.byte	$80
_animate_snake8left_data:
	.byte	$20
	.byte	$00
	.byte	$DB
	.byte	$41
	.byte	$10
	.byte	$00
	.byte	$EA
	.byte	$01
	.byte	$18
	.byte	$00
	.byte	$DC
	.byte	$81
	.byte	$10
	.byte	$08
	.byte	$CC
	.byte	$41
	.byte	$00
	.byte	$08
	.byte	$FA
	.byte	$C1
	.byte	$80
_animate_snake9left_data:
	.byte	$10
	.byte	$00
	.byte	$EA
	.byte	$01
	.byte	$18
	.byte	$00
	.byte	$DB
	.byte	$41
	.byte	$10
	.byte	$08
	.byte	$CC
	.byte	$41
	.byte	$00
	.byte	$08
	.byte	$CC
	.byte	$81
	.byte	$00
	.byte	$00
	.byte	$FA
	.byte	$C1
	.byte	$80
_animate_snake10left_data:
	.byte	$10
	.byte	$00
	.byte	$EC
	.byte	$01
	.byte	$10
	.byte	$08
	.byte	$CC
	.byte	$41
	.byte	$00
	.byte	$08
	.byte	$CC
	.byte	$81
	.byte	$00
	.byte	$00
	.byte	$EB
	.byte	$01
	.byte	$F8
	.byte	$00
	.byte	$CB
	.byte	$01
	.byte	$80
_animate_snake11left_data:
	.byte	$10
	.byte	$00
	.byte	$EC
	.byte	$41
	.byte	$10
	.byte	$08
	.byte	$CC
	.byte	$41
	.byte	$00
	.byte	$08
	.byte	$CC
	.byte	$81
	.byte	$00
	.byte	$00
	.byte	$EB
	.byte	$01
	.byte	$F8
	.byte	$00
	.byte	$FB
	.byte	$01
	.byte	$80
_animate_snake12left_data:
	.byte	$10
	.byte	$00
	.byte	$EC
	.byte	$01
	.byte	$10
	.byte	$08
	.byte	$CC
	.byte	$41
	.byte	$00
	.byte	$08
	.byte	$CC
	.byte	$81
	.byte	$00
	.byte	$00
	.byte	$EB
	.byte	$01
	.byte	$F8
	.byte	$00
	.byte	$FC
	.byte	$01
	.byte	$80
_animate_snake13left_data:
	.byte	$10
	.byte	$00
	.byte	$EC
	.byte	$41
	.byte	$10
	.byte	$08
	.byte	$CC
	.byte	$41
	.byte	$00
	.byte	$08
	.byte	$CC
	.byte	$81
	.byte	$00
	.byte	$00
	.byte	$EB
	.byte	$01
	.byte	$F8
	.byte	$00
	.byte	$FB
	.byte	$01
	.byte	$80
_animate_snake14left_data:
	.byte	$10
	.byte	$08
	.byte	$EC
	.byte	$01
	.byte	$00
	.byte	$08
	.byte	$CC
	.byte	$81
	.byte	$00
	.byte	$00
	.byte	$EB
	.byte	$01
	.byte	$F0
	.byte	$00
	.byte	$CB
	.byte	$01
	.byte	$F8
	.byte	$00
	.byte	$DC
	.byte	$81
	.byte	$80
_animate_snake15left_data:
	.byte	$00
	.byte	$08
	.byte	$CC
	.byte	$81
	.byte	$00
	.byte	$00
	.byte	$EB
	.byte	$01
	.byte	$F0
	.byte	$00
	.byte	$EA
	.byte	$01
	.byte	$F8
	.byte	$00
	.byte	$DC
	.byte	$81
	.byte	$F0
	.byte	$08
	.byte	$FA
	.byte	$01
	.byte	$80
_animate_snake16left_data:
	.byte	$00
	.byte	$08
	.byte	$CC
	.byte	$81
	.byte	$00
	.byte	$00
	.byte	$EB
	.byte	$01
	.byte	$F0
	.byte	$00
	.byte	$EA
	.byte	$01
	.byte	$F8
	.byte	$00
	.byte	$DC
	.byte	$81
	.byte	$F0
	.byte	$08
	.byte	$CC
	.byte	$41
	.byte	$80
_animate_snake17left_data:
	.byte	$00
	.byte	$08
	.byte	$CC
	.byte	$81
	.byte	$00
	.byte	$00
	.byte	$EB
	.byte	$01
	.byte	$F0
	.byte	$00
	.byte	$EA
	.byte	$01
	.byte	$F8
	.byte	$00
	.byte	$DC
	.byte	$81
	.byte	$F0
	.byte	$08
	.byte	$CC
	.byte	$41
	.byte	$80
_animate_snake18left_data:
	.byte	$00
	.byte	$08
	.byte	$EC
	.byte	$C1
	.byte	$00
	.byte	$00
	.byte	$EB
	.byte	$01
	.byte	$F0
	.byte	$00
	.byte	$EA
	.byte	$01
	.byte	$F8
	.byte	$00
	.byte	$DC
	.byte	$81
	.byte	$F0
	.byte	$08
	.byte	$CC
	.byte	$41
	.byte	$80
_animate_snake19left_data:
	.byte	$00
	.byte	$00
	.byte	$DB
	.byte	$41
	.byte	$F0
	.byte	$00
	.byte	$EA
	.byte	$01
	.byte	$F8
	.byte	$00
	.byte	$DC
	.byte	$81
	.byte	$F0
	.byte	$08
	.byte	$CC
	.byte	$41
	.byte	$80
_animate_snake20left_data:
	.byte	$F8
	.byte	$00
	.byte	$DB
	.byte	$41
	.byte	$F0
	.byte	$00
	.byte	$EA
	.byte	$01
	.byte	$F0
	.byte	$08
	.byte	$CC
	.byte	$41
	.byte	$80
_animate_snake21left_data:
	.byte	$F0
	.byte	$00
	.byte	$EC
	.byte	$01
	.byte	$F0
	.byte	$08
	.byte	$CC
	.byte	$41
	.byte	$80
_animate_snake22left_data:
	.byte	$F0
	.byte	$08
	.byte	$EC
	.byte	$01
	.byte	$80
_animate_mole1_data:
	.byte	$08
	.byte	$08
	.byte	$AF
	.byte	$01
	.byte	$00
	.byte	$08
	.byte	$AE
	.byte	$01
	.byte	$00
	.byte	$08
	.byte	$6E
	.byte	$03
	.byte	$08
	.byte	$08
	.byte	$6F
	.byte	$03
	.byte	$80
_animate_mole2_data:
	.byte	$08
	.byte	$08
	.byte	$AF
	.byte	$01
	.byte	$00
	.byte	$08
	.byte	$AE
	.byte	$01
	.byte	$00
	.byte	$08
	.byte	$6C
	.byte	$03
	.byte	$08
	.byte	$08
	.byte	$6D
	.byte	$03
	.byte	$08
	.byte	$00
	.byte	$5D
	.byte	$03
	.byte	$00
	.byte	$00
	.byte	$5C
	.byte	$03
	.byte	$80
_animate_mole3_data:
	.byte	$00
	.byte	$08
	.byte	$AE
	.byte	$01
	.byte	$08
	.byte	$08
	.byte	$AF
	.byte	$01
	.byte	$00
	.byte	$00
	.byte	$5A
	.byte	$03
	.byte	$00
	.byte	$08
	.byte	$6A
	.byte	$03
	.byte	$08
	.byte	$08
	.byte	$6B
	.byte	$03
	.byte	$08
	.byte	$00
	.byte	$5B
	.byte	$03
	.byte	$80
_animate_mole4_data:
	.byte	$08
	.byte	$08
	.byte	$AF
	.byte	$01
	.byte	$00
	.byte	$08
	.byte	$AE
	.byte	$01
	.byte	$00
	.byte	$08
	.byte	$6C
	.byte	$03
	.byte	$08
	.byte	$08
	.byte	$6D
	.byte	$03
	.byte	$08
	.byte	$00
	.byte	$5D
	.byte	$03
	.byte	$00
	.byte	$00
	.byte	$5C
	.byte	$03
	.byte	$80
_animate_mole5_data:
	.byte	$08
	.byte	$08
	.byte	$AF
	.byte	$01
	.byte	$00
	.byte	$08
	.byte	$AE
	.byte	$01
	.byte	$00
	.byte	$08
	.byte	$6E
	.byte	$03
	.byte	$08
	.byte	$08
	.byte	$6F
	.byte	$03
	.byte	$80
_animate_mole6_data:
	.byte	$08
	.byte	$08
	.byte	$AF
	.byte	$01
	.byte	$00
	.byte	$08
	.byte	$AE
	.byte	$01
	.byte	$00
	.byte	$08
	.byte	$8C
	.byte	$03
	.byte	$08
	.byte	$08
	.byte	$8D
	.byte	$03
	.byte	$08
	.byte	$00
	.byte	$7D
	.byte	$03
	.byte	$80
_animate_mole7_data:
	.byte	$08
	.byte	$08
	.byte	$AF
	.byte	$01
	.byte	$00
	.byte	$08
	.byte	$AE
	.byte	$01
	.byte	$00
	.byte	$08
	.byte	$8E
	.byte	$03
	.byte	$08
	.byte	$08
	.byte	$8F
	.byte	$03
	.byte	$08
	.byte	$00
	.byte	$7F
	.byte	$03
	.byte	$80
_animate_mole8_data:
	.byte	$08
	.byte	$08
	.byte	$AF
	.byte	$01
	.byte	$00
	.byte	$08
	.byte	$AE
	.byte	$01
	.byte	$00
	.byte	$08
	.byte	$8A
	.byte	$03
	.byte	$08
	.byte	$08
	.byte	$8B
	.byte	$03
	.byte	$08
	.byte	$00
	.byte	$7B
	.byte	$03
	.byte	$00
	.byte	$00
	.byte	$7A
	.byte	$03
	.byte	$80
_animate_spidrer1_data:
	.byte	$00
	.byte	$00
	.byte	$BA
	.byte	$03
	.byte	$08
	.byte	$00
	.byte	$BA
	.byte	$43
	.byte	$80
_animate_spider2_data:
	.byte	$00
	.byte	$00
	.byte	$CA
	.byte	$03
	.byte	$08
	.byte	$00
	.byte	$CA
	.byte	$43
	.byte	$80
_animate_spider3_data:
	.byte	$00
	.byte	$00
	.byte	$DA
	.byte	$03
	.byte	$08
	.byte	$00
	.byte	$DA
	.byte	$43
	.byte	$80
_animate_spiderweb_data:
	.byte	$00
	.byte	$00
	.byte	$BB
	.byte	$02
	.byte	$80
_animate_mousewalk1left_data:
	.byte	$00
	.byte	$00
	.byte	$78
	.byte	$03
	.byte	$08
	.byte	$00
	.byte	$79
	.byte	$03
	.byte	$08
	.byte	$F8
	.byte	$69
	.byte	$03
	.byte	$80
_animate_mousewalk2left_data:
	.byte	$00
	.byte	$00
	.byte	$74
	.byte	$03
	.byte	$08
	.byte	$00
	.byte	$75
	.byte	$03
	.byte	$08
	.byte	$F8
	.byte	$65
	.byte	$03
	.byte	$80
_animate_mousewalk3left_data:
	.byte	$00
	.byte	$00
	.byte	$76
	.byte	$03
	.byte	$08
	.byte	$00
	.byte	$77
	.byte	$03
	.byte	$08
	.byte	$F8
	.byte	$67
	.byte	$03
	.byte	$80
_animate_mousewalk1right_data:
	.byte	$08
	.byte	$00
	.byte	$78
	.byte	$43
	.byte	$00
	.byte	$00
	.byte	$79
	.byte	$43
	.byte	$00
	.byte	$F8
	.byte	$69
	.byte	$43
	.byte	$80
_animate_mousewalk2right_data:
	.byte	$08
	.byte	$00
	.byte	$74
	.byte	$43
	.byte	$00
	.byte	$00
	.byte	$75
	.byte	$43
	.byte	$00
	.byte	$F8
	.byte	$65
	.byte	$43
	.byte	$80
_animate_mousewalk3right_data:
	.byte	$08
	.byte	$00
	.byte	$76
	.byte	$43
	.byte	$00
	.byte	$00
	.byte	$77
	.byte	$43
	.byte	$00
	.byte	$F8
	.byte	$67
	.byte	$43
	.byte	$80
_animate_mousejumpleft_data:
	.byte	$00
	.byte	$00
	.byte	$66
	.byte	$03
	.byte	$08
	.byte	$00
	.byte	$68
	.byte	$03
	.byte	$08
	.byte	$F8
	.byte	$69
	.byte	$03
	.byte	$80
_animate_mousejumpright_data:
	.byte	$08
	.byte	$00
	.byte	$66
	.byte	$43
	.byte	$00
	.byte	$00
	.byte	$68
	.byte	$43
	.byte	$00
	.byte	$F8
	.byte	$69
	.byte	$43
	.byte	$80
_animate_bearstandleft_data:
	.byte	$00
	.byte	$F0
	.byte	$B4
	.byte	$01
	.byte	$08
	.byte	$F0
	.byte	$B5
	.byte	$01
	.byte	$00
	.byte	$F8
	.byte	$C4
	.byte	$01
	.byte	$08
	.byte	$F8
	.byte	$C5
	.byte	$01
	.byte	$00
	.byte	$00
	.byte	$D4
	.byte	$01
	.byte	$08
	.byte	$00
	.byte	$D5
	.byte	$01
	.byte	$00
	.byte	$08
	.byte	$E4
	.byte	$01
	.byte	$08
	.byte	$08
	.byte	$E5
	.byte	$01
	.byte	$03
	.byte	$F2
	.byte	$0B
	.byte	$02
	.byte	$80
_animate_bearstandright_data:
	.byte	$08
	.byte	$F0
	.byte	$B4
	.byte	$41
	.byte	$00
	.byte	$F0
	.byte	$B5
	.byte	$41
	.byte	$08
	.byte	$F8
	.byte	$C4
	.byte	$41
	.byte	$00
	.byte	$F8
	.byte	$C5
	.byte	$41
	.byte	$08
	.byte	$00
	.byte	$D4
	.byte	$41
	.byte	$00
	.byte	$00
	.byte	$D5
	.byte	$41
	.byte	$08
	.byte	$08
	.byte	$E4
	.byte	$41
	.byte	$00
	.byte	$08
	.byte	$E5
	.byte	$41
	.byte	$05
	.byte	$F2
	.byte	$0B
	.byte	$42
	.byte	$80
_animate_bearroarleft_data:
	.byte	$00
	.byte	$F0
	.byte	$94
	.byte	$01
	.byte	$08
	.byte	$F0
	.byte	$B5
	.byte	$01
	.byte	$00
	.byte	$F8
	.byte	$A4
	.byte	$01
	.byte	$08
	.byte	$F8
	.byte	$C5
	.byte	$01
	.byte	$00
	.byte	$00
	.byte	$D4
	.byte	$01
	.byte	$08
	.byte	$00
	.byte	$D5
	.byte	$01
	.byte	$00
	.byte	$08
	.byte	$E4
	.byte	$01
	.byte	$08
	.byte	$08
	.byte	$E5
	.byte	$01
	.byte	$03
	.byte	$F2
	.byte	$0B
	.byte	$02
	.byte	$F8
	.byte	$F4
	.byte	$C3
	.byte	$01
	.byte	$80
_animate_bearroarright_data:
	.byte	$08
	.byte	$F0
	.byte	$94
	.byte	$41
	.byte	$00
	.byte	$F0
	.byte	$B5
	.byte	$41
	.byte	$08
	.byte	$F8
	.byte	$A4
	.byte	$41
	.byte	$00
	.byte	$F8
	.byte	$C5
	.byte	$41
	.byte	$08
	.byte	$00
	.byte	$D4
	.byte	$41
	.byte	$00
	.byte	$00
	.byte	$D5
	.byte	$41
	.byte	$08
	.byte	$08
	.byte	$E4
	.byte	$41
	.byte	$00
	.byte	$08
	.byte	$E5
	.byte	$41
	.byte	$05
	.byte	$F2
	.byte	$0B
	.byte	$42
	.byte	$10
	.byte	$F4
	.byte	$C3
	.byte	$41
	.byte	$80
_animate_beararms_data:
	.byte	$00
	.byte	$F0
	.byte	$A0
	.byte	$01
	.byte	$08
	.byte	$F0
	.byte	$A1
	.byte	$01
	.byte	$00
	.byte	$F8
	.byte	$B0
	.byte	$01
	.byte	$08
	.byte	$F8
	.byte	$B1
	.byte	$01
	.byte	$00
	.byte	$00
	.byte	$C0
	.byte	$01
	.byte	$08
	.byte	$00
	.byte	$C1
	.byte	$01
	.byte	$00
	.byte	$08
	.byte	$E4
	.byte	$01
	.byte	$08
	.byte	$08
	.byte	$E5
	.byte	$01
	.byte	$03
	.byte	$F2
	.byte	$0B
	.byte	$02
	.byte	$10
	.byte	$F8
	.byte	$B2
	.byte	$01
	.byte	$10
	.byte	$F0
	.byte	$A2
	.byte	$01
	.byte	$80
_animate_beararmsright_data:
	.byte	$08
	.byte	$F0
	.byte	$A0
	.byte	$41
	.byte	$00
	.byte	$F0
	.byte	$A1
	.byte	$41
	.byte	$08
	.byte	$F8
	.byte	$B0
	.byte	$41
	.byte	$00
	.byte	$F8
	.byte	$B1
	.byte	$41
	.byte	$08
	.byte	$00
	.byte	$C0
	.byte	$41
	.byte	$00
	.byte	$00
	.byte	$C1
	.byte	$41
	.byte	$08
	.byte	$08
	.byte	$E4
	.byte	$41
	.byte	$00
	.byte	$08
	.byte	$E5
	.byte	$41
	.byte	$05
	.byte	$F2
	.byte	$0B
	.byte	$42
	.byte	$F8
	.byte	$F8
	.byte	$B2
	.byte	$41
	.byte	$F8
	.byte	$F0
	.byte	$A2
	.byte	$41
	.byte	$80
_animate_bearwalk1eft_data:
	.byte	$00
	.byte	$F0
	.byte	$D0
	.byte	$01
	.byte	$08
	.byte	$F0
	.byte	$D1
	.byte	$01
	.byte	$00
	.byte	$F8
	.byte	$E0
	.byte	$01
	.byte	$08
	.byte	$F8
	.byte	$E1
	.byte	$01
	.byte	$00
	.byte	$00
	.byte	$F0
	.byte	$01
	.byte	$08
	.byte	$00
	.byte	$F1
	.byte	$01
	.byte	$08
	.byte	$08
	.byte	$F3
	.byte	$01
	.byte	$00
	.byte	$08
	.byte	$F2
	.byte	$01
	.byte	$10
	.byte	$08
	.byte	$D3
	.byte	$01
	.byte	$03
	.byte	$F4
	.byte	$0B
	.byte	$02
	.byte	$80
_animate_bearwalk2left_data:
	.byte	$00
	.byte	$F0
	.byte	$B4
	.byte	$01
	.byte	$08
	.byte	$F0
	.byte	$B5
	.byte	$01
	.byte	$00
	.byte	$F8
	.byte	$C4
	.byte	$01
	.byte	$08
	.byte	$F8
	.byte	$C5
	.byte	$01
	.byte	$00
	.byte	$00
	.byte	$D2
	.byte	$01
	.byte	$08
	.byte	$00
	.byte	$D5
	.byte	$01
	.byte	$00
	.byte	$08
	.byte	$F4
	.byte	$01
	.byte	$08
	.byte	$08
	.byte	$F5
	.byte	$01
	.byte	$03
	.byte	$F2
	.byte	$0B
	.byte	$02
	.byte	$80
_animate_bearwalk3left_data:
	.byte	$00
	.byte	$F0
	.byte	$D0
	.byte	$01
	.byte	$08
	.byte	$F0
	.byte	$D1
	.byte	$01
	.byte	$00
	.byte	$F8
	.byte	$E0
	.byte	$01
	.byte	$08
	.byte	$F8
	.byte	$E1
	.byte	$01
	.byte	$00
	.byte	$00
	.byte	$E2
	.byte	$01
	.byte	$08
	.byte	$00
	.byte	$E3
	.byte	$01
	.byte	$00
	.byte	$08
	.byte	$F2
	.byte	$01
	.byte	$08
	.byte	$08
	.byte	$F3
	.byte	$01
	.byte	$03
	.byte	$F4
	.byte	$0B
	.byte	$02
	.byte	$10
	.byte	$08
	.byte	$D3
	.byte	$01
	.byte	$80
_animate_bearwalkright_data:
	.byte	$08
	.byte	$F0
	.byte	$D0
	.byte	$41
	.byte	$00
	.byte	$F0
	.byte	$D1
	.byte	$41
	.byte	$08
	.byte	$F8
	.byte	$E0
	.byte	$41
	.byte	$00
	.byte	$F8
	.byte	$E1
	.byte	$41
	.byte	$08
	.byte	$00
	.byte	$F0
	.byte	$41
	.byte	$00
	.byte	$00
	.byte	$F1
	.byte	$41
	.byte	$00
	.byte	$08
	.byte	$F3
	.byte	$41
	.byte	$08
	.byte	$08
	.byte	$F2
	.byte	$41
	.byte	$F8
	.byte	$08
	.byte	$D3
	.byte	$41
	.byte	$05
	.byte	$F4
	.byte	$0B
	.byte	$42
	.byte	$80
_animate_bearwalk2right_data:
	.byte	$08
	.byte	$F0
	.byte	$B4
	.byte	$41
	.byte	$00
	.byte	$F0
	.byte	$B5
	.byte	$41
	.byte	$08
	.byte	$F8
	.byte	$C4
	.byte	$41
	.byte	$00
	.byte	$F8
	.byte	$C5
	.byte	$41
	.byte	$08
	.byte	$00
	.byte	$D2
	.byte	$41
	.byte	$00
	.byte	$00
	.byte	$D5
	.byte	$41
	.byte	$08
	.byte	$08
	.byte	$F4
	.byte	$41
	.byte	$00
	.byte	$08
	.byte	$F5
	.byte	$41
	.byte	$05
	.byte	$F2
	.byte	$0B
	.byte	$42
	.byte	$80
_animate_bearwalk3right_data:
	.byte	$08
	.byte	$F0
	.byte	$D0
	.byte	$41
	.byte	$00
	.byte	$F0
	.byte	$D1
	.byte	$41
	.byte	$08
	.byte	$F8
	.byte	$E0
	.byte	$41
	.byte	$00
	.byte	$F8
	.byte	$E1
	.byte	$41
	.byte	$08
	.byte	$00
	.byte	$E2
	.byte	$41
	.byte	$00
	.byte	$00
	.byte	$E3
	.byte	$41
	.byte	$08
	.byte	$08
	.byte	$F2
	.byte	$41
	.byte	$00
	.byte	$08
	.byte	$F3
	.byte	$41
	.byte	$05
	.byte	$F4
	.byte	$0B
	.byte	$42
	.byte	$F8
	.byte	$08
	.byte	$D3
	.byte	$41
	.byte	$80
_animate_bouldersmall_data:
	.byte	$00
	.byte	$00
	.byte	$C2
	.byte	$01
	.byte	$80
_animate_fisleft_data:
	.byte	$00
	.byte	$01
	.byte	$B3
	.byte	$03
	.byte	$80
_animate_fishright_data:
	.byte	$00
	.byte	$01
	.byte	$B3
	.byte	$43
	.byte	$80
_animate_boulderbig_data:
	.byte	$00
	.byte	$00
	.byte	$60
	.byte	$03
	.byte	$08
	.byte	$00
	.byte	$61
	.byte	$03
	.byte	$00
	.byte	$08
	.byte	$70
	.byte	$03
	.byte	$08
	.byte	$08
	.byte	$71
	.byte	$03
	.byte	$80
_animate_boulderbig__1_data:
	.byte	$FE
	.byte	$FE
	.byte	$60
	.byte	$03
	.byte	$0A
	.byte	$FE
	.byte	$61
	.byte	$03
	.byte	$FF
	.byte	$07
	.byte	$70
	.byte	$03
	.byte	$09
	.byte	$07
	.byte	$71
	.byte	$03
	.byte	$80
_animate_boulderbig__1__1_data:
	.byte	$FC
	.byte	$FC
	.byte	$60
	.byte	$03
	.byte	$0C
	.byte	$FC
	.byte	$61
	.byte	$03
	.byte	$FE
	.byte	$06
	.byte	$70
	.byte	$03
	.byte	$0A
	.byte	$06
	.byte	$71
	.byte	$03
	.byte	$80
_animate_boulderbig__1__1__1_data:
	.byte	$FA
	.byte	$FA
	.byte	$60
	.byte	$03
	.byte	$0E
	.byte	$FA
	.byte	$61
	.byte	$03
	.byte	$FD
	.byte	$05
	.byte	$70
	.byte	$03
	.byte	$0B
	.byte	$05
	.byte	$71
	.byte	$03
	.byte	$80
_animate_boulderbig__1__1__1__1_data:
	.byte	$F8
	.byte	$F8
	.byte	$60
	.byte	$03
	.byte	$10
	.byte	$F8
	.byte	$61
	.byte	$03
	.byte	$FC
	.byte	$04
	.byte	$70
	.byte	$03
	.byte	$0C
	.byte	$04
	.byte	$71
	.byte	$03
	.byte	$80
_animate_boulderbig__1__1__1__1__1_data:
	.byte	$F6
	.byte	$F6
	.byte	$60
	.byte	$03
	.byte	$12
	.byte	$F6
	.byte	$61
	.byte	$03
	.byte	$FB
	.byte	$03
	.byte	$70
	.byte	$03
	.byte	$0D
	.byte	$03
	.byte	$71
	.byte	$03
	.byte	$80
_animate_boulderbig__1__1__1__1__1__1_data:
	.byte	$F4
	.byte	$F4
	.byte	$60
	.byte	$03
	.byte	$14
	.byte	$F4
	.byte	$61
	.byte	$03
	.byte	$FA
	.byte	$02
	.byte	$70
	.byte	$03
	.byte	$0E
	.byte	$02
	.byte	$71
	.byte	$03
	.byte	$80
_animate_boulderbig__1__1__1__1__1__1__1_data:
	.byte	$F2
	.byte	$F2
	.byte	$60
	.byte	$03
	.byte	$16
	.byte	$F2
	.byte	$61
	.byte	$03
	.byte	$F9
	.byte	$01
	.byte	$70
	.byte	$03
	.byte	$0F
	.byte	$01
	.byte	$71
	.byte	$03
	.byte	$80
_animate_boulderbig__1__1__1__1__1__1__1__1_data:
	.byte	$F0
	.byte	$F0
	.byte	$60
	.byte	$03
	.byte	$18
	.byte	$F0
	.byte	$61
	.byte	$03
	.byte	$F8
	.byte	$00
	.byte	$70
	.byte	$03
	.byte	$10
	.byte	$00
	.byte	$71
	.byte	$03
	.byte	$80
_animate_boulderbig__1__1__1__1__1__1__1__1__1_data:
	.byte	$EE
	.byte	$F0
	.byte	$60
	.byte	$03
	.byte	$1A
	.byte	$F0
	.byte	$61
	.byte	$03
	.byte	$F7
	.byte	$00
	.byte	$70
	.byte	$03
	.byte	$11
	.byte	$00
	.byte	$71
	.byte	$03
	.byte	$80
_animate_boulderbig__1__1__1__1__1__1__1__1__1__1_data:
	.byte	$EC
	.byte	$F2
	.byte	$60
	.byte	$03
	.byte	$1C
	.byte	$F2
	.byte	$61
	.byte	$03
	.byte	$F6
	.byte	$01
	.byte	$70
	.byte	$03
	.byte	$12
	.byte	$01
	.byte	$71
	.byte	$03
	.byte	$80
_animate_boulderbig__1__1__1__1__1__1__1__1__1__1__1_data:
	.byte	$EA
	.byte	$F4
	.byte	$60
	.byte	$03
	.byte	$1E
	.byte	$F4
	.byte	$61
	.byte	$03
	.byte	$F5
	.byte	$02
	.byte	$70
	.byte	$03
	.byte	$13
	.byte	$02
	.byte	$71
	.byte	$03
	.byte	$80
_animate_boulderbig__1__1__1__1__1__1__1__1__1__1__1__1_data:
	.byte	$E8
	.byte	$F6
	.byte	$60
	.byte	$03
	.byte	$20
	.byte	$F6
	.byte	$61
	.byte	$03
	.byte	$F4
	.byte	$03
	.byte	$70
	.byte	$03
	.byte	$14
	.byte	$03
	.byte	$71
	.byte	$03
	.byte	$80
_animate_boulderbig__1__1__1__1__1__1__1__1__1__1__1__1__1_data:
	.byte	$E6
	.byte	$F8
	.byte	$60
	.byte	$03
	.byte	$22
	.byte	$F8
	.byte	$61
	.byte	$03
	.byte	$F3
	.byte	$04
	.byte	$70
	.byte	$03
	.byte	$15
	.byte	$04
	.byte	$71
	.byte	$03
	.byte	$80
_animate_boulderbig__1__1__1__1__1__1__1__1__1__1__1__1__1__1_dat:
	.byte	$E4
	.byte	$FA
	.byte	$60
	.byte	$03
	.byte	$24
	.byte	$FA
	.byte	$61
	.byte	$03
	.byte	$F2
	.byte	$05
	.byte	$70
	.byte	$03
	.byte	$16
	.byte	$05
	.byte	$71
	.byte	$03
	.byte	$80
_shuffle_array:
	.byte	$00
	.byte	$01
	.byte	$02
	.byte	$03
	.byte	$04
	.byte	$05
	.byte	$06
	.byte	$07
	.byte	$08
	.byte	$09
	.byte	$0A
	.byte	$0B
	.byte	$0C
	.byte	$0D
	.byte	$0E
	.byte	$0F
	.byte	$0F
	.byte	$0E
	.byte	$0D
	.byte	$0C
	.byte	$0B
	.byte	$0A
	.byte	$09
	.byte	$08
	.byte	$07
	.byte	$06
	.byte	$05
	.byte	$04
	.byte	$03
	.byte	$02
	.byte	$01
	.byte	$00
	.byte	$00
	.byte	$02
	.byte	$04
	.byte	$06
	.byte	$08
	.byte	$0A
	.byte	$0C
	.byte	$0E
	.byte	$01
	.byte	$03
	.byte	$05
	.byte	$07
	.byte	$09
	.byte	$0B
	.byte	$0D
	.byte	$0F
	.byte	$0F
	.byte	$0D
	.byte	$0B
	.byte	$09
	.byte	$07
	.byte	$05
	.byte	$03
	.byte	$01
	.byte	$0E
	.byte	$0C
	.byte	$0A
	.byte	$08
	.byte	$06
	.byte	$04
	.byte	$02
	.byte	$00
_palette_sp:
	.byte	$21
	.byte	$17
	.byte	$24
	.byte	$36
	.byte	$21
	.byte	$06
	.byte	$28
	.byte	$37
	.byte	$21
	.byte	$0F
	.byte	$11
	.byte	$30
	.byte	$21
	.byte	$17
	.byte	$3D
	.byte	$38
_palette_bg:
	.byte	$21
	.byte	$0F
	.byte	$00
	.byte	$10
	.byte	$21
	.byte	$30
	.byte	$29
	.byte	$06
	.byte	$21
	.byte	$0F
	.byte	$16
	.byte	$06
	.byte	$21
	.byte	$0F
	.byte	$19
	.byte	$29
_metatile:
	.byte	$7B
	.byte	$7C
	.byte	$8B
	.byte	$8C
	.byte	$00
	.byte	$7D
	.byte	$7E
	.byte	$8D
	.byte	$8E
	.byte	$00
	.byte	$9B
	.byte	$9C
	.byte	$AB
	.byte	$AC
	.byte	$00
	.byte	$9D
	.byte	$9E
	.byte	$AD
	.byte	$AE
	.byte	$00
	.byte	$BE
	.byte	$AF
	.byte	$7B
	.byte	$7C
	.byte	$00
	.byte	$BE
	.byte	$BE
	.byte	$8B
	.byte	$8C
	.byte	$00
	.byte	$BE
	.byte	$BF
	.byte	$8D
	.byte	$8E
	.byte	$00
	.byte	$BE
	.byte	$BE
	.byte	$AD
	.byte	$AE
	.byte	$00
	.byte	$BE
	.byte	$B9
	.byte	$9B
	.byte	$9C
	.byte	$00
	.byte	$BE
	.byte	$BE
	.byte	$9D
	.byte	$9E
	.byte	$00
	.byte	$BE
	.byte	$BB
	.byte	$AB
	.byte	$AC
	.byte	$00
	.byte	$BE
	.byte	$AF
	.byte	$AD
	.byte	$AE
	.byte	$00
	.byte	$BE
	.byte	$BD
	.byte	$7B
	.byte	$7C
	.byte	$00
	.byte	$BE
	.byte	$BD
	.byte	$7D
	.byte	$7E
	.byte	$00
	.byte	$BA
	.byte	$BF
	.byte	$9B
	.byte	$9C
	.byte	$00
	.byte	$BA
	.byte	$B8
	.byte	$9D
	.byte	$9E
	.byte	$00
	.byte	$7B
	.byte	$AE
	.byte	$7C
	.byte	$7B
	.byte	$00
	.byte	$8B
	.byte	$8C
	.byte	$9B
	.byte	$9C
	.byte	$00
	.byte	$8D
	.byte	$8E
	.byte	$9D
	.byte	$9E
	.byte	$00
	.byte	$7B
	.byte	$7C
	.byte	$8B
	.byte	$01
	.byte	$00
	.byte	$AD
	.byte	$8E
	.byte	$AE
	.byte	$01
	.byte	$00
	.byte	$AD
	.byte	$01
	.byte	$01
	.byte	$01
	.byte	$00
	.byte	$7D
	.byte	$7E
	.byte	$01
	.byte	$01
	.byte	$00
	.byte	$9D
	.byte	$9E
	.byte	$01
	.byte	$01
	.byte	$00
	.byte	$AB
	.byte	$AC
	.byte	$01
	.byte	$01
	.byte	$00
	.byte	$01
	.byte	$7B
	.byte	$01
	.byte	$01
	.byte	$00
	.byte	$7B
	.byte	$AD
	.byte	$01
	.byte	$AE
	.byte	$00
	.byte	$7B
	.byte	$7C
	.byte	$01
	.byte	$7B
	.byte	$00
	.byte	$7A
	.byte	$7C
	.byte	$8B
	.byte	$8C
	.byte	$00
	.byte	$00
	.byte	$00
	.byte	$00
	.byte	$7A
	.byte	$00
	.byte	$7B
	.byte	$6A
	.byte	$7C
	.byte	$7B
	.byte	$00
	.byte	$00
	.byte	$00
	.byte	$6A
	.byte	$00
	.byte	$00
	.byte	$75
	.byte	$76
	.byte	$85
	.byte	$86
	.byte	$02
	.byte	$65
	.byte	$66
	.byte	$85
	.byte	$86
	.byte	$02
	.byte	$75
	.byte	$76
	.byte	$95
	.byte	$96
	.byte	$02
	.byte	$74
	.byte	$76
	.byte	$84
	.byte	$86
	.byte	$02
	.byte	$75
	.byte	$77
	.byte	$85
	.byte	$87
	.byte	$02
	.byte	$64
	.byte	$66
	.byte	$84
	.byte	$86
	.byte	$02
	.byte	$65
	.byte	$67
	.byte	$85
	.byte	$87
	.byte	$02
	.byte	$74
	.byte	$76
	.byte	$94
	.byte	$96
	.byte	$02
	.byte	$75
	.byte	$77
	.byte	$95
	.byte	$97
	.byte	$02
	.byte	$BB
	.byte	$CD
	.byte	$CB
	.byte	$CB
	.byte	$02
	.byte	$CD
	.byte	$BC
	.byte	$DD
	.byte	$DC
	.byte	$02
	.byte	$CC
	.byte	$CD
	.byte	$DC
	.byte	$CB
	.byte	$02
	.byte	$CD
	.byte	$AF
	.byte	$DC
	.byte	$CB
	.byte	$02
	.byte	$CC
	.byte	$CF
	.byte	$CB
	.byte	$DF
	.byte	$02
	.byte	$CE
	.byte	$CD
	.byte	$DE
	.byte	$DC
	.byte	$02
	.byte	$CE
	.byte	$CD
	.byte	$DE
	.byte	$CB
	.byte	$02
	.byte	$65
	.byte	$66
	.byte	$95
	.byte	$96
	.byte	$02
	.byte	$64
	.byte	$66
	.byte	$94
	.byte	$96
	.byte	$02
	.byte	$65
	.byte	$67
	.byte	$95
	.byte	$97
	.byte	$02
	.byte	$EB
	.byte	$EB
	.byte	$FB
	.byte	$FC
	.byte	$03
	.byte	$EB
	.byte	$EA
	.byte	$FC
	.byte	$FB
	.byte	$03
	.byte	$FA
	.byte	$EB
	.byte	$FC
	.byte	$FC
	.byte	$03
	.byte	$EB
	.byte	$EC
	.byte	$FB
	.byte	$FC
	.byte	$03
	.byte	$98
	.byte	$99
	.byte	$A8
	.byte	$A9
	.byte	$03
	.byte	$9A
	.byte	$98
	.byte	$AA
	.byte	$A8
	.byte	$03
	.byte	$01
	.byte	$01
	.byte	$9A
	.byte	$98
	.byte	$03
	.byte	$7B
	.byte	$8B
	.byte	$AD
	.byte	$9B
	.byte	$00
	.byte	$8E
	.byte	$7B
	.byte	$9C
	.byte	$AE
	.byte	$00
	.byte	$8B
	.byte	$7C
	.byte	$9B
	.byte	$AD
	.byte	$00
	.byte	$0A
	.byte	$0B
	.byte	$0A
	.byte	$0B
	.byte	$02
	.byte	$0A
	.byte	$0B
	.byte	$0A
	.byte	$0B
	.byte	$02
	.byte	$CA
	.byte	$CA
	.byte	$DA
	.byte	$DA
	.byte	$00
	.byte	$38
	.byte	$36
	.byte	$36
	.byte	$36
	.byte	$02
	.byte	$37
	.byte	$36
	.byte	$36
	.byte	$36
	.byte	$02
	.byte	$37
	.byte	$39
	.byte	$36
	.byte	$37
	.byte	$02
	.byte	$32
	.byte	$30
	.byte	$32
	.byte	$30
	.byte	$02
	.byte	$31
	.byte	$30
	.byte	$31
	.byte	$30
	.byte	$02
	.byte	$31
	.byte	$31
	.byte	$31
	.byte	$31
	.byte	$02
	.byte	$32
	.byte	$30
	.byte	$34
	.byte	$31
	.byte	$02
	.byte	$30
	.byte	$33
	.byte	$30
	.byte	$35
	.byte	$02
	.byte	$01
	.byte	$01
	.byte	$1F
	.byte	$02
	.byte	$02
	.byte	$30
	.byte	$33
	.byte	$30
	.byte	$33
	.byte	$02
	.byte	$02
	.byte	$0D
	.byte	$0E
	.byte	$02
	.byte	$03
	.byte	$01
	.byte	$01
	.byte	$02
	.byte	$02
	.byte	$03
	.byte	$1F
	.byte	$02
	.byte	$02
	.byte	$2F
	.byte	$03
	.byte	$1B
	.byte	$0C
	.byte	$02
	.byte	$01
	.byte	$03
	.byte	$05
	.byte	$01
	.byte	$04
	.byte	$01
	.byte	$02
	.byte	$0F
	.byte	$3F
	.byte	$01
	.byte	$02
	.byte	$03
	.byte	$00
	.byte	$00
	.byte	$00
	.byte	$00
	.byte	$00
	.byte	$01
	.byte	$01
	.byte	$01
	.byte	$01
	.byte	$00
	.byte	$01
	.byte	$01
	.byte	$2A
	.byte	$01
	.byte	$03
	.byte	$1A
	.byte	$01
	.byte	$01
	.byte	$2A
	.byte	$03
	.byte	$01
	.byte	$01
	.byte	$01
	.byte	$1A
	.byte	$03
	.byte	$F2
	.byte	$F2
	.byte	$01
	.byte	$01
	.byte	$02
	.byte	$01
	.byte	$F3
	.byte	$01
	.byte	$01
	.byte	$02
	.byte	$D4
	.byte	$01
	.byte	$01
	.byte	$01
	.byte	$02
	.byte	$00
	.byte	$00
	.byte	$80
	.byte	$81
	.byte	$03
	.byte	$00
	.byte	$00
	.byte	$82
	.byte	$82
	.byte	$03
	.byte	$01
	.byte	$2A
	.byte	$02
	.byte	$02
	.byte	$03
	.byte	$1A
	.byte	$01
	.byte	$02
	.byte	$02
	.byte	$03
	.byte	$03
	.byte	$AA
	.byte	$03
	.byte	$E8
	.byte	$03
	.byte	$A8
	.byte	$A9
	.byte	$68
	.byte	$FC
	.byte	$03
	.byte	$8A
	.byte	$03
	.byte	$F8
	.byte	$03
	.byte	$03
	.byte	$03
	.byte	$03
	.byte	$E9
	.byte	$03
	.byte	$03
	.byte	$08
	.byte	$19
	.byte	$09
	.byte	$18
	.byte	$02
	.byte	$08
	.byte	$19
	.byte	$08
	.byte	$18
	.byte	$02
	.byte	$B1
	.byte	$B2
	.byte	$08
	.byte	$18
	.byte	$02
	.byte	$D4
	.byte	$B0
	.byte	$F3
	.byte	$C0
	.byte	$02
	.byte	$08
	.byte	$19
	.byte	$C1
	.byte	$C2
	.byte	$02
	.byte	$B3
	.byte	$F3
	.byte	$C3
	.byte	$D4
	.byte	$02
	.byte	$00
	.byte	$00
	.byte	$00
	.byte	$F0
	.byte	$02
	.byte	$F1
	.byte	$00
	.byte	$00
	.byte	$00
	.byte	$02
	.byte	$14
	.byte	$04
	.byte	$15
	.byte	$04
	.byte	$02
	.byte	$15
	.byte	$04
	.byte	$15
	.byte	$05
	.byte	$02
	.byte	$E5
	.byte	$E6
	.byte	$14
	.byte	$04
	.byte	$02
	.byte	$D4
	.byte	$E4
	.byte	$F3
	.byte	$F4
	.byte	$02
	.byte	$14
	.byte	$04
	.byte	$F5
	.byte	$F6
	.byte	$02
	.byte	$E7
	.byte	$F3
	.byte	$F7
	.byte	$D4
	.byte	$02
	.byte	$00
	.byte	$E2
	.byte	$00
	.byte	$00
	.byte	$02
	.byte	$E3
	.byte	$00
	.byte	$00
	.byte	$00
	.byte	$02
	.byte	$06
	.byte	$17
	.byte	$06
	.byte	$17
	.byte	$02
	.byte	$07
	.byte	$16
	.byte	$07
	.byte	$17
	.byte	$02
	.byte	$06
	.byte	$17
	.byte	$07
	.byte	$17
	.byte	$02
	.byte	$E0
	.byte	$E1
	.byte	$06
	.byte	$16
	.byte	$02
	.byte	$D4
	.byte	$D0
	.byte	$F2
	.byte	$F2
	.byte	$02
	.byte	$D1
	.byte	$F3
	.byte	$F2
	.byte	$F2
	.byte	$02
	.byte	$00
	.byte	$00
	.byte	$00
	.byte	$D2
	.byte	$02
	.byte	$00
	.byte	$00
	.byte	$D3
	.byte	$00
	.byte	$02
	.byte	$03
	.byte	$03
	.byte	$AA
	.byte	$AA
	.byte	$03
	.byte	$04
	.byte	$E3
	.byte	$04
	.byte	$00
	.byte	$02
	.byte	$A9
	.byte	$A9
	.byte	$78
	.byte	$69
	.byte	$03
	.byte	$00
	.byte	$00
	.byte	$89
	.byte	$00
	.byte	$03
	.byte	$8A
	.byte	$00
	.byte	$8A
	.byte	$00
	.byte	$03
	.byte	$8A
	.byte	$00
	.byte	$79
	.byte	$00
	.byte	$03
	.byte	$03
	.byte	$03
	.byte	$03
	.byte	$F9
	.byte	$03
	.byte	$F9
	.byte	$E9
	.byte	$AA
	.byte	$AA
	.byte	$03
	.byte	$90
	.byte	$90
	.byte	$00
	.byte	$00
	.byte	$02
	.byte	$91
	.byte	$92
	.byte	$00
	.byte	$00
	.byte	$02
	.byte	$01
	.byte	$01
	.byte	$92
	.byte	$92
	.byte	$02
	.byte	$92
	.byte	$90
	.byte	$00
	.byte	$00
	.byte	$02
	.byte	$01
	.byte	$01
	.byte	$92
	.byte	$90
	.byte	$02
	.byte	$68
	.byte	$A8
	.byte	$01
	.byte	$69
	.byte	$03
	.byte	$68
	.byte	$69
	.byte	$EE
	.byte	$ED
	.byte	$03
	.byte	$68
	.byte	$68
	.byte	$EF
	.byte	$EE
	.byte	$03
	.byte	$69
	.byte	$68
	.byte	$EE
	.byte	$ED
	.byte	$03
	.byte	$68
	.byte	$EF
	.byte	$EF
	.byte	$FF
	.byte	$03
	.byte	$69
	.byte	$ED
	.byte	$EE
	.byte	$EE
	.byte	$03
	.byte	$A9
	.byte	$68
	.byte	$68
	.byte	$01
	.byte	$03
	.byte	$AA
	.byte	$A8
	.byte	$68
	.byte	$69
	.byte	$03
	.byte	$AA
	.byte	$A8
	.byte	$68
	.byte	$68
	.byte	$03
	.byte	$A9
	.byte	$8A
	.byte	$AA
	.byte	$8A
	.byte	$03
	.byte	$A8
	.byte	$8A
	.byte	$AA
	.byte	$8A
	.byte	$03
	.byte	$A8
	.byte	$A9
	.byte	$A9
	.byte	$AA
	.byte	$03
	.byte	$AA
	.byte	$A9
	.byte	$A8
	.byte	$A8
	.byte	$03
	.byte	$A9
	.byte	$AA
	.byte	$AA
	.byte	$A9
	.byte	$03
	.byte	$A8
	.byte	$A8
	.byte	$A9
	.byte	$A8
	.byte	$03
	.byte	$A9
	.byte	$A9
	.byte	$AA
	.byte	$A9
	.byte	$03
	.byte	$00
	.byte	$7A
	.byte	$88
	.byte	$AA
	.byte	$03
	.byte	$00
	.byte	$88
	.byte	$88
	.byte	$AA
	.byte	$03
	.byte	$6A
	.byte	$00
	.byte	$AA
	.byte	$6A
	.byte	$03
	.byte	$89
	.byte	$00
	.byte	$A8
	.byte	$89
	.byte	$03
	.byte	$A9
	.byte	$6A
	.byte	$AA
	.byte	$AA
	.byte	$03
	.byte	$01
	.byte	$FF
	.byte	$FF
	.byte	$00
	.byte	$03
	.byte	$FF
	.byte	$01
	.byte	$00
	.byte	$FE
	.byte	$03
	.byte	$EF
	.byte	$EF
	.byte	$FE
	.byte	$FD
	.byte	$03
	.byte	$ED
	.byte	$EE
	.byte	$FE
	.byte	$FF
	.byte	$03
	.byte	$FD
	.byte	$FE
	.byte	$00
	.byte	$00
	.byte	$03
	.byte	$A9
	.byte	$79
	.byte	$FF
	.byte	$00
	.byte	$03
	.byte	$05
	.byte	$03
	.byte	$05
	.byte	$03
	.byte	$03
	.byte	$3F
	.byte	$03
	.byte	$05
	.byte	$03
	.byte	$03
	.byte	$05
	.byte	$03
	.byte	$2F
	.byte	$03
	.byte	$03
	.byte	$01
	.byte	$1F
	.byte	$1F
	.byte	$02
	.byte	$03
	.byte	$0F
	.byte	$02
	.byte	$01
	.byte	$0F
	.byte	$03
	.byte	$02
	.byte	$2F
	.byte	$11
	.byte	$11
	.byte	$03
	.byte	$03
	.byte	$03
	.byte	$11
	.byte	$11
	.byte	$03
	.byte	$03
	.byte	$61
	.byte	$60
	.byte	$03
	.byte	$03
	.byte	$03
	.byte	$62
	.byte	$03
	.byte	$03
	.byte	$03
	.byte	$03
	.byte	$03
	.byte	$61
	.byte	$03
	.byte	$03
	.byte	$60
	.byte	$03
	.byte	$03
	.byte	$03
	.byte	$03
	.byte	$03
	.byte	$03
	.byte	$72
	.byte	$03
	.byte	$03
	.byte	$00
	.byte	$00
	.byte	$00
	.byte	$71
	.byte	$03
	.byte	$00
	.byte	$00
	.byte	$00
	.byte	$70
	.byte	$03
	.byte	$00
	.byte	$00
	.byte	$63
	.byte	$00
	.byte	$03
	.byte	$FF
	.byte	$FD
	.byte	$00
	.byte	$00
	.byte	$03
	.byte	$03
	.byte	$03
	.byte	$03
	.byte	$03
	.byte	$03
	.byte	$20
	.byte	$20
	.byte	$02
	.byte	$02
	.byte	$01
	.byte	$00
	.byte	$00
	.byte	$00
	.byte	$05
	.byte	$02
	.byte	$3F
	.byte	$03
	.byte	$02
	.byte	$3F
	.byte	$03
	.byte	$01
	.byte	$01
	.byte	$0D
	.byte	$01
	.byte	$03
	.byte	$03
	.byte	$0E
	.byte	$03
	.byte	$03
	.byte	$03
	.byte	$00
	.byte	$00
	.byte	$00
	.byte	$00
	.byte	$00
	.byte	$0E
	.byte	$02
	.byte	$03
	.byte	$0E
	.byte	$01
	.byte	$3F
	.byte	$03
	.byte	$02
	.byte	$3F
	.byte	$01
	.byte	$03
	.byte	$03
	.byte	$03
	.byte	$03
	.byte	$02
	.byte	$03
	.byte	$62
	.byte	$60
	.byte	$03
	.byte	$02
	.byte	$61
	.byte	$03
	.byte	$03
	.byte	$03
	.byte	$02
	.byte	$03
	.byte	$03
	.byte	$60
	.byte	$03
	.byte	$02
	.byte	$03
	.byte	$03
	.byte	$03
	.byte	$72
	.byte	$01
	.byte	$61
	.byte	$03
	.byte	$03
	.byte	$62
	.byte	$01
	.byte	$03
	.byte	$60
	.byte	$03
	.byte	$03
	.byte	$01
	.byte	$B5
	.byte	$B6
	.byte	$C5
	.byte	$C6
	.byte	$02
	.byte	$01
	.byte	$B4
	.byte	$01
	.byte	$C4
	.byte	$02
	.byte	$B7
	.byte	$01
	.byte	$C7
	.byte	$01
	.byte	$02
	.byte	$01
	.byte	$01
	.byte	$A5
	.byte	$A6
	.byte	$02
	.byte	$D5
	.byte	$D6
	.byte	$01
	.byte	$01
	.byte	$02
	.byte	$00
	.byte	$00
	.byte	$6B
	.byte	$6B
	.byte	$00
	.byte	$00
	.byte	$00
	.byte	$00
	.byte	$00
	.byte	$00
	.byte	$10
	.byte	$10
	.byte	$01
	.byte	$01
	.byte	$00
	.byte	$01
	.byte	$9F
	.byte	$01
	.byte	$01
	.byte	$00
	.byte	$C8
	.byte	$C9
	.byte	$D8
	.byte	$D9
	.byte	$02
	.byte	$01
	.byte	$01
	.byte	$D9
	.byte	$01
	.byte	$02
	.byte	$01
	.byte	$C8
	.byte	$01
	.byte	$01
	.byte	$02
	.byte	$01
	.byte	$C9
	.byte	$01
	.byte	$D9
	.byte	$02
	.byte	$D8
	.byte	$01
	.byte	$01
	.byte	$01
	.byte	$02
	.byte	$D8
	.byte	$01
	.byte	$01
	.byte	$C9
	.byte	$02
	.byte	$01
	.byte	$D8
	.byte	$C9
	.byte	$01
	.byte	$02
	.byte	$00
	.byte	$5E
	.byte	$6C
	.byte	$03
	.byte	$00
	.byte	$00
	.byte	$00
	.byte	$6B
	.byte	$6C
	.byte	$00
	.byte	$6B
	.byte	$5E
	.byte	$03
	.byte	$6D
	.byte	$00
	.byte	$6B
	.byte	$5E
	.byte	$6D
	.byte	$5D
	.byte	$00
	.byte	$6D
	.byte	$03
	.byte	$03
	.byte	$6D
	.byte	$00
	.byte	$6D
	.byte	$6D
	.byte	$03
	.byte	$03
	.byte	$00
	.byte	$6D
	.byte	$03
	.byte	$03
	.byte	$03
	.byte	$00
	.byte	$6D
	.byte	$20
	.byte	$6D
	.byte	$20
	.byte	$00
	.byte	$20
	.byte	$6E
	.byte	$6F
	.byte	$20
	.byte	$00
	.byte	$6D
	.byte	$14
	.byte	$03
	.byte	$6F
	.byte	$00
	.byte	$20
	.byte	$6E
	.byte	$20
	.byte	$20
	.byte	$00
	.byte	$6E
	.byte	$6E
	.byte	$20
	.byte	$6E
	.byte	$00
	.byte	$00
	.byte	$00
	.byte	$1E
	.byte	$1E
	.byte	$01
	.byte	$00
	.byte	$00
	.byte	$00
	.byte	$1C
	.byte	$01
	.byte	$00
	.byte	$00
	.byte	$1D
	.byte	$00
	.byte	$01
	.byte	$6D
	.byte	$6D
	.byte	$A3
	.byte	$A7
	.byte	$00
	.byte	$5D
	.byte	$5B
	.byte	$20
	.byte	$9F
	.byte	$00
	.byte	$5C
	.byte	$80
	.byte	$9F
	.byte	$01
	.byte	$00
	.byte	$00
	.byte	$00
	.byte	$5B
	.byte	$5C
	.byte	$00
	.byte	$5F
	.byte	$00
	.byte	$9F
	.byte	$5F
	.byte	$00
	.byte	$5B
	.byte	$5C
	.byte	$9F
	.byte	$01
	.byte	$00
	.byte	$6B
	.byte	$6C
	.byte	$01
	.byte	$A3
	.byte	$00
	.byte	$6D
	.byte	$03
	.byte	$A4
	.byte	$03
	.byte	$00
	.byte	$A3
	.byte	$A7
	.byte	$9F
	.byte	$9F
	.byte	$00
	.byte	$03
	.byte	$6D
	.byte	$A7
	.byte	$03
	.byte	$00
	.byte	$9F
	.byte	$9F
	.byte	$9F
	.byte	$9F
	.byte	$00
	.byte	$01
	.byte	$01
	.byte	$9F
	.byte	$9F
	.byte	$00
	.byte	$9F
	.byte	$01
	.byte	$9F
	.byte	$9F
	.byte	$00
	.byte	$6E
	.byte	$9F
	.byte	$6E
	.byte	$8F
	.byte	$00
	.byte	$8F
	.byte	$7F
	.byte	$6E
	.byte	$6E
	.byte	$00
	.byte	$9F
	.byte	$9F
	.byte	$8F
	.byte	$7F
	.byte	$00
	.byte	$7F
	.byte	$9F
	.byte	$6E
	.byte	$8F
	.byte	$00
_metatile_colision_map:
	.byte	$40
	.byte	$40
	.byte	$40
	.byte	$40
	.byte	$40
	.byte	$40
	.byte	$40
	.byte	$40
	.byte	$40
	.byte	$40
	.byte	$40
	.byte	$40
	.byte	$40
	.byte	$40
	.byte	$40
	.byte	$40
	.byte	$40
	.byte	$40
	.byte	$40
	.byte	$40
	.byte	$40
	.byte	$40
	.byte	$40
	.byte	$40
	.byte	$40
	.byte	$40
	.byte	$40
	.byte	$40
	.byte	$40
	.byte	$40
	.byte	$40
	.byte	$40
	.byte	$40
	.byte	$40
	.byte	$40
	.byte	$40
	.byte	$40
	.byte	$40
	.byte	$40
	.byte	$40
	.byte	$40
	.byte	$40
	.byte	$40
	.byte	$40
	.byte	$40
	.byte	$40
	.byte	$40
	.byte	$40
	.byte	$40
	.byte	$40
	.byte	$40
	.byte	$40
	.byte	$40
	.byte	$40
	.byte	$40
	.byte	$40
	.byte	$40
	.byte	$40
	.byte	$40
	.byte	$40
	.byte	$40
	.byte	$01
	.byte	$02
	.byte	$00
	.byte	$00
	.byte	$00
	.byte	$00
	.byte	$00
	.byte	$00
	.byte	$00
	.byte	$00
	.byte	$00
	.byte	$00
	.byte	$00
	.byte	$00
	.byte	$00
	.byte	$00
	.byte	$00
	.byte	$00
	.byte	$00
	.byte	$00
	.byte	$00
	.byte	$00
	.byte	$00
	.byte	$00
	.byte	$00
	.byte	$00
	.byte	$00
	.byte	$00
	.byte	$00
	.byte	$00
	.byte	$00
	.byte	$00
	.byte	$00
	.byte	$00
	.byte	$00
	.byte	$00
	.byte	$00
	.byte	$00
	.byte	$00
	.byte	$00
	.byte	$00
	.byte	$00
	.byte	$00
	.byte	$00
	.byte	$00
	.byte	$00
	.byte	$00
	.byte	$00
	.byte	$00
	.byte	$00
	.byte	$00
	.byte	$00
	.byte	$00
	.byte	$00
	.byte	$00
	.byte	$00
	.byte	$00
	.byte	$00
	.byte	$00
	.byte	$00
	.byte	$00
	.byte	$00
	.byte	$00
	.byte	$00
	.byte	$00
	.byte	$00
	.byte	$00
	.byte	$00
	.byte	$00
	.byte	$00
	.byte	$00
	.byte	$00
	.byte	$00
	.byte	$00
	.byte	$00
	.byte	$00
	.byte	$00
	.byte	$00
	.byte	$00
	.byte	$00
	.byte	$00
	.byte	$00
	.byte	$00
	.byte	$00
	.byte	$00
	.byte	$00
	.byte	$00
	.byte	$00
	.byte	$00
	.byte	$00
	.byte	$00
	.byte	$00
	.byte	$00
	.byte	$00
	.byte	$00
	.byte	$00
	.byte	$00
	.byte	$00
	.byte	$00
	.byte	$00
	.byte	$00
	.byte	$00
	.byte	$00
	.byte	$00
	.byte	$00
	.byte	$00
	.byte	$00
	.byte	$00
	.byte	$00
	.byte	$00
	.byte	$00
	.byte	$00
	.byte	$00
	.byte	$00
	.byte	$00
	.byte	$00
	.byte	$00
	.byte	$00
	.byte	$00
	.byte	$00
	.byte	$00
	.byte	$00
	.byte	$00
	.byte	$00
	.byte	$00
	.byte	$00
	.byte	$00
	.byte	$00
	.byte	$00
	.byte	$00
	.byte	$00
	.byte	$00
	.byte	$00
	.byte	$00
	.byte	$00
	.byte	$00
	.byte	$00
	.byte	$00
	.byte	$00
	.byte	$00
	.byte	$00
	.byte	$00
	.byte	$00
	.byte	$00
	.byte	$00
	.byte	$00
	.byte	$00
	.byte	$00
	.byte	$00
	.byte	$00
	.byte	$00
	.byte	$00
	.byte	$00
	.byte	$00
	.byte	$00
	.byte	$00
	.byte	$00
	.byte	$00
	.byte	$00
	.byte	$00
	.byte	$00
	.byte	$00
	.byte	$00
	.byte	$00
	.byte	$00
	.byte	$00
	.byte	$00
	.byte	$00
	.byte	$00
	.byte	$00
	.byte	$00
	.byte	$00
	.byte	$00
	.byte	$00
	.byte	$00
	.byte	$00
	.byte	$00
	.byte	$00
	.byte	$00
_level0_0:
	.byte	$3C
	.byte	$1E
	.byte	$1F
	.byte	$50
	.byte	$95
	.byte	$94
	.byte	$91
	.byte	$8E
	.byte	$93
	.byte	$92
	.byte	$8E
	.byte	$92
	.byte	$92
	.byte	$94
	.byte	$92
	.byte	$91
	.byte	$00
	.byte	$01
	.byte	$1E
	.byte	$1F
	.byte	$92
	.byte	$94
	.byte	$91
	.byte	$90
	.byte	$8F
	.byte	$91
	.byte	$92
	.byte	$8E
	.byte	$92
	.byte	$91
	.byte	$92
	.byte	$92
	.byte	$02
	.byte	$03
	.byte	$00
	.byte	$1E
	.byte	$92
	.byte	$90
	.byte	$91
	.byte	$94
	.byte	$8F
	.byte	$91
	.byte	$90
	.byte	$8E
	.byte	$92
	.byte	$91
	.byte	$94
	.byte	$92
	.byte	$00
	.byte	$01
	.byte	$02
	.byte	$02
	.byte	$90
	.byte	$92
	.byte	$90
	.byte	$92
	.byte	$8E
	.byte	$90
	.byte	$91
	.byte	$8F
	.byte	$94
	.byte	$91
	.byte	$90
	.byte	$94
	.byte	$02
	.byte	$03
	.byte	$15
	.byte	$1B
	.byte	$92
	.byte	$92
	.byte	$90
	.byte	$90
	.byte	$8E
	.byte	$92
	.byte	$93
	.byte	$8F
	.byte	$92
	.byte	$91
	.byte	$93
	.byte	$90
	.byte	$00
	.byte	$15
	.byte	$51
	.byte	$51
	.byte	$85
	.byte	$92
	.byte	$90
	.byte	$91
	.byte	$8B
	.byte	$88
	.byte	$8C
	.byte	$8E
	.byte	$87
	.byte	$85
	.byte	$87
	.byte	$8B
	.byte	$02
	.byte	$51
	.byte	$51
	.byte	$51
	.byte	$9B
	.byte	$8C
	.byte	$8B
	.byte	$88
	.byte	$9C
	.byte	$73
	.byte	$9A
	.byte	$8B
	.byte	$6A
	.byte	$9A
	.byte	$83
	.byte	$9C
	.byte	$10
	.byte	$51
	.byte	$51
	.byte	$51
	.byte	$50
	.byte	$AF
	.byte	$62
	.byte	$AF
	.byte	$76
	.byte	$71
	.byte	$77
	.byte	$AF
	.byte	$69
	.byte	$DD
	.byte	$DC
	.byte	$DE
	.byte	$12
	.byte	$51
	.byte	$51
	.byte	$51
	.byte	$50
	.byte	$50
	.byte	$60
	.byte	$67
	.byte	$50
	.byte	$71
	.byte	$50
	.byte	$50
	.byte	$69
	.byte	$6F
	.byte	$50
	.byte	$50
	.byte	$01
	.byte	$51
	.byte	$51
	.byte	$51
	.byte	$58
	.byte	$59
	.byte	$61
	.byte	$58
	.byte	$59
	.byte	$72
	.byte	$58
	.byte	$59
	.byte	$68
	.byte	$58
	.byte	$59
	.byte	$58
	.byte	$03
	.byte	$51
	.byte	$51
	.byte	$51
	.byte	$51
	.byte	$63
	.byte	$64
	.byte	$65
	.byte	$74
	.byte	$55
	.byte	$75
	.byte	$51
	.byte	$69
	.byte	$52
	.byte	$51
	.byte	$74
	.byte	$00
	.byte	$0F
	.byte	$04
	.byte	$0C
	.byte	$54
	.byte	$51
	.byte	$55
	.byte	$54
	.byte	$56
	.byte	$55
	.byte	$51
	.byte	$6B
	.byte	$6C
	.byte	$6D
	.byte	$53
	.byte	$51
	.byte	$02
	.byte	$3A
	.byte	$3B
	.byte	$00
	.byte	$0F
	.byte	$06
	.byte	$08
	.byte	$0C
	.byte	$54
	.byte	$51
	.byte	$51
	.byte	$54
	.byte	$51
	.byte	$51
	.byte	$51
	.byte	$51
	.byte	$00
	.byte	$3C
	.byte	$10
	.byte	$02
	.byte	$00
	.byte	$03
	.byte	$00
	.byte	$01
	.byte	$0E
	.byte	$07
	.byte	$05
	.byte	$06
	.byte	$07
	.byte	$08
	.byte	$09
	.byte	$0A
	.byte	$37
	.byte	$37
	.byte	$37
	.byte	$38
	.byte	$38
	.byte	$37
	.byte	$37
	.byte	$38
	.byte	$38
	.byte	$37
	.byte	$38
	.byte	$38
	.byte	$37
	.byte	$37
	.byte	$38
	.byte	$37
_level0_1:
	.byte	$92
	.byte	$8F
	.byte	$92
	.byte	$90
	.byte	$92
	.byte	$92
	.byte	$92
	.byte	$8E
	.byte	$92
	.byte	$92
	.byte	$92
	.byte	$92
	.byte	$99
	.byte	$7B
	.byte	$50
	.byte	$50
	.byte	$94
	.byte	$8F
	.byte	$94
	.byte	$92
	.byte	$94
	.byte	$94
	.byte	$93
	.byte	$92
	.byte	$8E
	.byte	$92
	.byte	$90
	.byte	$90
	.byte	$92
	.byte	$7C
	.byte	$50
	.byte	$50
	.byte	$90
	.byte	$8F
	.byte	$94
	.byte	$92
	.byte	$93
	.byte	$90
	.byte	$94
	.byte	$92
	.byte	$8E
	.byte	$92
	.byte	$90
	.byte	$90
	.byte	$92
	.byte	$7C
	.byte	$50
	.byte	$50
	.byte	$91
	.byte	$8F
	.byte	$93
	.byte	$93
	.byte	$92
	.byte	$91
	.byte	$91
	.byte	$93
	.byte	$8F
	.byte	$92
	.byte	$91
	.byte	$91
	.byte	$91
	.byte	$7D
	.byte	$50
	.byte	$50
	.byte	$8F
	.byte	$94
	.byte	$8E
	.byte	$91
	.byte	$92
	.byte	$91
	.byte	$94
	.byte	$94
	.byte	$8E
	.byte	$8D
	.byte	$85
	.byte	$92
	.byte	$8E
	.byte	$50
	.byte	$50
	.byte	$50
	.byte	$90
	.byte	$8C
	.byte	$8E
	.byte	$91
	.byte	$91
	.byte	$92
	.byte	$8D
	.byte	$8E
	.byte	$8B
	.byte	$62
	.byte	$9C
	.byte	$8B
	.byte	$9F
	.byte	$50
	.byte	$50
	.byte	$50
	.byte	$8B
	.byte	$62
	.byte	$88
	.byte	$8B
	.byte	$8D
	.byte	$8B
	.byte	$71
	.byte	$87
	.byte	$9A
	.byte	$61
	.byte	$67
	.byte	$9E
	.byte	$50
	.byte	$50
	.byte	$50
	.byte	$50
	.byte	$73
	.byte	$61
	.byte	$AF
	.byte	$AF
	.byte	$9B
	.byte	$6A
	.byte	$70
	.byte	$AF
	.byte	$50
	.byte	$61
	.byte	$50
	.byte	$DD
	.byte	$DE
	.byte	$50
	.byte	$50
	.byte	$50
	.byte	$71
	.byte	$60
	.byte	$50
	.byte	$50
	.byte	$50
	.byte	$69
	.byte	$71
	.byte	$77
	.byte	$50
	.byte	$61
	.byte	$50
	.byte	$50
	.byte	$50
	.byte	$50
	.byte	$50
	.byte	$50
	.byte	$72
	.byte	$60
	.byte	$58
	.byte	$58
	.byte	$59
	.byte	$68
	.byte	$72
	.byte	$58
	.byte	$59
	.byte	$61
	.byte	$58
	.byte	$59
	.byte	$58
	.byte	$58
	.byte	$58
	.byte	$58
	.byte	$63
	.byte	$64
	.byte	$65
	.byte	$53
	.byte	$51
	.byte	$69
	.byte	$72
	.byte	$51
	.byte	$63
	.byte	$64
	.byte	$65
	.byte	$54
	.byte	$51
	.byte	$51
	.byte	$51
	.byte	$51
	.byte	$55
	.byte	$55
	.byte	$57
	.byte	$51
	.byte	$54
	.byte	$68
	.byte	$55
	.byte	$75
	.byte	$56
	.byte	$55
	.byte	$57
	.byte	$51
	.byte	$51
	.byte	$51
	.byte	$51
	.byte	$53
	.byte	$51
	.byte	$52
	.byte	$51
	.byte	$51
	.byte	$6B
	.byte	$6C
	.byte	$6D
	.byte	$57
	.byte	$51
	.byte	$53
	.byte	$51
	.byte	$51
	.byte	$54
	.byte	$0F
	.byte	$04
	.byte	$0C
	.byte	$0B
	.byte	$04
	.byte	$05
	.byte	$06
	.byte	$07
	.byte	$04
	.byte	$08
	.byte	$06
	.byte	$07
	.byte	$04
	.byte	$05
	.byte	$06
	.byte	$0D
	.byte	$00
	.byte	$10
	.byte	$11
	.byte	$37
	.byte	$38
	.byte	$38
	.byte	$37
	.byte	$38
	.byte	$37
	.byte	$37
	.byte	$38
	.byte	$37
	.byte	$38
	.byte	$37
	.byte	$37
	.byte	$37
	.byte	$37
	.byte	$37
	.byte	$38
_level0_2:
	.byte	$50
	.byte	$50
	.byte	$50
	.byte	$50
	.byte	$50
	.byte	$50
	.byte	$50
	.byte	$50
	.byte	$50
	.byte	$50
	.byte	$50
	.byte	$50
	.byte	$50
	.byte	$50
	.byte	$50
	.byte	$50
	.byte	$50
	.byte	$50
	.byte	$50
	.byte	$50
	.byte	$50
	.byte	$50
	.byte	$50
	.byte	$50
	.byte	$50
	.byte	$50
	.byte	$50
	.byte	$50
	.byte	$DD
	.byte	$DC
	.byte	$DC
	.byte	$DC
	.byte	$DD
	.byte	$DC
	.byte	$DC
	.byte	$DE
	.byte	$50
	.byte	$50
	.byte	$50
	.byte	$50
	.byte	$50
	.byte	$50
	.byte	$50
	.byte	$50
	.byte	$50
	.byte	$50
	.byte	$50
	.byte	$50
	.byte	$50
	.byte	$50
	.byte	$50
	.byte	$50
	.byte	$50
	.byte	$50
	.byte	$50
	.byte	$50
	.byte	$50
	.byte	$50
	.byte	$50
	.byte	$50
	.byte	$50
	.byte	$50
	.byte	$50
	.byte	$50
	.byte	$50
	.byte	$50
	.byte	$50
	.byte	$50
	.byte	$50
	.byte	$50
	.byte	$50
	.byte	$50
	.byte	$50
	.byte	$50
	.byte	$50
	.byte	$50
	.byte	$50
	.byte	$50
	.byte	$50
	.byte	$50
	.byte	$50
	.byte	$50
	.byte	$50
	.byte	$50
	.byte	$50
	.byte	$50
	.byte	$DD
	.byte	$DC
	.byte	$DE
	.byte	$50
	.byte	$50
	.byte	$50
	.byte	$50
	.byte	$50
	.byte	$50
	.byte	$50
	.byte	$50
	.byte	$50
	.byte	$50
	.byte	$50
	.byte	$50
	.byte	$50
	.byte	$50
	.byte	$50
	.byte	$50
	.byte	$50
	.byte	$50
	.byte	$50
	.byte	$50
	.byte	$50
	.byte	$50
	.byte	$50
	.byte	$50
	.byte	$50
	.byte	$50
	.byte	$50
	.byte	$50
	.byte	$50
	.byte	$50
	.byte	$50
	.byte	$50
	.byte	$50
	.byte	$50
	.byte	$50
	.byte	$50
	.byte	$50
	.byte	$50
	.byte	$50
	.byte	$50
	.byte	$50
	.byte	$50
	.byte	$50
	.byte	$50
	.byte	$50
	.byte	$50
	.byte	$50
	.byte	$50
	.byte	$50
	.byte	$50
	.byte	$50
	.byte	$50
	.byte	$50
	.byte	$AC
	.byte	$50
	.byte	$50
	.byte	$50
	.byte	$50
	.byte	$50
	.byte	$50
	.byte	$50
	.byte	$AC
	.byte	$50
	.byte	$50
	.byte	$50
	.byte	$50
	.byte	$50
	.byte	$50
	.byte	$50
	.byte	$35
	.byte	$34
	.byte	$A4
	.byte	$A1
	.byte	$AB
	.byte	$A7
	.byte	$B0
	.byte	$A7
	.byte	$B0
	.byte	$B0
	.byte	$A8
	.byte	$AB
	.byte	$A8
	.byte	$B0
	.byte	$35
	.byte	$36
	.byte	$25
	.byte	$21
	.byte	$51
	.byte	$A0
	.byte	$B0
	.byte	$B0
	.byte	$A7
	.byte	$B0
	.byte	$AB
	.byte	$B0
	.byte	$B0
	.byte	$B0
	.byte	$B0
	.byte	$B0
	.byte	$25
	.byte	$21
	.byte	$20
	.byte	$20
	.byte	$A3
	.byte	$A2
	.byte	$A7
	.byte	$B0
	.byte	$B0
	.byte	$A7
	.byte	$B0
	.byte	$A8
	.byte	$B0
	.byte	$A7
	.byte	$35
	.byte	$36
	.byte	$23
	.byte	$20
	.byte	$20
	.byte	$20
	.byte	$A5
	.byte	$A6
	.byte	$A6
	.byte	$A6
	.byte	$A6
	.byte	$35
	.byte	$34
	.byte	$33
	.byte	$34
	.byte	$36
	.byte	$25
	.byte	$21
	.byte	$20
	.byte	$20
	.byte	$20
	.byte	$20
	.byte	$51
	.byte	$51
	.byte	$51
	.byte	$51
	.byte	$51
	.byte	$37
	.byte	$37
	.byte	$37
	.byte	$38
	.byte	$38
	.byte	$23
	.byte	$20
	.byte	$20
	.byte	$20
	.byte	$20
	.byte	$20
_level0_3:
	.byte	$50
	.byte	$50
	.byte	$50
	.byte	$50
	.byte	$50
	.byte	$50
	.byte	$50
	.byte	$50
	.byte	$50
	.byte	$96
	.byte	$90
	.byte	$91
	.byte	$90
	.byte	$98
	.byte	$50
	.byte	$50
	.byte	$DE
	.byte	$50
	.byte	$50
	.byte	$50
	.byte	$50
	.byte	$50
	.byte	$50
	.byte	$50
	.byte	$95
	.byte	$90
	.byte	$91
	.byte	$90
	.byte	$90
	.byte	$90
	.byte	$97
	.byte	$50
	.byte	$50
	.byte	$50
	.byte	$50
	.byte	$50
	.byte	$50
	.byte	$50
	.byte	$50
	.byte	$50
	.byte	$92
	.byte	$91
	.byte	$91
	.byte	$91
	.byte	$90
	.byte	$90
	.byte	$8F
	.byte	$50
	.byte	$50
	.byte	$50
	.byte	$50
	.byte	$50
	.byte	$50
	.byte	$50
	.byte	$50
	.byte	$50
	.byte	$92
	.byte	$91
	.byte	$91
	.byte	$91
	.byte	$90
	.byte	$90
	.byte	$8E
	.byte	$50
	.byte	$50
	.byte	$50
	.byte	$50
	.byte	$50
	.byte	$50
	.byte	$50
	.byte	$50
	.byte	$50
	.byte	$85
	.byte	$92
	.byte	$91
	.byte	$90
	.byte	$91
	.byte	$8E
	.byte	$8C
	.byte	$50
	.byte	$50
	.byte	$DD
	.byte	$DC
	.byte	$DC
	.byte	$DE
	.byte	$50
	.byte	$50
	.byte	$50
	.byte	$9B
	.byte	$85
	.byte	$8C
	.byte	$85
	.byte	$86
	.byte	$8C
	.byte	$9A
	.byte	$50
	.byte	$50
	.byte	$50
	.byte	$50
	.byte	$50
	.byte	$50
	.byte	$50
	.byte	$50
	.byte	$50
	.byte	$50
	.byte	$AF
	.byte	$9C
	.byte	$6A
	.byte	$9A
	.byte	$AF
	.byte	$50
	.byte	$50
	.byte	$50
	.byte	$50
	.byte	$50
	.byte	$50
	.byte	$50
	.byte	$50
	.byte	$50
	.byte	$50
	.byte	$50
	.byte	$50
	.byte	$6E
	.byte	$69
	.byte	$50
	.byte	$50
	.byte	$50
	.byte	$50
	.byte	$50
	.byte	$AD
	.byte	$50
	.byte	$50
	.byte	$50
	.byte	$50
	.byte	$50
	.byte	$50
	.byte	$50
	.byte	$50
	.byte	$50
	.byte	$68
	.byte	$50
	.byte	$50
	.byte	$50
	.byte	$50
	.byte	$33
	.byte	$36
	.byte	$AC
	.byte	$50
	.byte	$50
	.byte	$50
	.byte	$AD
	.byte	$50
	.byte	$50
	.byte	$50
	.byte	$50
	.byte	$69
	.byte	$50
	.byte	$50
	.byte	$50
	.byte	$AD
	.byte	$21
	.byte	$26
	.byte	$35
	.byte	$36
	.byte	$A8
	.byte	$B0
	.byte	$B0
	.byte	$AA
	.byte	$A7
	.byte	$4D
	.byte	$6B
	.byte	$6C
	.byte	$6D
	.byte	$53
	.byte	$4F
	.byte	$A7
	.byte	$20
	.byte	$20
	.byte	$21
	.byte	$26
	.byte	$B0
	.byte	$A7
	.byte	$A7
	.byte	$B0
	.byte	$B0
	.byte	$4A
	.byte	$4B
	.byte	$5A
	.byte	$4B
	.byte	$5B
	.byte	$4C
	.byte	$B0
	.byte	$20
	.byte	$20
	.byte	$20
	.byte	$24
	.byte	$35
	.byte	$34
	.byte	$36
	.byte	$B0
	.byte	$A7
	.byte	$B0
	.byte	$A8
	.byte	$B0
	.byte	$B0
	.byte	$A8
	.byte	$B0
	.byte	$A8
	.byte	$20
	.byte	$20
	.byte	$20
	.byte	$20
	.byte	$21
	.byte	$21
	.byte	$26
	.byte	$35
	.byte	$33
	.byte	$34
	.byte	$33
	.byte	$34
	.byte	$33
	.byte	$33
	.byte	$33
	.byte	$34
	.byte	$20
	.byte	$20
	.byte	$20
	.byte	$20
	.byte	$20
	.byte	$20
	.byte	$24
	.byte	$38
	.byte	$37
	.byte	$38
	.byte	$37
	.byte	$37
	.byte	$37
	.byte	$37
	.byte	$37
	.byte	$38
_level0_4:
	.byte	$50
	.byte	$50
	.byte	$50
	.byte	$50
	.byte	$50
	.byte	$50
	.byte	$50
	.byte	$50
	.byte	$50
	.byte	$50
	.byte	$50
	.byte	$50
	.byte	$50
	.byte	$50
	.byte	$50
	.byte	$50
	.byte	$50
	.byte	$50
	.byte	$50
	.byte	$50
	.byte	$50
	.byte	$50
	.byte	$50
	.byte	$50
	.byte	$50
	.byte	$50
	.byte	$50
	.byte	$50
	.byte	$DD
	.byte	$DC
	.byte	$DC
	.byte	$DE
	.byte	$50
	.byte	$50
	.byte	$50
	.byte	$50
	.byte	$50
	.byte	$50
	.byte	$50
	.byte	$50
	.byte	$50
	.byte	$50
	.byte	$50
	.byte	$50
	.byte	$50
	.byte	$50
	.byte	$50
	.byte	$50
	.byte	$50
	.byte	$DD
	.byte	$DC
	.byte	$DC
	.byte	$DE
	.byte	$50
	.byte	$50
	.byte	$50
	.byte	$50
	.byte	$50
	.byte	$50
	.byte	$50
	.byte	$50
	.byte	$50
	.byte	$50
	.byte	$50
	.byte	$50
	.byte	$50
	.byte	$50
	.byte	$50
	.byte	$50
	.byte	$50
	.byte	$50
	.byte	$50
	.byte	$50
	.byte	$50
	.byte	$50
	.byte	$50
	.byte	$50
	.byte	$50
	.byte	$50
	.byte	$50
	.byte	$50
	.byte	$50
	.byte	$50
	.byte	$50
	.byte	$50
	.byte	$50
	.byte	$50
	.byte	$50
	.byte	$50
	.byte	$50
	.byte	$50
	.byte	$50
	.byte	$50
	.byte	$50
	.byte	$50
	.byte	$50
	.byte	$50
	.byte	$50
	.byte	$50
	.byte	$50
	.byte	$50
	.byte	$50
	.byte	$50
	.byte	$50
	.byte	$50
	.byte	$DD
	.byte	$DE
	.byte	$50
	.byte	$50
	.byte	$50
	.byte	$50
	.byte	$50
	.byte	$50
	.byte	$50
	.byte	$50
	.byte	$50
	.byte	$50
	.byte	$50
	.byte	$50
	.byte	$50
	.byte	$50
	.byte	$50
	.byte	$50
	.byte	$50
	.byte	$50
	.byte	$50
	.byte	$50
	.byte	$D1
	.byte	$50
	.byte	$50
	.byte	$50
	.byte	$50
	.byte	$50
	.byte	$50
	.byte	$50
	.byte	$50
	.byte	$50
	.byte	$50
	.byte	$50
	.byte	$50
	.byte	$50
	.byte	$D1
	.byte	$D2
	.byte	$D6
	.byte	$50
	.byte	$50
	.byte	$50
	.byte	$AD
	.byte	$50
	.byte	$50
	.byte	$50
	.byte	$50
	.byte	$AC
	.byte	$50
	.byte	$50
	.byte	$50
	.byte	$D0
	.byte	$D5
	.byte	$D4
	.byte	$D4
	.byte	$AA
	.byte	$B0
	.byte	$B0
	.byte	$B0
	.byte	$B0
	.byte	$AA
	.byte	$7E
	.byte	$78
	.byte	$5F
	.byte	$AA
	.byte	$A8
	.byte	$B0
	.byte	$B0
	.byte	$B0
	.byte	$A7
	.byte	$B0
	.byte	$B0
	.byte	$B0
	.byte	$A8
	.byte	$A7
	.byte	$B0
	.byte	$A8
	.byte	$5C
	.byte	$5D
	.byte	$5E
	.byte	$B0
	.byte	$A9
	.byte	$B0
	.byte	$AB
	.byte	$B0
	.byte	$0E
	.byte	$0D
	.byte	$B0
	.byte	$A7
	.byte	$B0
	.byte	$B0
	.byte	$B0
	.byte	$A9
	.byte	$B0
	.byte	$A8
	.byte	$A9
	.byte	$B0
	.byte	$A9
	.byte	$B0
	.byte	$0E
	.byte	$0D
	.byte	$00
	.byte	$3C
	.byte	$A6
	.byte	$A6
	.byte	$A6
	.byte	$A6
	.byte	$A6
	.byte	$0E
	.byte	$09
	.byte	$04
	.byte	$05
	.byte	$06
	.byte	$07
	.byte	$08
	.byte	$00
	.byte	$12
	.byte	$02
	.byte	$01
	.byte	$51
	.byte	$51
	.byte	$51
	.byte	$51
	.byte	$51
	.byte	$38
	.byte	$37
	.byte	$37
	.byte	$38
	.byte	$38
	.byte	$37
	.byte	$38
	.byte	$38
	.byte	$37
	.byte	$37
	.byte	$38
_level0_5:
	.byte	$50
	.byte	$50
	.byte	$50
	.byte	$50
	.byte	$50
	.byte	$50
	.byte	$50
	.byte	$DD
	.byte	$DC
	.byte	$DC
	.byte	$DC
	.byte	$DE
	.byte	$50
	.byte	$50
	.byte	$50
	.byte	$50
	.byte	$50
	.byte	$50
	.byte	$50
	.byte	$50
	.byte	$50
	.byte	$50
	.byte	$50
	.byte	$50
	.byte	$50
	.byte	$50
	.byte	$50
	.byte	$50
	.byte	$50
	.byte	$50
	.byte	$50
	.byte	$DD
	.byte	$50
	.byte	$50
	.byte	$50
	.byte	$50
	.byte	$50
	.byte	$50
	.byte	$50
	.byte	$50
	.byte	$50
	.byte	$50
	.byte	$50
	.byte	$50
	.byte	$50
	.byte	$50
	.byte	$50
	.byte	$50
	.byte	$50
	.byte	$50
	.byte	$50
	.byte	$50
	.byte	$50
	.byte	$50
	.byte	$50
	.byte	$50
	.byte	$50
	.byte	$50
	.byte	$DD
	.byte	$DC
	.byte	$DE
	.byte	$50
	.byte	$50
	.byte	$50
	.byte	$50
	.byte	$50
	.byte	$50
	.byte	$50
	.byte	$50
	.byte	$50
	.byte	$50
	.byte	$50
	.byte	$50
	.byte	$50
	.byte	$50
	.byte	$50
	.byte	$50
	.byte	$50
	.byte	$D1
	.byte	$D3
	.byte	$50
	.byte	$50
	.byte	$C5
	.byte	$D1
	.byte	$D3
	.byte	$E0
	.byte	$E1
	.byte	$E2
	.byte	$50
	.byte	$50
	.byte	$50
	.byte	$50
	.byte	$D1
	.byte	$D2
	.byte	$D5
	.byte	$0E
	.byte	$50
	.byte	$D0
	.byte	$D4
	.byte	$D6
	.byte	$D7
	.byte	$EC
	.byte	$EB
	.byte	$EA
	.byte	$E3
	.byte	$50
	.byte	$50
	.byte	$D0
	.byte	$D5
	.byte	$D4
	.byte	$D4
	.byte	$00
	.byte	$D2
	.byte	$D4
	.byte	$D4
	.byte	$D4
	.byte	$D9
	.byte	$DA
	.byte	$EE
	.byte	$E9
	.byte	$E9
	.byte	$E4
	.byte	$E5
	.byte	$E6
	.byte	$D4
	.byte	$0F
	.byte	$0C
	.byte	$02
	.byte	$D6
	.byte	$D4
	.byte	$D6
	.byte	$D6
	.byte	$D4
	.byte	$D8
	.byte	$DA
	.byte	$EF
	.byte	$E9
	.byte	$E9
	.byte	$EB
	.byte	$EA
	.byte	$E7
	.byte	$3C
	.byte	$12
	.byte	$3A
	.byte	$0E
	.byte	$07
	.byte	$04
	.byte	$06
	.byte	$04
	.byte	$0C
	.byte	$D8
	.byte	$DB
	.byte	$EE
	.byte	$0E
	.byte	$0C
	.byte	$E9
	.byte	$EB
	.byte	$12
	.byte	$10
	.byte	$12
	.byte	$00
	.byte	$3C
	.byte	$12
	.byte	$02
	.byte	$10
	.byte	$01
	.byte	$AA
	.byte	$B0
	.byte	$B0
	.byte	$00
	.byte	$01
	.byte	$AA
	.byte	$B0
	.byte	$00
	.byte	$01
	.byte	$3C
	.byte	$02
	.byte	$3A
	.byte	$3B
	.byte	$10
	.byte	$12
	.byte	$11
	.byte	$B0
	.byte	$B0
	.byte	$A9
	.byte	$02
	.byte	$03
	.byte	$B0
	.byte	$A7
	.byte	$02
	.byte	$02
	.byte	$10
	.byte	$00
	.byte	$01
	.byte	$3C
	.byte	$3A
	.byte	$3B
	.byte	$01
	.byte	$B0
	.byte	$AA
	.byte	$B0
	.byte	$00
	.byte	$01
	.byte	$B0
	.byte	$B0
	.byte	$00
	.byte	$3C
	.byte	$00
	.byte	$02
	.byte	$03
	.byte	$10
	.byte	$3C
	.byte	$10
	.byte	$03
	.byte	$A6
	.byte	$A6
	.byte	$A6
	.byte	$02
	.byte	$03
	.byte	$A6
	.byte	$A6
	.byte	$02
	.byte	$01
	.byte	$02
	.byte	$38
	.byte	$37
	.byte	$37
	.byte	$38
	.byte	$37
	.byte	$38
	.byte	$51
	.byte	$51
	.byte	$51
	.byte	$38
	.byte	$38
	.byte	$51
	.byte	$51
	.byte	$38
	.byte	$38
	.byte	$37
_level0_6:
	.byte	$50
	.byte	$50
	.byte	$50
	.byte	$50
	.byte	$50
	.byte	$50
	.byte	$50
	.byte	$50
	.byte	$DD
	.byte	$DC
	.byte	$DC
	.byte	$DC
	.byte	$DE
	.byte	$50
	.byte	$50
	.byte	$50
	.byte	$DC
	.byte	$DC
	.byte	$DC
	.byte	$DE
	.byte	$50
	.byte	$50
	.byte	$50
	.byte	$50
	.byte	$50
	.byte	$50
	.byte	$50
	.byte	$50
	.byte	$50
	.byte	$50
	.byte	$50
	.byte	$50
	.byte	$50
	.byte	$50
	.byte	$50
	.byte	$50
	.byte	$50
	.byte	$50
	.byte	$50
	.byte	$50
	.byte	$50
	.byte	$50
	.byte	$50
	.byte	$50
	.byte	$50
	.byte	$50
	.byte	$50
	.byte	$DD
	.byte	$50
	.byte	$50
	.byte	$50
	.byte	$50
	.byte	$50
	.byte	$50
	.byte	$50
	.byte	$50
	.byte	$50
	.byte	$50
	.byte	$50
	.byte	$50
	.byte	$50
	.byte	$50
	.byte	$50
	.byte	$50
	.byte	$E3
	.byte	$AC
	.byte	$50
	.byte	$50
	.byte	$50
	.byte	$50
	.byte	$50
	.byte	$DD
	.byte	$DC
	.byte	$DC
	.byte	$DE
	.byte	$50
	.byte	$50
	.byte	$50
	.byte	$50
	.byte	$50
	.byte	$0A
	.byte	$06
	.byte	$0C
	.byte	$50
	.byte	$50
	.byte	$50
	.byte	$50
	.byte	$50
	.byte	$50
	.byte	$50
	.byte	$50
	.byte	$50
	.byte	$50
	.byte	$D1
	.byte	$D3
	.byte	$E0
	.byte	$01
	.byte	$02
	.byte	$03
	.byte	$E4
	.byte	$E2
	.byte	$50
	.byte	$AC
	.byte	$50
	.byte	$50
	.byte	$50
	.byte	$50
	.byte	$C5
	.byte	$D0
	.byte	$D4
	.byte	$D9
	.byte	$EC
	.byte	$02
	.byte	$00
	.byte	$01
	.byte	$0E
	.byte	$08
	.byte	$06
	.byte	$0D
	.byte	$50
	.byte	$50
	.byte	$D1
	.byte	$D2
	.byte	$D4
	.byte	$D6
	.byte	$D4
	.byte	$D5
	.byte	$DB
	.byte	$3B
	.byte	$02
	.byte	$03
	.byte	$00
	.byte	$01
	.byte	$02
	.byte	$11
	.byte	$E4
	.byte	$E5
	.byte	$E8
	.byte	$D6
	.byte	$D6
	.byte	$D4
	.byte	$D6
	.byte	$D4
	.byte	$D8
	.byte	$12
	.byte	$3C
	.byte	$01
	.byte	$02
	.byte	$03
	.byte	$00
	.byte	$3C
	.byte	$E9
	.byte	$EB
	.byte	$EB
	.byte	$E7
	.byte	$DF
	.byte	$D6
	.byte	$D4
	.byte	$D6
	.byte	$D9
	.byte	$01
	.byte	$3A
	.byte	$3B
	.byte	$00
	.byte	$3C
	.byte	$02
	.byte	$01
	.byte	$0E
	.byte	$0A
	.byte	$0C
	.byte	$A7
	.byte	$B0
	.byte	$B0
	.byte	$B0
	.byte	$AA
	.byte	$A9
	.byte	$03
	.byte	$00
	.byte	$10
	.byte	$02
	.byte	$10
	.byte	$01
	.byte	$02
	.byte	$3A
	.byte	$10
	.byte	$3C
	.byte	$B0
	.byte	$B0
	.byte	$B0
	.byte	$AB
	.byte	$B0
	.byte	$B0
	.byte	$01
	.byte	$02
	.byte	$10
	.byte	$3C
	.byte	$3C
	.byte	$03
	.byte	$00
	.byte	$3C
	.byte	$10
	.byte	$10
	.byte	$B0
	.byte	$AB
	.byte	$AA
	.byte	$B0
	.byte	$B0
	.byte	$AA
	.byte	$03
	.byte	$01
	.byte	$00
	.byte	$01
	.byte	$3A
	.byte	$3B
	.byte	$02
	.byte	$10
	.byte	$3C
	.byte	$12
	.byte	$A6
	.byte	$A6
	.byte	$A6
	.byte	$A6
	.byte	$0E
	.byte	$09
	.byte	$37
	.byte	$38
	.byte	$38
	.byte	$37
	.byte	$38
	.byte	$38
	.byte	$37
	.byte	$37
	.byte	$38
	.byte	$37
	.byte	$51
	.byte	$51
	.byte	$51
	.byte	$51
	.byte	$10
	.byte	$00
_level0_7:
	.byte	$50
	.byte	$50
	.byte	$50
	.byte	$50
	.byte	$50
	.byte	$50
	.byte	$50
	.byte	$DD
	.byte	$DC
	.byte	$DC
	.byte	$3D
	.byte	$00
	.byte	$3C
	.byte	$02
	.byte	$03
	.byte	$02
	.byte	$50
	.byte	$50
	.byte	$50
	.byte	$50
	.byte	$50
	.byte	$50
	.byte	$50
	.byte	$50
	.byte	$50
	.byte	$50
	.byte	$3D
	.byte	$02
	.byte	$10
	.byte	$10
	.byte	$01
	.byte	$00
	.byte	$DC
	.byte	$DC
	.byte	$DE
	.byte	$50
	.byte	$50
	.byte	$50
	.byte	$50
	.byte	$50
	.byte	$50
	.byte	$50
	.byte	$3D
	.byte	$00
	.byte	$3A
	.byte	$3B
	.byte	$03
	.byte	$02
	.byte	$50
	.byte	$50
	.byte	$50
	.byte	$50
	.byte	$50
	.byte	$50
	.byte	$50
	.byte	$50
	.byte	$50
	.byte	$50
	.byte	$3D
	.byte	$02
	.byte	$3C
	.byte	$00
	.byte	$01
	.byte	$00
	.byte	$50
	.byte	$50
	.byte	$50
	.byte	$50
	.byte	$50
	.byte	$50
	.byte	$50
	.byte	$50
	.byte	$AD
	.byte	$50
	.byte	$3D
	.byte	$00
	.byte	$10
	.byte	$03
	.byte	$02
	.byte	$02
	.byte	$E1
	.byte	$E2
	.byte	$50
	.byte	$50
	.byte	$50
	.byte	$50
	.byte	$3E
	.byte	$0E
	.byte	$05
	.byte	$0A
	.byte	$0D
	.byte	$02
	.byte	$01
	.byte	$00
	.byte	$3A
	.byte	$3B
	.byte	$E9
	.byte	$EB
	.byte	$E3
	.byte	$50
	.byte	$50
	.byte	$50
	.byte	$3D
	.byte	$3C
	.byte	$03
	.byte	$00
	.byte	$01
	.byte	$10
	.byte	$12
	.byte	$02
	.byte	$3C
	.byte	$00
	.byte	$ED
	.byte	$EF
	.byte	$EB
	.byte	$E3
	.byte	$50
	.byte	$50
	.byte	$3D
	.byte	$00
	.byte	$01
	.byte	$02
	.byte	$03
	.byte	$00
	.byte	$01
	.byte	$11
	.byte	$10
	.byte	$02
	.byte	$DB
	.byte	$DB
	.byte	$EB
	.byte	$EB
	.byte	$E3
	.byte	$AC
	.byte	$3D
	.byte	$02
	.byte	$03
	.byte	$3C
	.byte	$01
	.byte	$02
	.byte	$03
	.byte	$3A
	.byte	$3B
	.byte	$00
	.byte	$DA
	.byte	$DB
	.byte	$EF
	.byte	$EB
	.byte	$0F
	.byte	$07
	.byte	$0D
	.byte	$00
	.byte	$01
	.byte	$10
	.byte	$02
	.byte	$00
	.byte	$01
	.byte	$3C
	.byte	$01
	.byte	$02
	.byte	$A7
	.byte	$B0
	.byte	$AA
	.byte	$AB
	.byte	$3C
	.byte	$10
	.byte	$10
	.byte	$02
	.byte	$03
	.byte	$3C
	.byte	$10
	.byte	$02
	.byte	$03
	.byte	$00
	.byte	$02
	.byte	$25
	.byte	$B0
	.byte	$0F
	.byte	$08
	.byte	$0C
	.byte	$00
	.byte	$12
	.byte	$3C
	.byte	$00
	.byte	$01
	.byte	$10
	.byte	$00
	.byte	$3C
	.byte	$01
	.byte	$02
	.byte	$25
	.byte	$20
	.byte	$B0
	.byte	$00
	.byte	$03
	.byte	$00
	.byte	$02
	.byte	$10
	.byte	$3C
	.byte	$02
	.byte	$03
	.byte	$00
	.byte	$02
	.byte	$10
	.byte	$02
	.byte	$25
	.byte	$20
	.byte	$20
	.byte	$0D
	.byte	$02
	.byte	$01
	.byte	$02
	.byte	$11
	.byte	$3C
	.byte	$10
	.byte	$00
	.byte	$10
	.byte	$02
	.byte	$25
	.byte	$21
	.byte	$21
	.byte	$20
	.byte	$20
	.byte	$20
	.byte	$01
	.byte	$10
	.byte	$01
	.byte	$3A
	.byte	$3B
	.byte	$10
	.byte	$01
	.byte	$02
	.byte	$25
	.byte	$21
	.byte	$20
	.byte	$20
	.byte	$20
	.byte	$20
	.byte	$20
	.byte	$20
_level1_0:
	.byte	$50
	.byte	$50
	.byte	$50
	.byte	$50
	.byte	$50
	.byte	$50
	.byte	$50
	.byte	$50
	.byte	$3E
	.byte	$3C
	.byte	$02
	.byte	$12
	.byte	$02
	.byte	$10
	.byte	$3A
	.byte	$3B
	.byte	$50
	.byte	$50
	.byte	$DD
	.byte	$DC
	.byte	$DC
	.byte	$DE
	.byte	$50
	.byte	$50
	.byte	$3D
	.byte	$81
	.byte	$9B
	.byte	$17
	.byte	$C8
	.byte	$1A
	.byte	$3C
	.byte	$11
	.byte	$50
	.byte	$50
	.byte	$50
	.byte	$50
	.byte	$50
	.byte	$50
	.byte	$50
	.byte	$50
	.byte	$50
	.byte	$50
	.byte	$50
	.byte	$9B
	.byte	$84
	.byte	$C8
	.byte	$00
	.byte	$01
	.byte	$50
	.byte	$50
	.byte	$50
	.byte	$50
	.byte	$50
	.byte	$50
	.byte	$50
	.byte	$50
	.byte	$AC
	.byte	$50
	.byte	$50
	.byte	$50
	.byte	$50
	.byte	$9B
	.byte	$02
	.byte	$03
	.byte	$50
	.byte	$50
	.byte	$50
	.byte	$50
	.byte	$50
	.byte	$50
	.byte	$0E
	.byte	$06
	.byte	$07
	.byte	$08
	.byte	$0C
	.byte	$58
	.byte	$58
	.byte	$58
	.byte	$00
	.byte	$01
	.byte	$50
	.byte	$50
	.byte	$0E
	.byte	$07
	.byte	$3E
	.byte	$0C
	.byte	$00
	.byte	$02
	.byte	$00
	.byte	$01
	.byte	$03
	.byte	$0E
	.byte	$06
	.byte	$0D
	.byte	$02
	.byte	$03
	.byte	$50
	.byte	$50
	.byte	$9B
	.byte	$10
	.byte	$3D
	.byte	$14
	.byte	$02
	.byte	$3C
	.byte	$02
	.byte	$03
	.byte	$01
	.byte	$3C
	.byte	$02
	.byte	$3C
	.byte	$3A
	.byte	$3B
	.byte	$50
	.byte	$50
	.byte	$50
	.byte	$9E
	.byte	$3D
	.byte	$9E
	.byte	$9B
	.byte	$82
	.byte	$84
	.byte	$51
	.byte	$C8
	.byte	$1A
	.byte	$3C
	.byte	$01
	.byte	$00
	.byte	$01
	.byte	$50
	.byte	$50
	.byte	$50
	.byte	$50
	.byte	$3D
	.byte	$50
	.byte	$50
	.byte	$50
	.byte	$50
	.byte	$9E
	.byte	$9B
	.byte	$51
	.byte	$C8
	.byte	$1A
	.byte	$02
	.byte	$03
	.byte	$50
	.byte	$50
	.byte	$50
	.byte	$50
	.byte	$3D
	.byte	$50
	.byte	$50
	.byte	$50
	.byte	$DD
	.byte	$DC
	.byte	$DE
	.byte	$9E
	.byte	$9B
	.byte	$51
	.byte	$10
	.byte	$01
	.byte	$50
	.byte	$50
	.byte	$50
	.byte	$50
	.byte	$3D
	.byte	$50
	.byte	$50
	.byte	$50
	.byte	$50
	.byte	$50
	.byte	$50
	.byte	$50
	.byte	$50
	.byte	$9E
	.byte	$10
	.byte	$03
	.byte	$50
	.byte	$50
	.byte	$AD
	.byte	$50
	.byte	$3D
	.byte	$50
	.byte	$50
	.byte	$50
	.byte	$50
	.byte	$50
	.byte	$50
	.byte	$58
	.byte	$58
	.byte	$59
	.byte	$00
	.byte	$01
	.byte	$50
	.byte	$50
	.byte	$0E
	.byte	$04
	.byte	$05
	.byte	$07
	.byte	$08
	.byte	$0C
	.byte	$50
	.byte	$50
	.byte	$3E
	.byte	$05
	.byte	$08
	.byte	$0D
	.byte	$02
	.byte	$03
	.byte	$50
	.byte	$50
	.byte	$9B
	.byte	$10
	.byte	$02
	.byte	$3C
	.byte	$11
	.byte	$10
	.byte	$50
	.byte	$50
	.byte	$3E
	.byte	$03
	.byte	$3C
	.byte	$10
	.byte	$00
	.byte	$01
	.byte	$50
	.byte	$50
	.byte	$50
	.byte	$9E
	.byte	$81
	.byte	$81
	.byte	$9E
	.byte	$83
	.byte	$50
	.byte	$50
	.byte	$3E
	.byte	$10
	.byte	$11
	.byte	$3C
	.byte	$02
	.byte	$03
_level2_0:
	.byte	$50
	.byte	$50
	.byte	$50
	.byte	$50
	.byte	$50
	.byte	$50
	.byte	$50
	.byte	$50
	.byte	$50
	.byte	$50
	.byte	$50
	.byte	$50
	.byte	$50
	.byte	$50
	.byte	$50
	.byte	$50
	.byte	$50
	.byte	$DD
	.byte	$DC
	.byte	$DC
	.byte	$DE
	.byte	$50
	.byte	$50
	.byte	$50
	.byte	$50
	.byte	$50
	.byte	$50
	.byte	$50
	.byte	$50
	.byte	$50
	.byte	$50
	.byte	$50
	.byte	$50
	.byte	$50
	.byte	$50
	.byte	$50
	.byte	$50
	.byte	$50
	.byte	$50
	.byte	$50
	.byte	$50
	.byte	$50
	.byte	$50
	.byte	$50
	.byte	$50
	.byte	$50
	.byte	$50
	.byte	$50
	.byte	$50
	.byte	$50
	.byte	$50
	.byte	$50
	.byte	$50
	.byte	$50
	.byte	$50
	.byte	$50
	.byte	$50
	.byte	$50
	.byte	$50
	.byte	$50
	.byte	$50
	.byte	$DD
	.byte	$DC
	.byte	$DC
	.byte	$50
	.byte	$50
	.byte	$50
	.byte	$50
	.byte	$50
	.byte	$50
	.byte	$50
	.byte	$50
	.byte	$50
	.byte	$50
	.byte	$50
	.byte	$50
	.byte	$50
	.byte	$50
	.byte	$50
	.byte	$50
	.byte	$50
	.byte	$50
	.byte	$50
	.byte	$50
	.byte	$50
	.byte	$50
	.byte	$50
	.byte	$50
	.byte	$50
	.byte	$50
	.byte	$50
	.byte	$50
	.byte	$50
	.byte	$50
	.byte	$50
	.byte	$50
	.byte	$50
	.byte	$50
	.byte	$50
	.byte	$50
	.byte	$50
	.byte	$DD
	.byte	$DC
	.byte	$DC
	.byte	$DC
	.byte	$DC
	.byte	$DE
	.byte	$50
	.byte	$50
	.byte	$50
	.byte	$50
	.byte	$50
	.byte	$50
	.byte	$50
	.byte	$50
	.byte	$50
	.byte	$50
	.byte	$50
	.byte	$50
	.byte	$50
	.byte	$50
	.byte	$50
	.byte	$50
	.byte	$50
	.byte	$50
	.byte	$50
	.byte	$50
	.byte	$50
	.byte	$50
	.byte	$50
	.byte	$50
	.byte	$50
	.byte	$50
	.byte	$50
	.byte	$50
	.byte	$50
	.byte	$50
	.byte	$50
	.byte	$50
	.byte	$50
	.byte	$50
	.byte	$50
	.byte	$50
	.byte	$50
	.byte	$50
	.byte	$50
	.byte	$50
	.byte	$50
	.byte	$50
	.byte	$50
	.byte	$50
	.byte	$50
	.byte	$50
	.byte	$50
	.byte	$50
	.byte	$50
	.byte	$50
	.byte	$50
	.byte	$50
	.byte	$50
	.byte	$50
	.byte	$50
	.byte	$50
	.byte	$50
	.byte	$50
	.byte	$50
	.byte	$50
	.byte	$50
	.byte	$50
	.byte	$50
	.byte	$50
	.byte	$50
	.byte	$50
	.byte	$50
	.byte	$50
	.byte	$50
	.byte	$50
	.byte	$DD
	.byte	$DC
	.byte	$DC
	.byte	$DE
	.byte	$50
	.byte	$50
	.byte	$50
	.byte	$AC
	.byte	$50
	.byte	$50
	.byte	$50
	.byte	$50
	.byte	$AD
	.byte	$50
	.byte	$59
	.byte	$50
	.byte	$50
	.byte	$50
	.byte	$50
	.byte	$50
	.byte	$50
	.byte	$0E
	.byte	$09
	.byte	$3E
	.byte	$07
	.byte	$04
	.byte	$06
	.byte	$04
	.byte	$07
	.byte	$09
	.byte	$0C
	.byte	$50
	.byte	$50
	.byte	$50
	.byte	$50
	.byte	$50
	.byte	$50
	.byte	$9B
	.byte	$3A
	.byte	$3D
	.byte	$3A
	.byte	$3B
	.byte	$03
	.byte	$01
	.byte	$3C
	.byte	$10
	.byte	$03
	.byte	$50
	.byte	$50
	.byte	$50
	.byte	$50
	.byte	$50
	.byte	$50
	.byte	$50
	.byte	$9E
	.byte	$3D
	.byte	$10
	.byte	$3C
	.byte	$3C
	.byte	$03
	.byte	$10
	.byte	$00
	.byte	$01
_level2_1:
	.byte	$50
	.byte	$50
	.byte	$50
	.byte	$50
	.byte	$50
	.byte	$50
	.byte	$50
	.byte	$50
	.byte	$50
	.byte	$50
	.byte	$50
	.byte	$50
	.byte	$50
	.byte	$50
	.byte	$50
	.byte	$50
	.byte	$50
	.byte	$50
	.byte	$50
	.byte	$50
	.byte	$50
	.byte	$50
	.byte	$50
	.byte	$50
	.byte	$50
	.byte	$50
	.byte	$50
	.byte	$50
	.byte	$50
	.byte	$50
	.byte	$50
	.byte	$50
	.byte	$50
	.byte	$50
	.byte	$50
	.byte	$50
	.byte	$50
	.byte	$50
	.byte	$DD
	.byte	$DC
	.byte	$DC
	.byte	$DC
	.byte	$DC
	.byte	$DC
	.byte	$DE
	.byte	$50
	.byte	$50
	.byte	$50
	.byte	$DE
	.byte	$50
	.byte	$50
	.byte	$50
	.byte	$50
	.byte	$50
	.byte	$50
	.byte	$50
	.byte	$50
	.byte	$50
	.byte	$50
	.byte	$50
	.byte	$50
	.byte	$50
	.byte	$50
	.byte	$50
	.byte	$50
	.byte	$50
	.byte	$50
	.byte	$50
	.byte	$50
	.byte	$50
	.byte	$50
	.byte	$50
	.byte	$50
	.byte	$50
	.byte	$50
	.byte	$50
	.byte	$50
	.byte	$50
	.byte	$50
	.byte	$50
	.byte	$50
	.byte	$50
	.byte	$50
	.byte	$50
	.byte	$50
	.byte	$50
	.byte	$50
	.byte	$50
	.byte	$50
	.byte	$50
	.byte	$50
	.byte	$50
	.byte	$50
	.byte	$50
	.byte	$50
	.byte	$50
	.byte	$50
	.byte	$50
	.byte	$50
	.byte	$50
	.byte	$50
	.byte	$50
	.byte	$50
	.byte	$50
	.byte	$50
	.byte	$50
	.byte	$50
	.byte	$50
	.byte	$50
	.byte	$50
	.byte	$50
	.byte	$50
	.byte	$50
	.byte	$DD
	.byte	$DC
	.byte	$DC
	.byte	$DC
	.byte	$DC
	.byte	$DE
	.byte	$50
	.byte	$50
	.byte	$50
	.byte	$50
	.byte	$50
	.byte	$50
	.byte	$DD
	.byte	$DC
	.byte	$DE
	.byte	$50
	.byte	$50
	.byte	$50
	.byte	$50
	.byte	$50
	.byte	$50
	.byte	$50
	.byte	$50
	.byte	$50
	.byte	$50
	.byte	$50
	.byte	$50
	.byte	$50
	.byte	$50
	.byte	$50
	.byte	$50
	.byte	$50
	.byte	$50
	.byte	$50
	.byte	$50
	.byte	$50
	.byte	$50
	.byte	$50
	.byte	$50
	.byte	$50
	.byte	$AC
	.byte	$50
	.byte	$50
	.byte	$50
	.byte	$50
	.byte	$50
	.byte	$50
	.byte	$50
	.byte	$50
	.byte	$50
	.byte	$58
	.byte	$50
	.byte	$AC
	.byte	$50
	.byte	$50
	.byte	$50
	.byte	$0E
	.byte	$0D
	.byte	$50
	.byte	$50
	.byte	$0F
	.byte	$0C
	.byte	$50
	.byte	$0F
	.byte	$06
	.byte	$09
	.byte	$06
	.byte	$05
	.byte	$05
	.byte	$0C
	.byte	$50
	.byte	$50
	.byte	$11
	.byte	$10
	.byte	$50
	.byte	$50
	.byte	$3C
	.byte	$12
	.byte	$50
	.byte	$10
	.byte	$02
	.byte	$00
	.byte	$01
	.byte	$02
	.byte	$00
	.byte	$3C
	.byte	$50
	.byte	$50
	.byte	$83
	.byte	$9E
	.byte	$50
	.byte	$50
	.byte	$81
	.byte	$AF
	.byte	$50
	.byte	$00
	.byte	$01
	.byte	$02
	.byte	$03
	.byte	$00
	.byte	$3C
	.byte	$00
	.byte	$C7
	.byte	$C7
	.byte	$C7
	.byte	$C7
	.byte	$C7
	.byte	$C7
	.byte	$C7
	.byte	$C7
	.byte	$C7
	.byte	$02
	.byte	$03
	.byte	$3C
	.byte	$10
	.byte	$02
	.byte	$10
	.byte	$02
	.byte	$3F
	.byte	$3F
	.byte	$3F
	.byte	$3F
	.byte	$3F
	.byte	$3F
	.byte	$3F
	.byte	$3F
	.byte	$3F
_level2_2:
	.byte	$50
	.byte	$50
	.byte	$50
	.byte	$50
	.byte	$50
	.byte	$50
	.byte	$50
	.byte	$50
	.byte	$50
	.byte	$50
	.byte	$50
	.byte	$50
	.byte	$50
	.byte	$50
	.byte	$50
	.byte	$50
	.byte	$50
	.byte	$50
	.byte	$50
	.byte	$50
	.byte	$50
	.byte	$50
	.byte	$DD
	.byte	$DC
	.byte	$DE
	.byte	$50
	.byte	$50
	.byte	$50
	.byte	$50
	.byte	$50
	.byte	$50
	.byte	$50
	.byte	$50
	.byte	$50
	.byte	$50
	.byte	$50
	.byte	$50
	.byte	$50
	.byte	$50
	.byte	$50
	.byte	$50
	.byte	$50
	.byte	$50
	.byte	$50
	.byte	$50
	.byte	$50
	.byte	$50
	.byte	$50
	.byte	$50
	.byte	$50
	.byte	$50
	.byte	$50
	.byte	$50
	.byte	$50
	.byte	$50
	.byte	$50
	.byte	$50
	.byte	$50
	.byte	$50
	.byte	$DD
	.byte	$DC
	.byte	$DC
	.byte	$DC
	.byte	$DE
	.byte	$50
	.byte	$50
	.byte	$DD
	.byte	$DC
	.byte	$DC
	.byte	$DE
	.byte	$50
	.byte	$50
	.byte	$50
	.byte	$50
	.byte	$50
	.byte	$50
	.byte	$50
	.byte	$50
	.byte	$50
	.byte	$50
	.byte	$50
	.byte	$50
	.byte	$50
	.byte	$50
	.byte	$50
	.byte	$50
	.byte	$95
	.byte	$99
	.byte	$7B
	.byte	$50
	.byte	$50
	.byte	$50
	.byte	$50
	.byte	$50
	.byte	$50
	.byte	$50
	.byte	$50
	.byte	$50
	.byte	$50
	.byte	$50
	.byte	$AC
	.byte	$50
	.byte	$7A
	.byte	$8D
	.byte	$7D
	.byte	$50
	.byte	$50
	.byte	$50
	.byte	$50
	.byte	$50
	.byte	$50
	.byte	$50
	.byte	$50
	.byte	$50
	.byte	$50
	.byte	$0E
	.byte	$06
	.byte	$07
	.byte	$08
	.byte	$09
	.byte	$0D
	.byte	$50
	.byte	$50
	.byte	$50
	.byte	$50
	.byte	$50
	.byte	$50
	.byte	$DD
	.byte	$50
	.byte	$50
	.byte	$58
	.byte	$10
	.byte	$02
	.byte	$00
	.byte	$01
	.byte	$3C
	.byte	$11
	.byte	$50
	.byte	$50
	.byte	$50
	.byte	$50
	.byte	$50
	.byte	$50
	.byte	$50
	.byte	$50
	.byte	$0E
	.byte	$0C
	.byte	$10
	.byte	$3C
	.byte	$02
	.byte	$01
	.byte	$00
	.byte	$01
	.byte	$50
	.byte	$50
	.byte	$50
	.byte	$50
	.byte	$AC
	.byte	$50
	.byte	$50
	.byte	$50
	.byte	$AF
	.byte	$84
	.byte	$51
	.byte	$10
	.byte	$10
	.byte	$03
	.byte	$00
	.byte	$10
	.byte	$50
	.byte	$50
	.byte	$50
	.byte	$0E
	.byte	$05
	.byte	$08
	.byte	$0C
	.byte	$50
	.byte	$50
	.byte	$50
	.byte	$AF
	.byte	$03
	.byte	$3A
	.byte	$3B
	.byte	$02
	.byte	$3C
	.byte	$50
	.byte	$50
	.byte	$50
	.byte	$11
	.byte	$02
	.byte	$10
	.byte	$12
	.byte	$50
	.byte	$59
	.byte	$58
	.byte	$59
	.byte	$01
	.byte	$10
	.byte	$3C
	.byte	$00
	.byte	$01
	.byte	$50
	.byte	$50
	.byte	$50
	.byte	$81
	.byte	$83
	.byte	$83
	.byte	$83
	.byte	$C7
	.byte	$0E
	.byte	$05
	.byte	$0C
	.byte	$03
	.byte	$00
	.byte	$01
	.byte	$02
	.byte	$03
	.byte	$C7
	.byte	$C7
	.byte	$C7
	.byte	$C7
	.byte	$C7
	.byte	$C7
	.byte	$C7
	.byte	$3F
	.byte	$10
	.byte	$03
	.byte	$00
	.byte	$01
	.byte	$02
	.byte	$3A
	.byte	$3B
	.byte	$01
	.byte	$3F
	.byte	$3F
	.byte	$3F
	.byte	$3F
	.byte	$3F
	.byte	$3F
	.byte	$3F
_level2_3:
	.byte	$50
	.byte	$50
	.byte	$50
	.byte	$50
	.byte	$50
	.byte	$50
	.byte	$50
	.byte	$50
	.byte	$50
	.byte	$50
	.byte	$50
	.byte	$50
	.byte	$50
	.byte	$50
	.byte	$50
	.byte	$50
	.byte	$50
	.byte	$50
	.byte	$50
	.byte	$50
	.byte	$50
	.byte	$50
	.byte	$50
	.byte	$50
	.byte	$50
	.byte	$50
	.byte	$50
	.byte	$50
	.byte	$50
	.byte	$50
	.byte	$50
	.byte	$50
	.byte	$50
	.byte	$50
	.byte	$50
	.byte	$DD
	.byte	$DC
	.byte	$DC
	.byte	$DC
	.byte	$DE
	.byte	$50
	.byte	$50
	.byte	$50
	.byte	$50
	.byte	$50
	.byte	$50
	.byte	$50
	.byte	$50
	.byte	$50
	.byte	$50
	.byte	$50
	.byte	$50
	.byte	$50
	.byte	$50
	.byte	$50
	.byte	$50
	.byte	$50
	.byte	$50
	.byte	$50
	.byte	$50
	.byte	$50
	.byte	$50
	.byte	$50
	.byte	$50
	.byte	$50
	.byte	$50
	.byte	$50
	.byte	$50
	.byte	$50
	.byte	$50
	.byte	$50
	.byte	$50
	.byte	$50
	.byte	$50
	.byte	$50
	.byte	$50
	.byte	$50
	.byte	$50
	.byte	$50
	.byte	$50
	.byte	$50
	.byte	$50
	.byte	$50
	.byte	$50
	.byte	$50
	.byte	$50
	.byte	$50
	.byte	$50
	.byte	$DD
	.byte	$DC
	.byte	$DC
	.byte	$DE
	.byte	$50
	.byte	$50
	.byte	$50
	.byte	$50
	.byte	$50
	.byte	$50
	.byte	$50
	.byte	$50
	.byte	$50
	.byte	$50
	.byte	$50
	.byte	$50
	.byte	$50
	.byte	$50
	.byte	$50
	.byte	$50
	.byte	$50
	.byte	$50
	.byte	$50
	.byte	$50
	.byte	$DC
	.byte	$DC
	.byte	$DC
	.byte	$DE
	.byte	$50
	.byte	$50
	.byte	$50
	.byte	$50
	.byte	$50
	.byte	$50
	.byte	$50
	.byte	$50
	.byte	$50
	.byte	$50
	.byte	$50
	.byte	$50
	.byte	$50
	.byte	$50
	.byte	$50
	.byte	$50
	.byte	$50
	.byte	$50
	.byte	$50
	.byte	$50
	.byte	$50
	.byte	$50
	.byte	$50
	.byte	$50
	.byte	$50
	.byte	$50
	.byte	$50
	.byte	$50
	.byte	$50
	.byte	$50
	.byte	$50
	.byte	$50
	.byte	$50
	.byte	$50
	.byte	$50
	.byte	$50
	.byte	$50
	.byte	$50
	.byte	$50
	.byte	$DD
	.byte	$DC
	.byte	$DC
	.byte	$DE
	.byte	$50
	.byte	$50
	.byte	$50
	.byte	$50
	.byte	$50
	.byte	$50
	.byte	$DD
	.byte	$DC
	.byte	$DC
	.byte	$DC
	.byte	$DE
	.byte	$50
	.byte	$50
	.byte	$50
	.byte	$50
	.byte	$50
	.byte	$50
	.byte	$50
	.byte	$50
	.byte	$50
	.byte	$50
	.byte	$50
	.byte	$50
	.byte	$50
	.byte	$50
	.byte	$50
	.byte	$50
	.byte	$50
	.byte	$50
	.byte	$50
	.byte	$50
	.byte	$50
	.byte	$50
	.byte	$50
	.byte	$50
	.byte	$50
	.byte	$50
	.byte	$50
	.byte	$AC
	.byte	$AD
	.byte	$50
	.byte	$50
	.byte	$50
	.byte	$AC
	.byte	$50
	.byte	$50
	.byte	$50
	.byte	$50
	.byte	$50
	.byte	$C7
	.byte	$C7
	.byte	$C7
	.byte	$0F
	.byte	$06
	.byte	$07
	.byte	$06
	.byte	$08
	.byte	$07
	.byte	$05
	.byte	$08
	.byte	$3E
	.byte	$50
	.byte	$50
	.byte	$50
	.byte	$50
	.byte	$3F
	.byte	$3F
	.byte	$3F
	.byte	$10
	.byte	$03
	.byte	$10
	.byte	$03
	.byte	$3A
	.byte	$3B
	.byte	$02
	.byte	$10
	.byte	$3E
	.byte	$50
	.byte	$50
	.byte	$50
	.byte	$50
_level3_0:
	.byte	$10
	.byte	$3C
	.byte	$01
	.byte	$00
	.byte	$01
	.byte	$3C
	.byte	$10
	.byte	$00
	.byte	$01
	.byte	$00
	.byte	$01
	.byte	$3D
	.byte	$E3
	.byte	$50
	.byte	$50
	.byte	$50
	.byte	$3A
	.byte	$3B
	.byte	$03
	.byte	$02
	.byte	$03
	.byte	$3A
	.byte	$3B
	.byte	$02
	.byte	$03
	.byte	$02
	.byte	$03
	.byte	$3D
	.byte	$C8
	.byte	$E3
	.byte	$50
	.byte	$50
	.byte	$00
	.byte	$12
	.byte	$00
	.byte	$12
	.byte	$3C
	.byte	$12
	.byte	$11
	.byte	$01
	.byte	$10
	.byte	$00
	.byte	$01
	.byte	$3D
	.byte	$CE
	.byte	$C8
	.byte	$0E
	.byte	$0D
	.byte	$00
	.byte	$01
	.byte	$13
	.byte	$16
	.byte	$15
	.byte	$51
	.byte	$51
	.byte	$CB
	.byte	$1B
	.byte	$02
	.byte	$13
	.byte	$3D
	.byte	$51
	.byte	$51
	.byte	$10
	.byte	$3C
	.byte	$02
	.byte	$03
	.byte	$15
	.byte	$51
	.byte	$51
	.byte	$CE
	.byte	$51
	.byte	$51
	.byte	$51
	.byte	$51
	.byte	$CA
	.byte	$51
	.byte	$51
	.byte	$CF
	.byte	$3A
	.byte	$3B
	.byte	$00
	.byte	$11
	.byte	$CF
	.byte	$51
	.byte	$51
	.byte	$51
	.byte	$51
	.byte	$51
	.byte	$51
	.byte	$51
	.byte	$51
	.byte	$51
	.byte	$CE
	.byte	$51
	.byte	$10
	.byte	$12
	.byte	$02
	.byte	$3C
	.byte	$51
	.byte	$51
	.byte	$CA
	.byte	$51
	.byte	$CD
	.byte	$51
	.byte	$CE
	.byte	$51
	.byte	$51
	.byte	$51
	.byte	$51
	.byte	$51
	.byte	$00
	.byte	$01
	.byte	$00
	.byte	$01
	.byte	$51
	.byte	$51
	.byte	$51
	.byte	$51
	.byte	$51
	.byte	$51
	.byte	$51
	.byte	$CD
	.byte	$51
	.byte	$51
	.byte	$0E
	.byte	$0C
	.byte	$02
	.byte	$03
	.byte	$02
	.byte	$03
	.byte	$51
	.byte	$51
	.byte	$51
	.byte	$CA
	.byte	$51
	.byte	$51
	.byte	$51
	.byte	$51
	.byte	$51
	.byte	$CD
	.byte	$3A
	.byte	$3B
	.byte	$01
	.byte	$10
	.byte	$3C
	.byte	$01
	.byte	$CA
	.byte	$3E
	.byte	$0E
	.byte	$06
	.byte	$06
	.byte	$07
	.byte	$08
	.byte	$09
	.byte	$0A
	.byte	$0D
	.byte	$10
	.byte	$01
	.byte	$02
	.byte	$01
	.byte	$10
	.byte	$03
	.byte	$51
	.byte	$3D
	.byte	$10
	.byte	$03
	.byte	$02
	.byte	$3C
	.byte	$01
	.byte	$3C
	.byte	$10
	.byte	$3A
	.byte	$3B
	.byte	$03
	.byte	$00
	.byte	$03
	.byte	$01
	.byte	$14
	.byte	$51
	.byte	$3D
	.byte	$51
	.byte	$51
	.byte	$19
	.byte	$16
	.byte	$17
	.byte	$11
	.byte	$10
	.byte	$12
	.byte	$11
	.byte	$01
	.byte	$17
	.byte	$19
	.byte	$03
	.byte	$15
	.byte	$51
	.byte	$3D
	.byte	$51
	.byte	$C9
	.byte	$51
	.byte	$51
	.byte	$51
	.byte	$CA
	.byte	$1A
	.byte	$14
	.byte	$CF
	.byte	$51
	.byte	$51
	.byte	$51
	.byte	$10
	.byte	$CF
	.byte	$51
	.byte	$3D
	.byte	$51
	.byte	$CC
	.byte	$CD
	.byte	$51
	.byte	$51
	.byte	$51
	.byte	$51
	.byte	$51
	.byte	$51
	.byte	$51
	.byte	$51
	.byte	$CE
	.byte	$3C
	.byte	$51
	.byte	$51
	.byte	$3D
	.byte	$51
	.byte	$51
	.byte	$51
	.byte	$CF
	.byte	$51
	.byte	$51
	.byte	$51
	.byte	$CA
	.byte	$51
	.byte	$CB
	.byte	$51
	.byte	$51
_level4_0:
	.byte	$3C
	.byte	$CE
	.byte	$51
	.byte	$3D
	.byte	$CB
	.byte	$CE
	.byte	$51
	.byte	$51
	.byte	$CB
	.byte	$C9
	.byte	$CA
	.byte	$10
	.byte	$00
	.byte	$01
	.byte	$10
	.byte	$12
	.byte	$10
	.byte	$51
	.byte	$51
	.byte	$3D
	.byte	$51
	.byte	$51
	.byte	$51
	.byte	$CD
	.byte	$51
	.byte	$51
	.byte	$CE
	.byte	$19
	.byte	$02
	.byte	$03
	.byte	$11
	.byte	$10
	.byte	$01
	.byte	$CA
	.byte	$51
	.byte	$3D
	.byte	$CD
	.byte	$C9
	.byte	$CE
	.byte	$51
	.byte	$CE
	.byte	$51
	.byte	$51
	.byte	$51
	.byte	$16
	.byte	$10
	.byte	$10
	.byte	$3A
	.byte	$02
	.byte	$0F
	.byte	$0D
	.byte	$3D
	.byte	$51
	.byte	$51
	.byte	$51
	.byte	$51
	.byte	$51
	.byte	$51
	.byte	$CB
	.byte	$C9
	.byte	$CE
	.byte	$19
	.byte	$18
	.byte	$10
	.byte	$12
	.byte	$10
	.byte	$3C
	.byte	$3D
	.byte	$CA
	.byte	$CE
	.byte	$CA
	.byte	$51
	.byte	$CF
	.byte	$51
	.byte	$51
	.byte	$51
	.byte	$CE
	.byte	$51
	.byte	$51
	.byte	$1A
	.byte	$00
	.byte	$01
	.byte	$11
	.byte	$3D
	.byte	$51
	.byte	$CF
	.byte	$51
	.byte	$51
	.byte	$51
	.byte	$CE
	.byte	$CD
	.byte	$CA
	.byte	$51
	.byte	$51
	.byte	$CD
	.byte	$51
	.byte	$02
	.byte	$03
	.byte	$00
	.byte	$0E
	.byte	$0B
	.byte	$06
	.byte	$05
	.byte	$0D
	.byte	$51
	.byte	$51
	.byte	$CA
	.byte	$51
	.byte	$CD
	.byte	$51
	.byte	$51
	.byte	$51
	.byte	$00
	.byte	$01
	.byte	$02
	.byte	$03
	.byte	$10
	.byte	$02
	.byte	$02
	.byte	$10
	.byte	$51
	.byte	$C9
	.byte	$CE
	.byte	$51
	.byte	$51
	.byte	$51
	.byte	$51
	.byte	$51
	.byte	$02
	.byte	$03
	.byte	$00
	.byte	$01
	.byte	$00
	.byte	$10
	.byte	$10
	.byte	$11
	.byte	$CC
	.byte	$CD
	.byte	$51
	.byte	$51
	.byte	$51
	.byte	$C9
	.byte	$CA
	.byte	$51
	.byte	$00
	.byte	$01
	.byte	$02
	.byte	$03
	.byte	$02
	.byte	$00
	.byte	$01
	.byte	$01
	.byte	$0E
	.byte	$07
	.byte	$08
	.byte	$09
	.byte	$0A
	.byte	$0B
	.byte	$0C
	.byte	$CA
	.byte	$26
	.byte	$03
	.byte	$00
	.byte	$01
	.byte	$10
	.byte	$02
	.byte	$03
	.byte	$02
	.byte	$3A
	.byte	$3B
	.byte	$01
	.byte	$00
	.byte	$12
	.byte	$01
	.byte	$11
	.byte	$CF
	.byte	$20
	.byte	$26
	.byte	$02
	.byte	$03
	.byte	$12
	.byte	$10
	.byte	$00
	.byte	$3A
	.byte	$3B
	.byte	$10
	.byte	$03
	.byte	$02
	.byte	$10
	.byte	$03
	.byte	$3C
	.byte	$51
	.byte	$20
	.byte	$20
	.byte	$21
	.byte	$26
	.byte	$10
	.byte	$11
	.byte	$10
	.byte	$12
	.byte	$11
	.byte	$10
	.byte	$11
	.byte	$01
	.byte	$10
	.byte	$3C
	.byte	$01
	.byte	$51
	.byte	$20
	.byte	$20
	.byte	$20
	.byte	$20
	.byte	$21
	.byte	$26
	.byte	$11
	.byte	$10
	.byte	$00
	.byte	$01
	.byte	$10
	.byte	$10
	.byte	$00
	.byte	$01
	.byte	$10
	.byte	$0E
	.byte	$20
	.byte	$20
	.byte	$20
	.byte	$20
	.byte	$20
	.byte	$20
	.byte	$21
	.byte	$21
	.byte	$21
	.byte	$21
	.byte	$26
	.byte	$01
	.byte	$02
	.byte	$03
	.byte	$00
	.byte	$01
_level4_1:
	.byte	$10
	.byte	$11
	.byte	$1E
	.byte	$1F
	.byte	$50
	.byte	$50
	.byte	$50
	.byte	$50
	.byte	$50
	.byte	$50
	.byte	$50
	.byte	$50
	.byte	$50
	.byte	$50
	.byte	$50
	.byte	$50
	.byte	$3C
	.byte	$00
	.byte	$01
	.byte	$1E
	.byte	$50
	.byte	$50
	.byte	$50
	.byte	$50
	.byte	$50
	.byte	$50
	.byte	$50
	.byte	$50
	.byte	$50
	.byte	$50
	.byte	$50
	.byte	$50
	.byte	$3B
	.byte	$02
	.byte	$03
	.byte	$10
	.byte	$50
	.byte	$50
	.byte	$DD
	.byte	$DC
	.byte	$DC
	.byte	$DE
	.byte	$50
	.byte	$50
	.byte	$50
	.byte	$50
	.byte	$50
	.byte	$50
	.byte	$00
	.byte	$01
	.byte	$00
	.byte	$01
	.byte	$1F
	.byte	$50
	.byte	$50
	.byte	$50
	.byte	$50
	.byte	$50
	.byte	$50
	.byte	$50
	.byte	$50
	.byte	$50
	.byte	$50
	.byte	$50
	.byte	$02
	.byte	$03
	.byte	$02
	.byte	$03
	.byte	$1E
	.byte	$1F
	.byte	$50
	.byte	$50
	.byte	$50
	.byte	$50
	.byte	$50
	.byte	$50
	.byte	$50
	.byte	$50
	.byte	$50
	.byte	$50
	.byte	$1A
	.byte	$10
	.byte	$10
	.byte	$00
	.byte	$01
	.byte	$1E
	.byte	$50
	.byte	$50
	.byte	$50
	.byte	$50
	.byte	$50
	.byte	$50
	.byte	$C5
	.byte	$D1
	.byte	$D3
	.byte	$E1
	.byte	$CE
	.byte	$51
	.byte	$1A
	.byte	$02
	.byte	$03
	.byte	$11
	.byte	$50
	.byte	$50
	.byte	$50
	.byte	$50
	.byte	$50
	.byte	$D0
	.byte	$D5
	.byte	$D4
	.byte	$D7
	.byte	$ED
	.byte	$51
	.byte	$51
	.byte	$51
	.byte	$1A
	.byte	$11
	.byte	$14
	.byte	$E3
	.byte	$50
	.byte	$50
	.byte	$D1
	.byte	$D2
	.byte	$D5
	.byte	$D6
	.byte	$D4
	.byte	$D9
	.byte	$DB
	.byte	$51
	.byte	$CE
	.byte	$51
	.byte	$51
	.byte	$51
	.byte	$CB
	.byte	$C8
	.byte	$E4
	.byte	$E5
	.byte	$D4
	.byte	$D4
	.byte	$D6
	.byte	$D6
	.byte	$D6
	.byte	$D4
	.byte	$DA
	.byte	$51
	.byte	$51
	.byte	$51
	.byte	$C9
	.byte	$CE
	.byte	$C8
	.byte	$51
	.byte	$EB
	.byte	$C8
	.byte	$E7
	.byte	$DF
	.byte	$D6
	.byte	$D6
	.byte	$D6
	.byte	$D6
	.byte	$D8
	.byte	$CA
	.byte	$CA
	.byte	$51
	.byte	$CB
	.byte	$CE
	.byte	$51
	.byte	$CE
	.byte	$51
	.byte	$C8
	.byte	$CF
	.byte	$C8
	.byte	$A4
	.byte	$B3
	.byte	$AA
	.byte	$A9
	.byte	$AA
	.byte	$51
	.byte	$51
	.byte	$51
	.byte	$51
	.byte	$51
	.byte	$51
	.byte	$51
	.byte	$51
	.byte	$51
	.byte	$51
	.byte	$CF
	.byte	$EB
	.byte	$A4
	.byte	$A1
	.byte	$B0
	.byte	$7E
	.byte	$CE
	.byte	$51
	.byte	$51
	.byte	$CF
	.byte	$51
	.byte	$51
	.byte	$CF
	.byte	$51
	.byte	$51
	.byte	$CA
	.byte	$51
	.byte	$54
	.byte	$A3
	.byte	$A2
	.byte	$A7
	.byte	$5C
	.byte	$05
	.byte	$04
	.byte	$0A
	.byte	$0B
	.byte	$07
	.byte	$05
	.byte	$04
	.byte	$05
	.byte	$07
	.byte	$09
	.byte	$05
	.byte	$0D
	.byte	$35
	.byte	$33
	.byte	$33
	.byte	$34
	.byte	$02
	.byte	$3C
	.byte	$02
	.byte	$01
	.byte	$10
	.byte	$02
	.byte	$00
	.byte	$02
	.byte	$10
	.byte	$00
	.byte	$12
	.byte	$37
	.byte	$37
	.byte	$37
	.byte	$37
	.byte	$37
_level4_2:
	.byte	$50
	.byte	$50
	.byte	$50
	.byte	$50
	.byte	$50
	.byte	$50
	.byte	$50
	.byte	$50
	.byte	$50
	.byte	$50
	.byte	$50
	.byte	$50
	.byte	$50
	.byte	$50
	.byte	$50
	.byte	$96
	.byte	$DD
	.byte	$DC
	.byte	$DE
	.byte	$50
	.byte	$50
	.byte	$50
	.byte	$50
	.byte	$50
	.byte	$50
	.byte	$50
	.byte	$50
	.byte	$50
	.byte	$50
	.byte	$50
	.byte	$95
	.byte	$93
	.byte	$50
	.byte	$50
	.byte	$50
	.byte	$50
	.byte	$50
	.byte	$50
	.byte	$50
	.byte	$50
	.byte	$50
	.byte	$50
	.byte	$DD
	.byte	$DC
	.byte	$DC
	.byte	$DE
	.byte	$92
	.byte	$92
	.byte	$50
	.byte	$50
	.byte	$50
	.byte	$50
	.byte	$50
	.byte	$50
	.byte	$50
	.byte	$50
	.byte	$50
	.byte	$50
	.byte	$50
	.byte	$50
	.byte	$50
	.byte	$50
	.byte	$90
	.byte	$92
	.byte	$50
	.byte	$50
	.byte	$50
	.byte	$50
	.byte	$50
	.byte	$50
	.byte	$50
	.byte	$50
	.byte	$50
	.byte	$50
	.byte	$50
	.byte	$50
	.byte	$50
	.byte	$50
	.byte	$92
	.byte	$92
	.byte	$E2
	.byte	$50
	.byte	$50
	.byte	$DD
	.byte	$DC
	.byte	$DE
	.byte	$50
	.byte	$50
	.byte	$50
	.byte	$50
	.byte	$50
	.byte	$50
	.byte	$50
	.byte	$50
	.byte	$85
	.byte	$93
	.byte	$EB
	.byte	$E3
	.byte	$50
	.byte	$50
	.byte	$50
	.byte	$50
	.byte	$50
	.byte	$50
	.byte	$50
	.byte	$50
	.byte	$50
	.byte	$50
	.byte	$50
	.byte	$50
	.byte	$9B
	.byte	$85
	.byte	$EF
	.byte	$EB
	.byte	$E3
	.byte	$50
	.byte	$50
	.byte	$D1
	.byte	$D3
	.byte	$E3
	.byte	$50
	.byte	$50
	.byte	$50
	.byte	$50
	.byte	$DD
	.byte	$DE
	.byte	$50
	.byte	$9B
	.byte	$DB
	.byte	$ED
	.byte	$EB
	.byte	$E4
	.byte	$E5
	.byte	$D5
	.byte	$D9
	.byte	$EF
	.byte	$E3
	.byte	$D1
	.byte	$D3
	.byte	$E4
	.byte	$E2
	.byte	$50
	.byte	$50
	.byte	$66
	.byte	$DB
	.byte	$DB
	.byte	$EF
	.byte	$E9
	.byte	$EB
	.byte	$E7
	.byte	$E6
	.byte	$D8
	.byte	$EC
	.byte	$E7
	.byte	$E8
	.byte	$EF
	.byte	$EE
	.byte	$E4
	.byte	$E2
	.byte	$58
	.byte	$AA
	.byte	$B0
	.byte	$A7
	.byte	$B0
	.byte	$AB
	.byte	$A7
	.byte	$7E
	.byte	$78
	.byte	$5F
	.byte	$AA
	.byte	$B0
	.byte	$B0
	.byte	$A7
	.byte	$A8
	.byte	$4D
	.byte	$63
	.byte	$7F
	.byte	$5F
	.byte	$B0
	.byte	$AA
	.byte	$B0
	.byte	$B0
	.byte	$5C
	.byte	$8C
	.byte	$5E
	.byte	$B0
	.byte	$A7
	.byte	$B0
	.byte	$B0
	.byte	$AB
	.byte	$4A
	.byte	$B4
	.byte	$8C
	.byte	$5E
	.byte	$AB
	.byte	$A7
	.byte	$B0
	.byte	$AA
	.byte	$AA
	.byte	$B0
	.byte	$A7
	.byte	$B0
	.byte	$AB
	.byte	$B0
	.byte	$AA
	.byte	$A7
	.byte	$B5
	.byte	$4A
	.byte	$34
	.byte	$33
	.byte	$33
	.byte	$34
	.byte	$34
	.byte	$34
	.byte	$34
	.byte	$34
	.byte	$34
	.byte	$34
	.byte	$34
	.byte	$33
	.byte	$34
	.byte	$33
	.byte	$33
	.byte	$34
	.byte	$37
	.byte	$37
	.byte	$37
	.byte	$37
	.byte	$37
	.byte	$37
	.byte	$37
	.byte	$37
	.byte	$37
	.byte	$37
	.byte	$37
	.byte	$37
	.byte	$37
	.byte	$37
	.byte	$37
	.byte	$37
_level4_3:
	.byte	$92
	.byte	$92
	.byte	$8E
	.byte	$91
	.byte	$99
	.byte	$7B
	.byte	$50
	.byte	$50
	.byte	$1D
	.byte	$1C
	.byte	$10
	.byte	$11
	.byte	$10
	.byte	$11
	.byte	$10
	.byte	$3A
	.byte	$92
	.byte	$93
	.byte	$92
	.byte	$8F
	.byte	$91
	.byte	$99
	.byte	$50
	.byte	$1D
	.byte	$1C
	.byte	$12
	.byte	$3A
	.byte	$3B
	.byte	$01
	.byte	$10
	.byte	$11
	.byte	$10
	.byte	$91
	.byte	$91
	.byte	$92
	.byte	$8E
	.byte	$93
	.byte	$8E
	.byte	$50
	.byte	$1C
	.byte	$02
	.byte	$11
	.byte	$10
	.byte	$10
	.byte	$03
	.byte	$00
	.byte	$01
	.byte	$10
	.byte	$93
	.byte	$92
	.byte	$92
	.byte	$8F
	.byte	$91
	.byte	$8F
	.byte	$1D
	.byte	$02
	.byte	$10
	.byte	$00
	.byte	$01
	.byte	$10
	.byte	$10
	.byte	$02
	.byte	$03
	.byte	$10
	.byte	$92
	.byte	$91
	.byte	$90
	.byte	$8F
	.byte	$93
	.byte	$8E
	.byte	$1C
	.byte	$10
	.byte	$10
	.byte	$02
	.byte	$03
	.byte	$00
	.byte	$01
	.byte	$10
	.byte	$10
	.byte	$3C
	.byte	$92
	.byte	$91
	.byte	$8E
	.byte	$93
	.byte	$91
	.byte	$8F
	.byte	$02
	.byte	$00
	.byte	$01
	.byte	$3A
	.byte	$3B
	.byte	$02
	.byte	$03
	.byte	$11
	.byte	$10
	.byte	$10
	.byte	$8B
	.byte	$8B
	.byte	$88
	.byte	$88
	.byte	$8C
	.byte	$8B
	.byte	$10
	.byte	$02
	.byte	$03
	.byte	$12
	.byte	$11
	.byte	$10
	.byte	$10
	.byte	$10
	.byte	$14
	.byte	$51
	.byte	$62
	.byte	$9C
	.byte	$6A
	.byte	$73
	.byte	$9C
	.byte	$9B
	.byte	$1B
	.byte	$3A
	.byte	$3B
	.byte	$3A
	.byte	$3B
	.byte	$10
	.byte	$13
	.byte	$16
	.byte	$CF
	.byte	$51
	.byte	$61
	.byte	$67
	.byte	$68
	.byte	$70
	.byte	$77
	.byte	$50
	.byte	$9B
	.byte	$18
	.byte	$10
	.byte	$16
	.byte	$10
	.byte	$14
	.byte	$51
	.byte	$51
	.byte	$51
	.byte	$51
	.byte	$61
	.byte	$58
	.byte	$68
	.byte	$70
	.byte	$58
	.byte	$58
	.byte	$58
	.byte	$EB
	.byte	$CE
	.byte	$51
	.byte	$CE
	.byte	$51
	.byte	$CB
	.byte	$51
	.byte	$51
	.byte	$C3
	.byte	$64
	.byte	$65
	.byte	$68
	.byte	$55
	.byte	$75
	.byte	$51
	.byte	$53
	.byte	$C8
	.byte	$51
	.byte	$51
	.byte	$51
	.byte	$51
	.byte	$51
	.byte	$51
	.byte	$C1
	.byte	$C0
	.byte	$55
	.byte	$6B
	.byte	$6C
	.byte	$6D
	.byte	$57
	.byte	$51
	.byte	$57
	.byte	$C8
	.byte	$C8
	.byte	$51
	.byte	$51
	.byte	$CE
	.byte	$CF
	.byte	$51
	.byte	$51
	.byte	$C4
	.byte	$B4
	.byte	$55
	.byte	$51
	.byte	$53
	.byte	$57
	.byte	$57
	.byte	$53
	.byte	$51
	.byte	$53
	.byte	$C8
	.byte	$CB
	.byte	$51
	.byte	$51
	.byte	$51
	.byte	$51
	.byte	$51
	.byte	$33
	.byte	$36
	.byte	$0E
	.byte	$04
	.byte	$07
	.byte	$06
	.byte	$07
	.byte	$08
	.byte	$09
	.byte	$0A
	.byte	$0B
	.byte	$04
	.byte	$09
	.byte	$06
	.byte	$07
	.byte	$08
	.byte	$37
	.byte	$37
	.byte	$37
	.byte	$10
	.byte	$10
	.byte	$03
	.byte	$12
	.byte	$13
	.byte	$12
	.byte	$13
	.byte	$11
	.byte	$12
	.byte	$10
	.byte	$03
	.byte	$10
	.byte	$11
_level4_4:
	.byte	$3B
	.byte	$00
	.byte	$3A
	.byte	$3B
	.byte	$01
	.byte	$00
	.byte	$01
	.byte	$10
	.byte	$00
	.byte	$01
	.byte	$00
	.byte	$3D
	.byte	$00
	.byte	$3A
	.byte	$3B
	.byte	$01
	.byte	$11
	.byte	$02
	.byte	$10
	.byte	$13
	.byte	$03
	.byte	$02
	.byte	$03
	.byte	$18
	.byte	$02
	.byte	$03
	.byte	$02
	.byte	$3D
	.byte	$02
	.byte	$10
	.byte	$3C
	.byte	$03
	.byte	$3C
	.byte	$01
	.byte	$14
	.byte	$CF
	.byte	$19
	.byte	$51
	.byte	$51
	.byte	$51
	.byte	$CB
	.byte	$51
	.byte	$1A
	.byte	$3D
	.byte	$14
	.byte	$1A
	.byte	$00
	.byte	$01
	.byte	$10
	.byte	$10
	.byte	$51
	.byte	$51
	.byte	$51
	.byte	$CF
	.byte	$51
	.byte	$C3
	.byte	$51
	.byte	$51
	.byte	$CB
	.byte	$3D
	.byte	$CA
	.byte	$51
	.byte	$02
	.byte	$10
	.byte	$10
	.byte	$51
	.byte	$CA
	.byte	$51
	.byte	$51
	.byte	$51
	.byte	$C1
	.byte	$C0
	.byte	$C2
	.byte	$51
	.byte	$51
	.byte	$3D
	.byte	$51
	.byte	$CF
	.byte	$00
	.byte	$01
	.byte	$18
	.byte	$51
	.byte	$CC
	.byte	$51
	.byte	$CE
	.byte	$51
	.byte	$51
	.byte	$C4
	.byte	$51
	.byte	$CF
	.byte	$51
	.byte	$3D
	.byte	$51
	.byte	$51
	.byte	$02
	.byte	$03
	.byte	$51
	.byte	$51
	.byte	$51
	.byte	$51
	.byte	$51
	.byte	$51
	.byte	$CA
	.byte	$51
	.byte	$51
	.byte	$51
	.byte	$51
	.byte	$3D
	.byte	$CE
	.byte	$11
	.byte	$00
	.byte	$01
	.byte	$51
	.byte	$CE
	.byte	$51
	.byte	$51
	.byte	$3E
	.byte	$0E
	.byte	$07
	.byte	$04
	.byte	$08
	.byte	$04
	.byte	$07
	.byte	$04
	.byte	$0D
	.byte	$00
	.byte	$02
	.byte	$01
	.byte	$51
	.byte	$CB
	.byte	$CE
	.byte	$51
	.byte	$3D
	.byte	$12
	.byte	$10
	.byte	$3C
	.byte	$01
	.byte	$10
	.byte	$3C
	.byte	$11
	.byte	$10
	.byte	$02
	.byte	$00
	.byte	$03
	.byte	$51
	.byte	$51
	.byte	$51
	.byte	$51
	.byte	$3D
	.byte	$15
	.byte	$CE
	.byte	$51
	.byte	$51
	.byte	$CE
	.byte	$1A
	.byte	$00
	.byte	$00
	.byte	$01
	.byte	$00
	.byte	$25
	.byte	$C2
	.byte	$51
	.byte	$51
	.byte	$51
	.byte	$3D
	.byte	$CA
	.byte	$51
	.byte	$51
	.byte	$51
	.byte	$51
	.byte	$51
	.byte	$1A
	.byte	$02
	.byte	$03
	.byte	$25
	.byte	$20
	.byte	$51
	.byte	$CF
	.byte	$51
	.byte	$51
	.byte	$3D
	.byte	$51
	.byte	$51
	.byte	$51
	.byte	$CF
	.byte	$51
	.byte	$51
	.byte	$10
	.byte	$00
	.byte	$00
	.byte	$23
	.byte	$20
	.byte	$51
	.byte	$51
	.byte	$51
	.byte	$CB
	.byte	$3D
	.byte	$51
	.byte	$CA
	.byte	$51
	.byte	$51
	.byte	$51
	.byte	$10
	.byte	$00
	.byte	$02
	.byte	$25
	.byte	$20
	.byte	$20
	.byte	$09
	.byte	$05
	.byte	$09
	.byte	$07
	.byte	$04
	.byte	$04
	.byte	$06
	.byte	$08
	.byte	$0D
	.byte	$3C
	.byte	$00
	.byte	$25
	.byte	$21
	.byte	$20
	.byte	$20
	.byte	$20
	.byte	$10
	.byte	$03
	.byte	$12
	.byte	$10
	.byte	$11
	.byte	$12
	.byte	$03
	.byte	$10
	.byte	$11
	.byte	$10
	.byte	$25
	.byte	$20
	.byte	$20
	.byte	$20
	.byte	$20
	.byte	$20
_level5_0:
	.byte	$00
	.byte	$00
	.byte	$10
	.byte	$11
	.byte	$12
	.byte	$00
	.byte	$3C
	.byte	$00
	.byte	$3C
	.byte	$01
	.byte	$51
	.byte	$3D
	.byte	$3C
	.byte	$00
	.byte	$01
	.byte	$10
	.byte	$10
	.byte	$02
	.byte	$00
	.byte	$10
	.byte	$00
	.byte	$02
	.byte	$3C
	.byte	$02
	.byte	$10
	.byte	$01
	.byte	$CE
	.byte	$3D
	.byte	$10
	.byte	$02
	.byte	$03
	.byte	$01
	.byte	$02
	.byte	$10
	.byte	$02
	.byte	$3C
	.byte	$02
	.byte	$10
	.byte	$3C
	.byte	$3A
	.byte	$3B
	.byte	$03
	.byte	$51
	.byte	$3D
	.byte	$11
	.byte	$3A
	.byte	$3B
	.byte	$03
	.byte	$00
	.byte	$01
	.byte	$01
	.byte	$00
	.byte	$10
	.byte	$00
	.byte	$01
	.byte	$01
	.byte	$10
	.byte	$14
	.byte	$51
	.byte	$3D
	.byte	$00
	.byte	$10
	.byte	$3C
	.byte	$00
	.byte	$02
	.byte	$3A
	.byte	$3B
	.byte	$02
	.byte	$10
	.byte	$02
	.byte	$03
	.byte	$03
	.byte	$18
	.byte	$CE
	.byte	$51
	.byte	$3D
	.byte	$02
	.byte	$3A
	.byte	$3B
	.byte	$02
	.byte	$10
	.byte	$00
	.byte	$01
	.byte	$00
	.byte	$00
	.byte	$00
	.byte	$14
	.byte	$51
	.byte	$C3
	.byte	$51
	.byte	$51
	.byte	$3D
	.byte	$00
	.byte	$01
	.byte	$00
	.byte	$01
	.byte	$12
	.byte	$02
	.byte	$03
	.byte	$10
	.byte	$03
	.byte	$02
	.byte	$CA
	.byte	$C1
	.byte	$C0
	.byte	$C2
	.byte	$51
	.byte	$3D
	.byte	$02
	.byte	$03
	.byte	$02
	.byte	$03
	.byte	$00
	.byte	$01
	.byte	$00
	.byte	$10
	.byte	$01
	.byte	$00
	.byte	$51
	.byte	$51
	.byte	$C4
	.byte	$51
	.byte	$CB
	.byte	$3D
	.byte	$3A
	.byte	$3B
	.byte	$10
	.byte	$01
	.byte	$02
	.byte	$10
	.byte	$02
	.byte	$10
	.byte	$03
	.byte	$02
	.byte	$10
	.byte	$CA
	.byte	$51
	.byte	$51
	.byte	$51
	.byte	$3D
	.byte	$3C
	.byte	$10
	.byte	$10
	.byte	$03
	.byte	$10
	.byte	$01
	.byte	$10
	.byte	$01
	.byte	$3C
	.byte	$3B
	.byte	$00
	.byte	$01
	.byte	$11
	.byte	$CF
	.byte	$51
	.byte	$3D
	.byte	$00
	.byte	$01
	.byte	$00
	.byte	$01
	.byte	$02
	.byte	$03
	.byte	$10
	.byte	$03
	.byte	$10
	.byte	$10
	.byte	$02
	.byte	$02
	.byte	$11
	.byte	$10
	.byte	$51
	.byte	$3D
	.byte	$02
	.byte	$03
	.byte	$02
	.byte	$10
	.byte	$10
	.byte	$3C
	.byte	$00
	.byte	$01
	.byte	$00
	.byte	$01
	.byte	$00
	.byte	$10
	.byte	$00
	.byte	$01
	.byte	$51
	.byte	$3D
	.byte	$00
	.byte	$01
	.byte	$00
	.byte	$01
	.byte	$3C
	.byte	$10
	.byte	$02
	.byte	$03
	.byte	$02
	.byte	$03
	.byte	$10
	.byte	$03
	.byte	$02
	.byte	$03
	.byte	$51
	.byte	$3D
	.byte	$02
	.byte	$3A
	.byte	$3B
	.byte	$03
	.byte	$10
	.byte	$10
	.byte	$12
	.byte	$01
	.byte	$3C
	.byte	$10
	.byte	$10
	.byte	$01
	.byte	$10
	.byte	$01
	.byte	$CF
	.byte	$3D
	.byte	$00
	.byte	$01
	.byte	$00
	.byte	$01
	.byte	$11
	.byte	$3C
	.byte	$10
	.byte	$03
	.byte	$3C
	.byte	$10
	.byte	$03
	.byte	$03
	.byte	$10
	.byte	$03
	.byte	$51
	.byte	$3D
	.byte	$02
	.byte	$03
	.byte	$02
	.byte	$03
_level6_0:
	.byte	$02
	.byte	$02
	.byte	$3C
	.byte	$03
	.byte	$02
	.byte	$3A
	.byte	$3B
	.byte	$03
	.byte	$02
	.byte	$3C
	.byte	$10
	.byte	$02
	.byte	$03
	.byte	$3C
	.byte	$10
	.byte	$02
	.byte	$00
	.byte	$14
	.byte	$CF
	.byte	$CD
	.byte	$51
	.byte	$CE
	.byte	$51
	.byte	$51
	.byte	$51
	.byte	$CE
	.byte	$51
	.byte	$CD
	.byte	$51
	.byte	$CF
	.byte	$1A
	.byte	$00
	.byte	$02
	.byte	$CA
	.byte	$51
	.byte	$CB
	.byte	$51
	.byte	$51
	.byte	$51
	.byte	$CD
	.byte	$51
	.byte	$51
	.byte	$51
	.byte	$51
	.byte	$CB
	.byte	$51
	.byte	$CE
	.byte	$02
	.byte	$10
	.byte	$51
	.byte	$51
	.byte	$51
	.byte	$C3
	.byte	$51
	.byte	$CE
	.byte	$51
	.byte	$51
	.byte	$CB
	.byte	$51
	.byte	$C3
	.byte	$51
	.byte	$51
	.byte	$51
	.byte	$00
	.byte	$11
	.byte	$51
	.byte	$CC
	.byte	$C1
	.byte	$C0
	.byte	$C2
	.byte	$51
	.byte	$51
	.byte	$CF
	.byte	$51
	.byte	$C1
	.byte	$C0
	.byte	$C2
	.byte	$C9
	.byte	$51
	.byte	$02
	.byte	$12
	.byte	$CD
	.byte	$51
	.byte	$51
	.byte	$C4
	.byte	$51
	.byte	$CA
	.byte	$51
	.byte	$51
	.byte	$51
	.byte	$51
	.byte	$C4
	.byte	$51
	.byte	$CD
	.byte	$51
	.byte	$00
	.byte	$3C
	.byte	$51
	.byte	$CD
	.byte	$CC
	.byte	$51
	.byte	$51
	.byte	$51
	.byte	$51
	.byte	$CE
	.byte	$51
	.byte	$51
	.byte	$CB
	.byte	$51
	.byte	$51
	.byte	$51
	.byte	$02
	.byte	$00
	.byte	$51
	.byte	$CD
	.byte	$51
	.byte	$51
	.byte	$CD
	.byte	$51
	.byte	$51
	.byte	$51
	.byte	$51
	.byte	$CE
	.byte	$51
	.byte	$CF
	.byte	$51
	.byte	$CC
	.byte	$10
	.byte	$02
	.byte	$51
	.byte	$51
	.byte	$CC
	.byte	$51
	.byte	$51
	.byte	$CE
	.byte	$51
	.byte	$CD
	.byte	$51
	.byte	$51
	.byte	$C9
	.byte	$CA
	.byte	$CB
	.byte	$51
	.byte	$10
	.byte	$10
	.byte	$CF
	.byte	$51
	.byte	$51
	.byte	$CD
	.byte	$CF
	.byte	$51
	.byte	$51
	.byte	$51
	.byte	$CE
	.byte	$51
	.byte	$51
	.byte	$51
	.byte	$51
	.byte	$51
	.byte	$3A
	.byte	$3B
	.byte	$51
	.byte	$51
	.byte	$51
	.byte	$51
	.byte	$51
	.byte	$CD
	.byte	$51
	.byte	$CF
	.byte	$51
	.byte	$51
	.byte	$51
	.byte	$CD
	.byte	$51
	.byte	$CE
	.byte	$3C
	.byte	$12
	.byte	$51
	.byte	$CE
	.byte	$CD
	.byte	$CF
	.byte	$CD
	.byte	$51
	.byte	$CC
	.byte	$51
	.byte	$51
	.byte	$CF
	.byte	$51
	.byte	$51
	.byte	$CD
	.byte	$51
	.byte	$00
	.byte	$11
	.byte	$51
	.byte	$CC
	.byte	$CD
	.byte	$CB
	.byte	$51
	.byte	$51
	.byte	$51
	.byte	$51
	.byte	$51
	.byte	$51
	.byte	$CF
	.byte	$51
	.byte	$51
	.byte	$CF
	.byte	$02
	.byte	$10
	.byte	$CE
	.byte	$51
	.byte	$51
	.byte	$CA
	.byte	$51
	.byte	$51
	.byte	$CF
	.byte	$51
	.byte	$CD
	.byte	$51
	.byte	$51
	.byte	$CA
	.byte	$51
	.byte	$51
	.byte	$00
	.byte	$3C
	.byte	$0E
	.byte	$05
	.byte	$06
	.byte	$04
	.byte	$09
	.byte	$0A
	.byte	$05
	.byte	$04
	.byte	$05
	.byte	$04
	.byte	$3E
	.byte	$04
	.byte	$08
	.byte	$0D
	.byte	$02
_stage1_levels_list:
	.addr	_level0_0
	.addr	_level0_1
	.addr	_level0_2
	.addr	_level0_3
	.addr	_level0_4
	.addr	_level0_5
	.addr	_level0_6
	.addr	_level0_7
	.addr	_level1_0
	.addr	_level2_0
	.addr	_level2_1
	.addr	_level2_2
	.addr	_level2_3
	.addr	_level3_0
	.addr	_level4_0
	.addr	_level4_1
	.addr	_level4_2
	.addr	_level4_3
	.addr	_level4_4
	.addr	_level5_0
	.addr	_level6_0
_level_max_rooms:
	.byte	$08
	.byte	$01
	.byte	$04
	.byte	$01
	.byte	$05
	.byte	$01
	.byte	$01
_level_offsets:
	.byte	$00
	.byte	$08
	.byte	$09
	.byte	$0D
	.byte	$0E
	.byte	$13
	.byte	$14
	.byte	$15
_level_0_enemies:
	.byte	$C0
	.byte	$01
	.byte	$A0
	.byte	$00
	.byte	$80
	.byte	$03
	.byte	$10
	.byte	$00
	.byte	$80
	.byte	$05
	.byte	$50
	.byte	$00
	.byte	$40
	.byte	$06
	.byte	$20
	.byte	$00
	.byte	$40
	.byte	$07
	.byte	$90
	.byte	$00
	.byte	$FF
_level_1_enemies:
	.byte	$B0
	.byte	$00
	.byte	$70
	.byte	$00
	.byte	$30
	.byte	$00
	.byte	$A0
	.byte	$00
	.byte	$FF
_level_2_enemies:
	.byte	$A0
	.byte	$01
	.byte	$60
	.byte	$00
	.byte	$60
	.byte	$02
	.byte	$80
	.byte	$00
	.byte	$90
	.byte	$02
	.byte	$01
	.byte	$00
	.byte	$FF
_level_3_enemies:
	.byte	$80
	.byte	$00
	.byte	$B0
	.byte	$00
	.byte	$FF
_level_4_enemies:
	.byte	$80
	.byte	$00
	.byte	$E0
	.byte	$00
	.byte	$C0
	.byte	$01
	.byte	$B0
	.byte	$00
	.byte	$60
	.byte	$04
	.byte	$C0
	.byte	$00
	.byte	$FF
_level_5_enemies:
	.byte	$FF
_level_6_enemies:
	.byte	$FF
_Enemy_list:
	.addr	_level_0_enemies
	.addr	_level_1_enemies
	.addr	_level_2_enemies
	.addr	_level_3_enemies
	.addr	_level_4_enemies
	.addr	_level_5_enemies
	.addr	_level_6_enemies
_level_0_entities:
	.byte	$E6
	.byte	$02
	.byte	$00
	.byte	$01
	.byte	$E6
	.byte	$02
	.byte	$10
	.byte	$01
	.byte	$E6
	.byte	$02
	.byte	$40
	.byte	$01
	.byte	$E6
	.byte	$07
	.byte	$00
	.byte	$01
	.byte	$E6
	.byte	$07
	.byte	$40
	.byte	$01
	.byte	$E6
	.byte	$08
	.byte	$60
	.byte	$01
	.byte	$E6
	.byte	$08
	.byte	$70
	.byte	$01
	.byte	$E6
	.byte	$08
	.byte	$B0
	.byte	$01
	.byte	$E6
	.byte	$08
	.byte	$C0
	.byte	$01
	.byte	$E6
	.byte	$09
	.byte	$A0
	.byte	$01
	.byte	$E6
	.byte	$09
	.byte	$B0
	.byte	$01
	.byte	$E6
	.byte	$09
	.byte	$C0
	.byte	$01
	.byte	$E6
	.byte	$09
	.byte	$D0
	.byte	$01
	.byte	$00
	.byte	$07
	.byte	$A0
	.byte	$00
	.byte	$FF
_level_1_entities:
	.byte	$E6
	.byte	$00
	.byte	$A0
	.byte	$03
	.byte	$00
	.byte	$00
	.byte	$80
	.byte	$00
	.byte	$FF
_level_2_entities:
	.byte	$E6
	.byte	$00
	.byte	$80
	.byte	$03
	.byte	$E6
	.byte	$03
	.byte	$B0
	.byte	$00
	.byte	$FF
_level_3_entities:
	.byte	$00
	.byte	$00
	.byte	$B0
	.byte	$03
	.byte	$E6
	.byte	$00
	.byte	$30
	.byte	$00
	.byte	$FF
_level_4_entities:
	.byte	$00
	.byte	$00
	.byte	$30
	.byte	$03
	.byte	$00
	.byte	$04
	.byte	$B0
	.byte	$00
	.byte	$FF
_level_5_entities:
	.byte	$E6
	.byte	$00
	.byte	$B0
	.byte	$03
	.byte	$00
	.byte	$00
	.byte	$B0
	.byte	$00
	.byte	$FF
_level_6_entities:
	.byte	$FF
_entity_list:
	.addr	_level_0_entities
	.addr	_level_1_entities
	.addr	_level_2_entities
	.addr	_level_3_entities
	.addr	_level_4_entities
	.addr	_level_5_entities
	.addr	_level_6_entities
L35B2:
	.byte	$50,$52,$45,$53,$53,$20,$53,$54,$41,$52,$54,$00
L35A8:
	.byte	$47,$41,$4D,$45,$20,$4F,$56,$45,$52,$00

.segment	"BSS"

.segment	"ZEROPAGE"
_debug:
	.res	1,$00
_pad1:
	.res	1,$00
_pad1_new:
	.res	1,$00
_short_jump_count:
	.res	1,$00
_map_loaded:
	.res	1,$00
_collision:
	.res	1,$00
_player_in_air:
	.res	1,$00
_player_is_running:
	.res	1,$00
_player_on_ladder:
	.res	1,$00
_player_on_ladder_pose:
	.res	1,$00
_player_in_hitstun:
	.res	1,$00
_player_running:
	.res	1,$00
_collision_L:
	.res	1,$00
_collision_R:
	.res	1,$00
_collision_U:
	.res	1,$00
_collision_D:
	.res	1,$00
_coordinates:
	.res	1,$00
_temp1:
	.res	1,$00
_temp2:
	.res	1,$00
_temp3:
	.res	1,$00
_temp4:
	.res	1,$00
_multi_jump:
	.res	1,$00
_temp5:
	.res	2,$00
_temp6:
	.res	2,$00
_tempint:
	.res	2,$00
_tempint2:
	.res	2,$00
_temp_playerlocation:
	.res	2,$00
_temp_cmap1:
	.res	1,$00
_temp_cmap2:
	.res	1,$00
_level:
	.res	1,$00
_offset:
	.res	1,$00
_level_up:
	.res	1,$00
_level_down:
	.res	1,$00
_eject_L:
	.res	1,$00
_eject_R:
	.res	1,$00
_eject_D:
	.res	1,$00
_eject_U:
	.res	1,$00
_sprite_frame_counter:
	.res	1,$00
_frame_counter:
	.res	1,$00
_frame_counter2:
	.res	1,$00
_address:
	.res	2,$00
_x:
	.res	1,$00
_y:
	.res	1,$00
_nt:
	.res	1,$00
_index:
	.res	1,$00
_index2:
	.res	1,$00
_map:
	.res	1,$00
_scroll_x:
	.res	2,$00
_scroll_y:
	.res	2,$00
_scroll_count:
	.res	1,$00
_pseudo_scroll_x:
	.res	2,$00
_song:
	.res	1,$00
_game_mode:
	.res	1,$00
_pointer:
	.res	2,$00
_l_scroll_frames:
	.res	1,$00
_r_scroll_frames:
	.res	1,$00
_old_x:
	.res	2,$00
_old_y:
	.res	2,$00
_bright:
	.res	1,$00
_bright_count:
	.res	1,$00
_temp_x:
	.res	1,$00
_temp_y:
	.res	1,$00
_temp_room:
	.res	1,$00
_player_shooting:
	.res	1,$00
_death:
	.res	1,$00
_death_flag:
	.res	1,$00
_invul_frames:
	.res	1,$00
_projectile_cooldown:
	.res	1,$00
_projectile_count:
	.res	1,$00
_projectile_index:
	.res	1,$00
.segment	"BSS"
_c_map:
	.res	240,$00
_c_map2:
	.res	240,$00
_Generic:
	.res	4,$00
_Generic2:
	.res	4,$00
_max_rooms:
	.res	1,$00
_max_scroll:
	.res	2,$00
_enemy_x:
	.res	16,$00
_enemy_y:
	.res	16,$00
_enemy_active:
	.res	16,$00
_enemy_health:
	.res	16,$00
_enemy_room:
	.res	16,$00
_enemy_actual_x:
	.res	16,$00
_enemy_type:
	.res	16,$00
_enemy_dir:
	.res	16,$00
_enemy_anim:
	.res	32,$00
_enemy_frames:
	.res	1,$00
_entity_x:
	.res	16,$00
_entity_y:
	.res	16,$00
_entity_active:
	.res	16,$00
_entity_room:
	.res	16,$00
_entity_actual_x:
	.res	16,$00
_entity_type:
	.res	16,$00
_entity_anim:
	.res	32,$00
_entity_frames:
	.res	1,$00

; ---------------------------------------------------------------
; void __near__ load_room (void)
; ---------------------------------------------------------------

.segment	"CODE"

.proc	_load_room: near

.segment	"CODE"

;
; offset = level_offsets[level];
;
	ldy     _level
	lda     _level_offsets,y
	sta     _offset
;
; offset += room_to_load;
;
	lda     _room_to_load
	clc
	adc     _offset
	sta     _offset
;
; set_data_pointer(stage1_levels_list[offset]);
;
	ldx     #$00
	lda     _offset
	asl     a
	bcc     L35C5
	inx
	clc
L35C5:	adc     #<(_stage1_levels_list)
	sta     ptr1
	txa
	adc     #>(_stage1_levels_list)
	sta     ptr1+1
	ldy     #$01
	lda     (ptr1),y
	tax
	dey
	lda     (ptr1),y
	jsr     _set_data_pointer
;
; set_mt_pointer(metatile);
;
	lda     #<(_metatile)
	ldx     #>(_metatile)
	jsr     _set_mt_pointer
;
; for (y = 0;; y += 0x20)
;
	lda     #$00
L35C3:	sta     _y
;
; for (x = 0;; x += 0x20)
;
	lda     #$00
L35C2:	sta     _x
;
; address = get_ppu_addr(0, x, y);
;
	jsr     decsp2
	lda     #$00
	ldy     #$01
	sta     (sp),y
	lda     _x
	dey
	sta     (sp),y
	lda     _y
	jsr     _get_ppu_addr
	sta     _address
	stx     _address+1
;
; index = (y & 0xf0) + (x >> 4);
;
	lda     _y
	and     #$F0
	sta     ptr1
	lda     _x
	lsr     a
	lsr     a
	lsr     a
	lsr     a
	clc
	adc     ptr1
	sta     _index
;
; buffer_4_mt(address, index); // ppu_address, index to the data
;
	lda     _address
	ldx     _address+1
	jsr     pushax
	lda     _index
	jsr     _buffer_4_mt
;
; flush_vram_update2();
;
	jsr     _flush_vram_update2
;
; if (x == 0xe0)
;
	ldx     #$00
	lda     _x
	cmp     #$E0
;
; break;
;
	beq     L35C7
;
; for (x = 0;; x += 0x20)
;
	lda     #$20
	clc
	adc     _x
	jmp     L35C2
;
; if (y == 0xe0)
;
L35C7:	lda     _y
	cmp     #$E0
;
; break;
;
	beq     L35C8
;
; for (y = 0;; y += 0x20)
;
	lda     #$20
	clc
	adc     _y
	jmp     L35C3
;
; set_data_pointer(stage1_levels_list[offset + 1]);
;
L35C8:	lda     _offset
	clc
	adc     #$01
	bcc     L2F64
	inx
L2F64:	stx     tmp1
	asl     a
	rol     tmp1
	clc
	adc     #<(_stage1_levels_list)
	sta     ptr1
	lda     tmp1
	adc     #>(_stage1_levels_list)
	sta     ptr1+1
	ldy     #$01
	lda     (ptr1),y
	tax
	dey
	lda     (ptr1),y
	jsr     _set_data_pointer
;
; for (y = 0;; y += 0x20)
;
	lda     #$00
L35C4:	sta     _y
;
; x = 0;
;
	lda     #$00
	sta     _x
;
; address = get_ppu_addr(1, x, y);
;
	jsr     decsp2
	lda     #$01
	tay
	sta     (sp),y
	lda     _x
	dey
	sta     (sp),y
	lda     _y
	jsr     _get_ppu_addr
	sta     _address
	stx     _address+1
;
; index = (y & 0xf0);
;
	lda     _y
	and     #$F0
	sta     _index
;
; buffer_4_mt(address, index); // ppu_address, index to the data
;
	lda     _address
	ldx     _address+1
	jsr     pushax
	lda     _index
	jsr     _buffer_4_mt
;
; flush_vram_update2();
;
	jsr     _flush_vram_update2
;
; if (y == 0xe0)
;
	lda     _y
	cmp     #$E0
;
; break;
;
	beq     L2F66
;
; for (y = 0;; y += 0x20)
;
	lda     #$20
	clc
	adc     _y
	jmp     L35C4
;
; memcpy(c_map, stage1_levels_list[offset], 240);
;
L2F66:	lda     #<(_c_map)
	ldx     #>(_c_map)
	jsr     pushax
	ldx     #$00
	lda     _offset
	asl     a
	bcc     L35C6
	inx
	clc
L35C6:	adc     #<(_stage1_levels_list)
	sta     ptr1
	txa
	adc     #>(_stage1_levels_list)
	sta     ptr1+1
	ldy     #$01
	lda     (ptr1),y
	tax
	dey
	lda     (ptr1),y
	jsr     pushax
	ldx     #$00
	lda     #$F0
	jsr     _memcpy
;
; temp_cmap1 = 0;
;
	lda     #$00
	sta     _temp_cmap1
;
; max_rooms = level_max_rooms[level] - 1;
;
	ldy     _level
	lda     _level_max_rooms,y
	sec
	sbc     #$01
	sta     _max_rooms
;
; max_scroll = (max_rooms * 0x100) - 1; // 11 rooms makes 0x0AFF as the max
;
	tax
	lda     #$00
	sec
	sbc     #$01
	bcs     L2F8C
	dex
L2F8C:	sta     _max_scroll
	stx     _max_scroll+1
;
; sprite_obj_init();
;
	jsr     _sprite_obj_init
;
; entity_obj_init();
;
	jmp     _entity_obj_init

.endproc

; ---------------------------------------------------------------
; void __near__ draw_sprites (void)
; ---------------------------------------------------------------

.segment	"CODE"

.proc	_draw_sprites: near

.segment	"CODE"

;
; oam_clear();
;
	jsr     _oam_clear
;
; draw_player_sprites();
;
	jsr     _draw_player_sprites
;
; for (temp1 = 0; temp1 < MAX_PROJECTILES; ++temp1)
;
	lda     #$00
	sta     _temp1
L35CD:	lda     _temp1
	cmp     #$03
	bcs     L2F93
;
; if (projectiles_list[temp1] != TURN_OFF)
;
	ldy     _temp1
	lda     _projectiles_list,y
	cmp     #$FF
	beq     L35CE
;
; temp6 = projectiles_y[temp1]; //+ sine_wave[frame_counter % 10];
;
	ldy     _temp1
	lda     #$00
	sta     _temp6+1
	lda     _projectiles_y,y
	sta     _temp6
;
; oam_meta_spr(projectiles_x[temp1], temp6, animate_orb0_data);
;
	jsr     decsp2
	ldy     _temp1
	lda     _projectiles_x,y
	ldy     #$01
	sta     (sp),y
	lda     _temp6
	dey
	sta     (sp),y
	lda     #<(_animate_orb0_data)
	ldx     #>(_animate_orb0_data)
	jsr     _oam_meta_spr
;
; for (temp1 = 0; temp1 < MAX_PROJECTILES; ++temp1)
;
L35CE:	inc     _temp1
	jmp     L35CD
;
; offset = get_frame_count() & 3;
;
L2F93:	jsr     _get_frame_count
	and     #$03
	sta     _offset
;
; offset = offset << 4; // * 16, the size of the shuffle array
;
	asl     a
	asl     a
	asl     a
	asl     a
	sta     _offset
;
; for (index = 0; index < MAX_ENEMY; ++index)
;
	lda     #$00
	sta     _index
L35CF:	lda     _index
	cmp     #$10
	jcs     L2FAD
;
; index2 = shuffle_array[offset];
;
	ldy     _offset
	lda     _shuffle_array,y
	sta     _index2
;
; ++offset;
;
	inc     _offset
;
; temp_y = enemy_y[index2];
;
	ldy     _index2
	lda     _enemy_y,y
	sta     _temp_y
;
; if (enemy_health[index2] == 0)
;
	ldy     _index2
	lda     _enemy_health,y
;
; continue;
;
	beq     L35D1
;
; if (temp_y == TURN_OFF)
;
	lda     _temp_y
	cmp     #$FF
;
; continue;
;
	beq     L35D1
;
; if (!enemy_active[index2])
;
	ldy     _index2
	lda     _enemy_active,y
;
; continue;
;
	beq     L35D1
;
; temp_x = enemy_x[index2];
;
	ldy     _index2
	lda     _enemy_x,y
	sta     _temp_x
;
; if (temp_x == 0)
;
	lda     _temp_x
	bne     L35D0
;
; temp_x = 1; // problems with x = 0
;
	lda     #$01
	sta     _temp_x
;
; if (temp_x > 0xf0)
;
L35D0:	lda     _temp_x
	cmp     #$F1
;
; continue;
;
	bcs     L35D1
;
; if (temp_y < 0xf0)
;
	lda     _temp_y
	cmp     #$F0
	bcs     L35D1
;
; oam_meta_spr(temp_x, temp_y, enemy_anim[index2]);
;
	jsr     decsp2
	lda     _temp_x
	ldy     #$01
	sta     (sp),y
	lda     _temp_y
	dey
	sta     (sp),y
	ldx     #$00
	lda     _index2
	asl     a
	bcc     L35CC
	inx
	clc
L35CC:	adc     #<(_enemy_anim)
	sta     ptr1
	txa
	adc     #>(_enemy_anim)
	sta     ptr1+1
	iny
	lda     (ptr1),y
	tax
	dey
	lda     (ptr1),y
	jsr     _oam_meta_spr
;
; for (index = 0; index < MAX_ENEMY; ++index)
;
L35D1:	inc     _index
	jmp     L35CF
;
; offset = get_frame_count() & 3;
;
L2FAD:	jsr     _get_frame_count
	and     #$03
	sta     _offset
;
; offset = offset << 4; // * 16, the size of the shuffle array
;
	asl     a
	asl     a
	asl     a
	asl     a
	sta     _offset
;
; for (index = 0; index < MAX_ENTITY; ++index)
;
	lda     #$00
	sta     _index
L35D2:	lda     _index
	cmp     #$10
	jcs     L2FDD
;
; index2 = shuffle_array[offset];
;
	ldy     _offset
	lda     _shuffle_array,y
	sta     _index2
;
; ++offset;
;
	inc     _offset
;
; temp_y = entity_y[index2];
;
	ldy     _index2
	lda     _entity_y,y
	sta     _temp_y
;
; if (temp_y == TURN_OFF)
;
	cmp     #$FF
;
; continue;
;
	jeq     L35D4
;
; if (!entity_active[index2])
;
	ldy     _index2
	lda     _entity_active,y
;
; continue;
;
	beq     L35D4
;
; temp_x = entity_x[index2];
;
	ldy     _index2
	lda     _entity_x,y
	sta     _temp_x
;
; if (temp_x == 0)
;
	lda     _temp_x
	bne     L35D3
;
; temp_x = 1; // problems with x = 0
;
	lda     #$01
	sta     _temp_x
;
; if (temp_x > 0xf0)
;
L35D3:	lda     _temp_x
	cmp     #$F1
;
; continue;
;
	bcs     L35D4
;
; if (temp_y < 0xf0)
;
	lda     _temp_y
	cmp     #$F0
	bcs     L35D4
;
; if (entity_type[index2] == ENTITY_PIT_WIDE_64)
;
	ldy     _index2
	lda     _entity_type,y
	cmp     #$02
	bne     L2FFF
;
; oam_meta_spr(temp_x, temp_y, animate_bread_data);
;
	jsr     decsp2
	lda     _temp_x
	ldy     #$01
	sta     (sp),y
	lda     _temp_y
	dey
	sta     (sp),y
	lda     #<(_animate_bread_data)
	ldx     #>(_animate_bread_data)
;
; else if (entity_type[index2] == ENTITY_LEVEL_UP)
;
	jmp     L35CB
L2FFF:	ldy     _index2
	lda     _entity_type,y
	bne     L3008
;
; oam_meta_spr(temp_x, temp_y, animate_bun_data);
;
	jsr     decsp2
	lda     _temp_x
	ldy     #$01
	sta     (sp),y
	lda     _temp_y
	dey
	sta     (sp),y
	lda     #<(_animate_bun_data)
	ldx     #>(_animate_bun_data)
;
; else
;
	jmp     L35CB
;
; oam_meta_spr(temp_x, temp_y, animate_fruit_data);
;
L3008:	jsr     decsp2
	lda     _temp_x
	ldy     #$01
	sta     (sp),y
	lda     _temp_y
	dey
	sta     (sp),y
	lda     #<(_animate_fruit_data)
	ldx     #>(_animate_fruit_data)
L35CB:	jsr     _oam_meta_spr
;
; for (index = 0; index < MAX_ENTITY; ++index)
;
L35D4:	inc     _index
	jmp     L35D2
;
; if (debug)
;
L2FDD:	lda     _debug
	bne     L35D5
;
; }
;
	rts
;
; temp1 = (scroll_x) >> 8;
;
L35D5:	lda     _scroll_x+1
	sta     _temp1
;
; oam_spr(28, 10, temp1 + 0x30, 2);
;
	jsr     decsp3
	lda     #$1C
	ldy     #$02
	sta     (sp),y
	lda     #$0A
	dey
	sta     (sp),y
	lda     _temp1
	clc
	adc     #$30
	dey
	sta     (sp),y
	lda     #$02
	jsr     _oam_spr
;
; temp1 = (scroll_x & 0xff) >> 4;
;
	lda     _scroll_x
	lsr     a
	lsr     a
	lsr     a
	lsr     a
	sta     _temp1
;
; oam_spr(36, 10, temp1 + 0x30, 2);
;
	jsr     decsp3
	lda     #$24
	ldy     #$02
	sta     (sp),y
	lda     #$0A
	dey
	sta     (sp),y
	lda     _temp1
	clc
	adc     #$30
	dey
	sta     (sp),y
	lda     #$02
	jsr     _oam_spr
;
; temp1 = (scroll_x & 0x0f);
;
	lda     _scroll_x
	and     #$0F
	sta     _temp1
;
; oam_spr(44, 10, temp1 + 0x30, 2);
;
	jsr     decsp3
	lda     #$2C
	ldy     #$02
	sta     (sp),y
	lda     #$0A
	dey
	sta     (sp),y
	lda     _temp1
	clc
	adc     #$30
	dey
	sta     (sp),y
	lda     #$02
	jsr     _oam_spr
;
; tempint = scroll_x + high_byte(BoxGuy1.x);
;
	lda     _scroll_x
	ldx     _scroll_x+1
	clc
	adc     _BoxGuy1+1
	bcc     L35C9
	inx
L35C9:	sta     _tempint
	stx     _tempint+1
;
; temp1 = (tempint >> 8);
;
	lda     _tempint+1
	sta     _temp1
;
; oam_spr(90, 10, temp1 + 0x30, 1);
;
	jsr     decsp3
	lda     #$5A
	ldy     #$02
	sta     (sp),y
	lda     #$0A
	dey
	sta     (sp),y
	lda     _temp1
	clc
	adc     #$30
	dey
	sta     (sp),y
	lda     #$01
	jsr     _oam_spr
;
; temp1 = room_to_load;
;
	lda     _room_to_load
	sta     _temp1
;
; oam_spr(100, 10, temp1 + 0x30, 3);
;
	jsr     decsp3
	lda     #$64
	ldy     #$02
	sta     (sp),y
	lda     #$0A
	dey
	sta     (sp),y
	lda     _temp1
	clc
	adc     #$30
	dey
	sta     (sp),y
	lda     #$03
	jsr     _oam_spr
;
; temp1 = (BoxGuy1.x >> 8 & 0xff) >> 4;
;
	lda     _BoxGuy1+1
	lsr     a
	lsr     a
	lsr     a
	lsr     a
	sta     _temp1
;
; oam_spr(66, 10, temp1 + 0x30, 2);
;
	jsr     decsp3
	lda     #$42
	ldy     #$02
	sta     (sp),y
	lda     #$0A
	dey
	sta     (sp),y
	lda     _temp1
	clc
	adc     #$30
	dey
	sta     (sp),y
	lda     #$02
	jsr     _oam_spr
;
; temp1 = (BoxGuy1.x >> 8 & 0x0f);
;
	lda     _BoxGuy1+1
	and     #$0F
	sta     _temp1
;
; oam_spr(74, 10, temp1 + 0x30, 2);
;
	jsr     decsp3
	lda     #$4A
	ldy     #$02
	sta     (sp),y
	lda     #$0A
	dey
	sta     (sp),y
	lda     _temp1
	clc
	adc     #$30
	dey
	sta     (sp),y
	lda     #$02
	jmp     _oam_spr

.endproc

; ---------------------------------------------------------------
; void __near__ movement (void)
; ---------------------------------------------------------------

.segment	"CODE"

.proc	_movement: near

.segment	"CODE"

;
; if (death_flag > 0)
;
	lda     _death_flag
	beq     L35E1
;
; --death_flag;
;
	dec     _death_flag
;
; if (invul_frames > 0)
;
L35E1:	lda     _invul_frames
	beq     L305C
;
; --invul_frames;
;
	dec     _invul_frames
;
; if (player_in_hitstun)
;
L305C:	lda     _player_in_hitstun
	beq     L35E2
;
; --player_in_hitstun;
;
	dec     _player_in_hitstun
;
; if (player_in_hitstun > 0)
;
L35E2:	lda     _player_in_hitstun
	beq     L3072
;
; if (direction == LEFT)
;
	lda     _direction
	bne     L3064
;
; BoxGuy1.vel_x += HITSTUN_DECEL;
;
	lda     #$41
	clc
	adc     _BoxGuy1+4
	sta     _BoxGuy1+4
	bcc     L3068
	inc     _BoxGuy1+4+1
;
; if (BoxGuy1.vel_x >= MAX_SPEED)
;
L3068:	lda     _BoxGuy1+4
	cmp     #$60
	lda     _BoxGuy1+4+1
	sbc     #$01
	bvs     L306B
	eor     #$80
L306B:	bpl     L3072
;
; BoxGuy1.vel_x = MAX_SPEED;
;
	ldx     #$01
	lda     #$60
;
; else
;
	jmp     L3609
;
; BoxGuy1.vel_x -= HITSTUN_DECEL;
;
L3064:	lda     _BoxGuy1+4
	sec
	sbc     #$41
	sta     _BoxGuy1+4
	bcs     L3071
	dec     _BoxGuy1+4+1
;
; if (BoxGuy1.vel_x < -MAX_SPEED)
;
L3071:	lda     _BoxGuy1+4
	cmp     #$A0
	lda     _BoxGuy1+4+1
	sbc     #$FE
	bvc     L3074
	eor     #$80
L3074:	bpl     L3072
;
; BoxGuy1.vel_x = -MAX_SPEED;
;
	ldx     #$FE
	lda     #$A0
L3609:	sta     _BoxGuy1+4
	stx     _BoxGuy1+4+1
;
; old_x = BoxGuy1.x;
;
L3072:	lda     _BoxGuy1+1
	sta     _old_x+1
	lda     _BoxGuy1
	sta     _old_x
;
; if (pad1 & PAD_LEFT && !player_in_hitstun)
;
	lda     _pad1
	and     #$02
	beq     L35E6
	lda     _player_in_hitstun
	bne     L35E6
;
; direction = LEFT;
;
	sta     _direction
;
; player_is_running = 1;
;
	lda     #$01
	sta     _player_is_running
;
; if (!player_on_ladder)
;
	lda     _player_on_ladder
	jne     L30C7
;
; if (BoxGuy1.vel_x >= DECEL)
;
	lda     _BoxGuy1+4
	cmp     #$32
	lda     _BoxGuy1+4+1
	sbc     #$00
	bvs     L3085
	eor     #$80
L3085:	bpl     L3083
;
; BoxGuy1.vel_x -= DECEL;
;
	lda     _BoxGuy1+4
	sec
	sbc     #$32
	sta     _BoxGuy1+4
	jcs     L30C7
	dec     _BoxGuy1+4+1
;
; else if (BoxGuy1.vel_x > 0)
;
	jmp     L30C7
L3083:	lda     _BoxGuy1+4
	cmp     #$01
	lda     _BoxGuy1+4+1
	sbc     #$00
	bvs     L308C
	eor     #$80
L308C:	bpl     L308A
;
; BoxGuy1.vel_x = 0;
;
	ldx     #$00
	txa
;
; else
;
	jmp     L35ED
;
; BoxGuy1.vel_x -= ACCEL;
;
L308A:	lda     _BoxGuy1+4
	sec
	sbc     #$1E
	sta     _BoxGuy1+4
	bcs     L3092
	dec     _BoxGuy1+4+1
;
; if (BoxGuy1.vel_x < -MAX_SPEED)
;
L3092:	lda     _BoxGuy1+4
	cmp     #$A0
	lda     _BoxGuy1+4+1
	sbc     #$FE
	bvc     L3095
	eor     #$80
L3095:	jpl     L30C7
;
; BoxGuy1.vel_x = -MAX_SPEED;
;
	ldx     #$FE
	lda     #$A0
;
; else if (pad1 & PAD_RIGHT && !player_in_hitstun)
;
	jmp     L35ED
L35E6:	lda     _pad1
	and     #$01
	beq     L35EB
	lda     _player_in_hitstun
	beq     L35E9
	lda     #$00
	jmp     L35EB
;
; direction = RIGHT;
;
L35E9:	lda     #$01
	sta     _direction
;
; player_is_running = 1;
;
	sta     _player_is_running
;
; if (!player_on_ladder)
;
	lda     _player_on_ladder
	jne     L30C7
;
; if (BoxGuy1.vel_x <= DECEL)
;
	lda     _BoxGuy1+4
	cmp     #$33
	lda     _BoxGuy1+4+1
	sbc     #$00
	bvc     L30A5
	eor     #$80
L30A5:	bpl     L30A3
;
; BoxGuy1.vel_x += DECEL;
;
	lda     #$32
	clc
	adc     _BoxGuy1+4
	sta     _BoxGuy1+4
	jcc     L30C7
	inc     _BoxGuy1+4+1
;
; else if (BoxGuy1.vel_x < 0)
;
	jmp     L30C7
L30A3:	ldx     _BoxGuy1+4+1
	cpx     #$80
	bcc     L30AA
;
; BoxGuy1.vel_x = 0;
;
	ldx     #$00
	txa
;
; else
;
	jmp     L35ED
;
; BoxGuy1.vel_x += ACCEL;
;
L30AA:	lda     #$1E
	clc
	adc     _BoxGuy1+4
	sta     _BoxGuy1+4
	bcc     L30B1
	inc     _BoxGuy1+4+1
;
; if (BoxGuy1.vel_x >= MAX_SPEED)
;
L30B1:	lda     _BoxGuy1+4
	cmp     #$60
	lda     _BoxGuy1+4+1
	sbc     #$01
	bvs     L30B4
	eor     #$80
L30B4:	bpl     L30C7
;
; BoxGuy1.vel_x = MAX_SPEED;
;
	ldx     #$01
	lda     #$60
;
; else
;
	jmp     L35ED
;
; player_is_running = 0;
;
L35EB:	sta     _player_is_running
;
; if (BoxGuy1.vel_x >= ACCEL)
;
	lda     _BoxGuy1+4
	cmp     #$1E
	lda     _BoxGuy1+4+1
	sbc     #$00
	bvs     L30BC
	eor     #$80
L30BC:	bpl     L30BA
;
; BoxGuy1.vel_x -= ACCEL;
;
	lda     _BoxGuy1+4
	sec
	sbc     #$1E
	sta     _BoxGuy1+4
	bcs     L30C7
	dec     _BoxGuy1+4+1
;
; else if (BoxGuy1.vel_x < -ACCEL)
;
	jmp     L30C7
L30BA:	lda     _BoxGuy1+4
	cmp     #$E2
	lda     _BoxGuy1+4+1
	sbc     #$FF
	bvc     L30C3
	eor     #$80
L30C3:	asl     a
	lda     #$00
	tax
	bcc     L35ED
;
; BoxGuy1.vel_x += ACCEL;
;
	lda     #$1E
	clc
	adc     _BoxGuy1+4
	sta     _BoxGuy1+4
	bcc     L30C7
	inc     _BoxGuy1+4+1
;
; else
;
	jmp     L30C7
;
; BoxGuy1.vel_x = 0;
;
L35ED:	sta     _BoxGuy1+4
	stx     _BoxGuy1+4+1
;
; BoxGuy1.x += BoxGuy1.vel_x;
;
L30C7:	lda     _BoxGuy1+4
	clc
	adc     _BoxGuy1
	sta     _BoxGuy1
	lda     _BoxGuy1+4+1
	adc     _BoxGuy1+1
	sta     _BoxGuy1+1
;
; if (BoxGuy1.x > 0xf000)
;
	lda     _BoxGuy1
	cmp     #$01
	lda     _BoxGuy1+1
	sbc     #$F0
	bcc     L35F0
;
; if (old_x >= 0x8000)
;
	lda     _old_x
	cmp     #$00
	lda     _old_x+1
	sbc     #$80
	lda     #$00
	tax
	bcc     L35EF
;
; BoxGuy1.x = 0xf000; // max right
;
	ldx     #$F0
;
; BoxGuy1.x = 0x0000; // max left
;
L35EF:	sta     _BoxGuy1
	stx     _BoxGuy1+1
;
; BoxGuy1.vel_x = 0;
;
	sta     _BoxGuy1+4
	sta     _BoxGuy1+4+1
;
; Generic.x = high_byte(BoxGuy1.x); // this is much faster than passing a pointer to BoxGuy1
;
L35F0:	lda     _BoxGuy1+1
	sta     _Generic
;
; Generic.y = high_byte(BoxGuy1.y);
;
	lda     _BoxGuy1+3
	sta     _Generic+1
;
; Generic.width = HERO_WIDTH;
;
	lda     #$0E
	sta     _Generic+2
;
; Generic.height = HERO_HEIGHT;
;
	sta     _Generic+3
;
; if (BoxGuy1.vel_x < 0)
;
	ldx     _BoxGuy1+4+1
	cpx     #$80
	bcc     L30E2
;
; if (bg_coll_L())
;
	jsr     _bg_coll_L
	tax
	beq     L35F1
;
; high_byte(BoxGuy1.x) = high_byte(BoxGuy1.x) - eject_L;
;
	lda     _BoxGuy1+1
	sec
	sbc     _eject_L
	sta     _BoxGuy1+1
;
; BoxGuy1.vel_x = 0;
;
	lda     #$00
	sta     _BoxGuy1+4
	sta     _BoxGuy1+4+1
;
; if (BoxGuy1.x > 0xf000)
;
	lda     _BoxGuy1
	cmp     #$01
	lda     _BoxGuy1+1
	sbc     #$F0
	bcc     L35F1
;
; BoxGuy1.x = 0xf000;
;
	ldx     #$F0
;
; else if (BoxGuy1.vel_x > 0)
;
	jmp     L360E
L30E2:	lda     _BoxGuy1+4
	cmp     #$01
	lda     _BoxGuy1+4+1
	sbc     #$00
	bvs     L30F3
	eor     #$80
L30F3:	bpl     L35F1
;
; if (bg_coll_R())
;
	jsr     _bg_coll_R
	tax
	beq     L35F1
;
; high_byte(BoxGuy1.x) = high_byte(BoxGuy1.x) - eject_R;
;
	lda     _BoxGuy1+1
	sec
	sbc     _eject_R
	sta     _BoxGuy1+1
;
; BoxGuy1.vel_x = 0;
;
	lda     #$00
	sta     _BoxGuy1+4
	sta     _BoxGuy1+4+1
;
; if (BoxGuy1.x > 0xf000)
;
	lda     _BoxGuy1
	cmp     #$01
	lda     _BoxGuy1+1
	sbc     #$F0
	bcc     L35F1
;
; BoxGuy1.x = 0x0000;
;
	ldx     #$00
L360E:	lda     #$00
	sta     _BoxGuy1
	stx     _BoxGuy1+1
;
; if (pad1 & PAD_DOWN)
;
L35F1:	lda     _pad1
	and     #$04
	beq     L3104
;
; direction_y = DOWN;
;
	lda     #$04
	sta     _direction_y
;
; if (bg_coll_ladder_top_under_player())
;
	jsr     _bg_coll_ladder_top_under_player
	tax
	beq     L3104
;
; BoxGuy1.x = (BoxGuy1.x + 0x100) & ~0xF00;
;
	ldx     _BoxGuy1+1
	inx
	ldy     _BoxGuy1
	txa
	and     #$F0
	sta     _BoxGuy1+1
	sty     _BoxGuy1
;
; player_on_ladder = 1;
;
	lda     #$01
	sta     _player_on_ladder
;
; player_on_ladder_pose = 0;
;
	lda     #$00
	sta     _player_on_ladder_pose
;
; player_in_air = 0;
;
	sta     _player_in_air
;
; BoxGuy1.vel_y = 0;
;
	sta     _BoxGuy1+6
	sta     _BoxGuy1+6+1
;
; BoxGuy1.vel_x = 0;
;
	sta     _BoxGuy1+4
	sta     _BoxGuy1+4+1
;
; BoxGuy1.y += 0x500;
;
	clc
	adc     _BoxGuy1+2
	sta     _BoxGuy1+2
	lda     #$05
	adc     _BoxGuy1+2+1
	sta     _BoxGuy1+2+1
;
; if (player_on_ladder && bg_coll_ladder())
;
L3104:	lda     _player_on_ladder
	beq     L35F6
	jsr     _bg_coll_ladder
	tax
	beq     L35F6
;
; if (pad1 & PAD_DOWN)
;
	lda     _pad1
	and     #$04
	beq     L35F2
;
; direction_y = DOWN;
;
	lda     #$04
	sta     _direction_y
;
; ++player_on_ladder_pose;
;
	inc     _player_on_ladder_pose
;
; BoxGuy1.vel_y += LADDER_ACCEL;
;
	lda     #$14
	clc
	adc     _BoxGuy1+6
	sta     _BoxGuy1+6
	bcc     L3120
	inc     _BoxGuy1+6+1
;
; if (BoxGuy1.vel_y > MAX_LADDER_SPEED)
;
L3120:	lda     _BoxGuy1+6
	cmp     #$01
	lda     _BoxGuy1+6+1
	sbc     #$01
	bvs     L3123
	eor     #$80
L3123:	bpl     L3140
;
; BoxGuy1.vel_y = MAX_LADDER_SPEED;
;
	ldx     #$01
;
; else if (pad1 & PAD_UP)
;
	jmp     L360F
L35F2:	lda     _pad1
	and     #$08
	beq     L35F4
;
; direction_y = UP;
;
	lda     #$03
	sta     _direction_y
;
; ++player_on_ladder_pose;
;
	inc     _player_on_ladder_pose
;
; BoxGuy1.vel_y -= LADDER_ACCEL;
;
	lda     _BoxGuy1+6
	sec
	sbc     #$14
	sta     _BoxGuy1+6
	bcs     L312E
	dec     _BoxGuy1+6+1
;
; if (BoxGuy1.vel_y < -MAX_LADDER_SPEED)
;
L312E:	lda     _BoxGuy1+6
	cmp     #$00
	lda     _BoxGuy1+6+1
	sbc     #$FF
	bvc     L3131
	eor     #$80
L3131:	bpl     L3140
;
; BoxGuy1.vel_y = -MAX_LADDER_SPEED;
;
	ldx     #$FF
;
; else
;
	jmp     L360F
;
; BoxGuy1.vel_y = 0;
;
L35F4:	sta     _BoxGuy1+6
	sta     _BoxGuy1+6+1
;
; else
;
	jmp     L3140
;
; player_on_ladder = 0;
;
L35F6:	sta     _player_on_ladder
;
; if (BoxGuy1.vel_y < 0x300)
;
	lda     _BoxGuy1+6
	cmp     #$00
	lda     _BoxGuy1+6+1
	sbc     #$03
	bvc     L313C
	eor     #$80
L313C:	bpl     L313A
;
; BoxGuy1.vel_y += GRAVITY;
;
	lda     #$3C
	clc
	adc     _BoxGuy1+6
	sta     _BoxGuy1+6
	bcc     L3140
	inc     _BoxGuy1+6+1
;
; else
;
	jmp     L3140
;
; BoxGuy1.vel_y = 0x300; // consistent
;
L313A:	ldx     #$03
L360F:	lda     #$00
	sta     _BoxGuy1+6
	stx     _BoxGuy1+6+1
;
; BoxGuy1.y += BoxGuy1.vel_y; // add gravity to y; (make him go up or down)
;
L3140:	lda     _BoxGuy1+6
	clc
	adc     _BoxGuy1+2
	sta     _BoxGuy1+2
	lda     _BoxGuy1+6+1
	adc     _BoxGuy1+2+1
	sta     _BoxGuy1+2+1
;
; Generic.x = high_byte(BoxGuy1.x);
;
	lda     _BoxGuy1+1
	sta     _Generic
;
; Generic.y = high_byte(BoxGuy1.y);
;
	lda     _BoxGuy1+3
	sta     _Generic+1
;
; if (BoxGuy1.vel_y > 0) // he's falling
;
	lda     _BoxGuy1+6
	cmp     #$01
	lda     _BoxGuy1+6+1
	sbc     #$00
	bvs     L314D
	eor     #$80
L314D:	bpl     L314B
;
; if (bg_coll_D()) // if he's collising below
;
	jsr     _bg_coll_D
	tax
	beq     L35F7
;
; player_in_air = 0;
;
	lda     #$00
	sta     _player_in_air
;
; multi_jump = 0;
;
	sta     _multi_jump
;
; player_on_ladder = 0;
;
	sta     _player_on_ladder
;
; high_byte(BoxGuy1.y) = high_byte(BoxGuy1.y) - eject_D;
;
	lda     _BoxGuy1+3
	sec
	sbc     _eject_D
	sta     _BoxGuy1+3
;
; BoxGuy1.y &= 0xff00;
;
	ldx     _BoxGuy1+2+1
	lda     #$00
	sta     _BoxGuy1+2
	stx     _BoxGuy1+2+1
;
; if (BoxGuy1.vel_y > 0)
;
	lda     _BoxGuy1+6
	cmp     #$01
	lda     _BoxGuy1+6+1
	sbc     #$00
	bvs     L315E
	eor     #$80
L315E:	bpl     L35F7
;
; else if (BoxGuy1.vel_y < 0)
;
	jmp     L3610
L314B:	ldx     _BoxGuy1+6+1
	cpx     #$80
	bcc     L35F7
;
; if (bg_coll_U())
;
	jsr     _bg_coll_U
	tax
	beq     L35F7
;
; high_byte(BoxGuy1.y) = high_byte(BoxGuy1.y) - eject_U;
;
	lda     _BoxGuy1+3
	sec
	sbc     _eject_U
	sta     _BoxGuy1+3
;
; BoxGuy1.vel_y = 0;
;
L3610:	lda     #$00
	sta     _BoxGuy1+6
	sta     _BoxGuy1+6+1
;
; Generic.y = high_byte(BoxGuy1.y); // the rest should be the same
;
L35F7:	lda     _BoxGuy1+3
	sta     _Generic+1
;
; if (projectile_cooldown > 0)
;
	lda     _projectile_cooldown
	beq     L35F8
;
; --projectile_cooldown;
;
	dec     _projectile_cooldown
;
; if (pad1_new & PAD_UP)
;
L35F8:	lda     _pad1_new
	and     #$08
	beq     L35F9
;
; direction_y = UP;
;
	lda     #$03
	sta     _direction_y
;
; if (bg_coll_ladder())
;
	jsr     _bg_coll_ladder
	tax
	beq     L35F9
;
; BoxGuy1.x = (BoxGuy1.x + 0x700) & ~0xF00;
;
	lda     _BoxGuy1
	sta     _BoxGuy1
	lda     _BoxGuy1+1
	clc
	adc     #$07
	and     #$F0
	sta     _BoxGuy1+1
;
; player_on_ladder_pose = 0;
;
	lda     #$00
	sta     _player_on_ladder_pose
;
; player_on_ladder = 1;
;
	lda     #$01
	sta     _player_on_ladder
;
; player_in_air = 0;
;
	lda     #$00
	sta     _player_in_air
;
; BoxGuy1.vel_y = 0;
;
	sta     _BoxGuy1+6
	sta     _BoxGuy1+6+1
;
; BoxGuy1.vel_x = 0;
;
	sta     _BoxGuy1+4
	sta     _BoxGuy1+4+1
;
; if (pad1_new & PAD_A)
;
L35F9:	lda     _pad1_new
	and     #$80
	beq     L35FB
;
; if (player_on_ladder)
;
	lda     _player_on_ladder
	beq     L3187
;
; player_on_ladder = 0;
;
	lda     #$00
	sta     _player_on_ladder
;
; player_in_air = 1;
;
	lda     #$01
;
; else if (bg_coll_D2() || multi_jump < 2)
;
	jmp     L35DF
L3187:	jsr     _bg_coll_D2
	tax
	bne     L35FA
	lda     _multi_jump
	cmp     #$02
	bcs     L35FB
;
; ++multi_jump;
;
L35FA:	inc     _multi_jump
;
; BoxGuy1.vel_y = JUMP_VEL; // JUMP
;
	ldx     #$FB
	lda     #$80
	sta     _BoxGuy1+6
	stx     _BoxGuy1+6+1
;
; short_jump_count = 1;
;
	lda     #$01
	sta     _short_jump_count
;
; player_in_air = 1;
;
L35DF:	sta     _player_in_air
;
; if (pad1_new & PAD_B && projectile_cooldown == 0) // shooting
;
L35FB:	lda     _pad1_new
	ldx     #$00
	and     #$40
	beq     L31AA
	lda     _projectile_cooldown
	bne     L31AA
;
; for (temp1 = 0; temp1 < MAX_PROJECTILES; ++temp1)
;
	sta     _temp1
L35FF:	lda     _temp1
	cmp     #$03
	bcs     L319D
;
; if (projectiles_list[temp1] == TURN_OFF)
;
	ldy     _temp1
	lda     _projectiles_list,y
	cmp     #$FF
	bne     L3600
;
; temp2 = 1;
;
	lda     #$01
	sta     _temp2
;
; break;
;
	jmp     L319D
;
; for (temp1 = 0; temp1 < MAX_PROJECTILES; ++temp1)
;
L3600:	inc     _temp1
	jmp     L35FF
;
; if (temp2)
;
L319D:	lda     _temp2
	beq     L31AA
;
; projectile_cooldown = PROJECTILE_COOLDOWN_FRAMES;
;
	lda     #$0A
	sta     _projectile_cooldown
;
; player_shooting = 10;
;
	sta     _player_shooting
;
; projectile_index = temp1;
;
	lda     _temp1
	sta     _projectile_index
;
; if (direction == RIGHT)
;
	lda     _direction
	cmp     #$01
	bne     L31B2
;
; projectiles_list[projectile_index] = RIGHT;
;
	ldy     _projectile_index
;
; else
;
	jmp     L35E0
;
; projectiles_list[projectile_index] = LEFT;
;
L31B2:	ldy     _projectile_index
	lda     #$00
L35E0:	sta     _projectiles_list,y
;
; projectiles_x[projectile_index] = high_byte(BoxGuy1.x) + 10;
;
	lda     #<(_projectiles_x)
	ldx     #>(_projectiles_x)
	clc
	adc     _projectile_index
	bcc     L31BF
	inx
L31BF:	sta     ptr1
	stx     ptr1+1
	lda     _BoxGuy1+1
	clc
	adc     #$0A
	ldy     #$00
	sta     (ptr1),y
;
; projectiles_y[projectile_index] = high_byte(BoxGuy1.y);
;
	ldy     _projectile_index
	ldx     #$00
	lda     _BoxGuy1+3
	sta     _projectiles_y,y
;
; if (short_jump_count)
;
L31AA:	lda     _short_jump_count
	beq     L31CC
;
; ++short_jump_count;
;
	inc     _short_jump_count
;
; if (short_jump_count > 30)
;
	lda     _short_jump_count
	cmp     #$1F
	bcc     L31CC
;
; short_jump_count = 0;
;
	lda     #$00
	sta     _short_jump_count
;
; if ((short_jump_count) && ((pad1 & PAD_A) == 0) && (BoxGuy1.vel_y < -0x200))
;
L31CC:	lda     _short_jump_count
	beq     L3604
	lda     _pad1
	and     #$80
	bne     L3604
	lda     _BoxGuy1+6
	cmp     #$00
	lda     _BoxGuy1+6+1
	sbc     #$FE
	bvc     L31D8
	eor     #$80
L31D8:	bpl     L360D
;
; BoxGuy1.vel_y = -0x200;
;
	ldx     #$FE
	lda     #$00
	sta     _BoxGuy1+6
	stx     _BoxGuy1+6+1
;
; short_jump_count = 0;
;
	sta     _short_jump_count
;
; temp5 = low_byte(scroll_x) + high_byte(BoxGuy1.x);
;
L360D:	ldx     #$00
L3604:	lda     _scroll_x
	clc
	adc     _BoxGuy1+1
	bcc     L35D6
	ldx     #$01
L35D6:	sta     _temp5
	stx     _temp5+1
;
; if (temp5 > 0x98 && temp5 < 0xa4) // middle of the screen
;
	cmp     #$99
	txa
	sbc     #$00
	bcc     L31E2
	lda     _temp5+1
	cmp     #$00
	bne     L31E5
	lda     _temp5
	cmp     #$A4
L31E5:	bcs     L31E2
;
; map_loaded = 0;
;
	lda     #$00
	sta     _map_loaded
;
; temp5 = BoxGuy1.x; // store his x before we check the scrolling
;
L31E2:	lda     _BoxGuy1+1
	sta     _temp5+1
	lda     _BoxGuy1
	sta     _temp5
;
; if (BoxGuy1.x < MAX_LEFT)
;
	ldx     _BoxGuy1+1
	cpx     #$40
	jcs     L320B
;
; if (!map_loaded)
;
	lda     _map_loaded
	bne     L31ED
;
; room_to_load = ((scroll_x >> 8) - 1); // high byte = room, one to the left
;
	lda     _scroll_x+1
	sec
	sbc     #$01
	sta     _room_to_load
;
; new_cmap();
;
	jsr     _new_cmap
;
; map_loaded = 1; // only do once
;
	lda     #$01
	sta     _map_loaded
;
; temp1 = (MAX_LEFT - BoxGuy1.x) >> 8;
;
L31ED:	lda     #$00
	sec
	sbc     _BoxGuy1
	lda     #$40
	sbc     _BoxGuy1+1
	sta     _temp1
;
; if (temp1 > 3)
;
	cmp     #$04
	bcc     L31FA
;
; temp1 = 3; // max scroll change
;
	lda     #$03
	sta     _temp1
;
; tempint = scroll_x + high_byte(BoxGuy1.x);
;
L31FA:	lda     _scroll_x
	ldx     _scroll_x+1
	clc
	adc     _BoxGuy1+1
	bcc     L35D7
	inx
L35D7:	sta     _tempint
	stx     _tempint+1
;
; current_room = (tempint >> 8);
;
	lda     _tempint+1
	sta     _current_room
;
; if (max_rooms > 1) // this is for the multi-room levels
;
	lda     _max_rooms
	cmp     #$02
	bcc     L320B
;
; if ((scroll_x - temp1) > max_scroll) // if subtracting the scroll makes it overflow
;
	lda     _scroll_x
	sec
	sbc     _temp1
	pha
	lda     _scroll_x+1
	sbc     #$00
	tax
	pla
	sec
	sbc     _max_scroll
	sta     tmp1
	txa
	sbc     _max_scroll+1
	ora     tmp1
	bcc     L3206
	beq     L3206
;
; scroll_x = 0; // just go to zero (and move the guy)
;
	lda     #$00
	sta     _scroll_x
	sta     _scroll_x+1
;
; else // otherwise scroll the window and offset the guy's movement
;
	jmp     L320B
;
; scroll_x -= temp1;                  // scroll the window
;
L3206:	lda     _temp1
	eor     #$FF
	sec
	adc     _scroll_x
	sta     _scroll_x
	lda     #$FF
	adc     _scroll_x+1
	sta     _scroll_x+1
;
; high_byte(BoxGuy1.x) = high_byte(BoxGuy1.x) + temp1; // add the offset to the guy
;
	lda     _BoxGuy1+1
	clc
	adc     _temp1
	sta     _BoxGuy1+1
;
; if (BoxGuy1.x > MAX_RIGHT)
;
L320B:	lda     _BoxGuy1
	cmp     #$01
	lda     _BoxGuy1+1
	sbc     #$90
	bcc     L3225
;
; if (!map_loaded) // gets reset whenever the player's in the middle of the level
;
	lda     _map_loaded
	bne     L3214
;
; room_to_load = ((scroll_x >> 8) + 1); // high byte = room, one to the left
;
	lda     _scroll_x+1
	clc
	adc     #$01
	sta     _room_to_load
;
; new_cmap();
;
	jsr     _new_cmap
;
; map_loaded = 1; // only do once
;
	lda     #$01
	sta     _map_loaded
;
; temp1 = (BoxGuy1.x - MAX_RIGHT) >> 8;
;
L3214:	lda     _BoxGuy1+1
	sec
	sbc     #$90
	sta     _temp1
;
; if (temp1 > 3)
;
	cmp     #$04
	bcc     L3608
;
; temp1 = 3; // max scroll change
;
	lda     #$03
	sta     _temp1
;
; if (max_rooms > 1) // used for single room levels
;
L3608:	lda     _max_rooms
	cmp     #$02
	bcc     L3225
;
; scroll_x += temp1;                  // scroll the window
;
	lda     _temp1
	clc
	adc     _scroll_x
	sta     _scroll_x
	lda     #$00
	adc     _scroll_x+1
	sta     _scroll_x+1
;
; high_byte(BoxGuy1.x) = high_byte(BoxGuy1.x) - temp1; // sub the offet from the guy
;
	lda     _BoxGuy1+1
	sec
	sbc     _temp1
	sta     _BoxGuy1+1
;
; if (scroll_x >= max_scroll)
;
L3225:	lda     _scroll_x
	cmp     _max_scroll
	lda     _scroll_x+1
	sbc     _max_scroll+1
	bcc     L3233
;
; scroll_x = max_scroll;      // stop scrolling right, end of level
;
	lda     _max_scroll+1
	sta     _scroll_x+1
	lda     _max_scroll
	sta     _scroll_x
;
; BoxGuy1.x = temp5;        // but allow the x position to go all the way right
;
	lda     _temp5+1
	sta     _BoxGuy1+1
	lda     _temp5
	sta     _BoxGuy1
;
; if (high_byte(BoxGuy1.x) >= 0xe0) // but limit how far right he can go
;
	lda     _BoxGuy1+1
	cmp     #$E0
	bcc     L3233
;
; BoxGuy1.x = 0xe000;
;
	ldx     #$E0
	lda     #$00
	sta     _BoxGuy1
	stx     _BoxGuy1+1
;
; }
;
L3233:	rts

.endproc

; ---------------------------------------------------------------
; unsigned char __near__ bg_collision_sub (void)
; ---------------------------------------------------------------

.segment	"CODE"

.proc	_bg_collision_sub: near

.segment	"CODE"

;
; if (temp_y >= 0xf0)
;
	lda     _temp_y
	cmp     #$F0
	ldx     #$00
	bcc     L3612
;
; return 0;
;
	txa
	rts
;
; coordinates = (temp_x >> 4) + (temp_y & 0xf0);
;
L3612:	lda     _temp_x
	lsr     a
	lsr     a
	lsr     a
	lsr     a
	sta     ptr1
	lda     _temp_y
	and     #$F0
	clc
	adc     ptr1
	sta     _coordinates
;
; map = temp_room & 1; // high byte
;
	lda     _temp_room
	and     #$01
	sta     _map
;
; if (!map)
;
	lda     _map
	bne     L2C10
;
; collision = c_map[coordinates];
;
	ldy     _coordinates
	lda     _c_map,y
;
; else
;
	jmp     L3611
;
; collision = c_map2[coordinates];
;
L2C10:	ldy     _coordinates
	lda     _c_map2,y
L3611:	sta     _collision
;
; return metatile_colision_map[collision];
;
	ldy     _collision
	lda     _metatile_colision_map,y
;
; }
;
	rts

.endproc

; ---------------------------------------------------------------
; void __near__ draw_screen_R (void)
; ---------------------------------------------------------------

.segment	"CODE"

.proc	_draw_screen_R: near

.segment	"CODE"

;
; pseudo_scroll_x = scroll_x + 0x120;
;
	lda     _scroll_x
	ldx     _scroll_x+1
	clc
	adc     #$20
	bcc     L32BA
	inx
L32BA:	inx
	sta     _pseudo_scroll_x
	stx     _pseudo_scroll_x+1
;
; temp1 = pseudo_scroll_x >> 8;
;
	lda     _pseudo_scroll_x+1
	sta     _temp1
;
; offset = level_offsets[level];
;
	ldy     _level
	lda     _level_offsets,y
	sta     _offset
;
; offset += temp1; // in place of room?!?
;
	lda     _temp1
	clc
	adc     _offset
	sta     _offset
;
; set_data_pointer(stage1_levels_list[offset]);
;
	ldx     #$00
	lda     _offset
	asl     a
	bcc     L3616
	inx
	clc
L3616:	adc     #<(_stage1_levels_list)
	sta     ptr1
	txa
	adc     #>(_stage1_levels_list)
	sta     ptr1+1
	ldy     #$01
	lda     (ptr1),y
	tax
	dey
	lda     (ptr1),y
	jsr     _set_data_pointer
;
; nt = temp1 & 1;
;
	lda     _temp1
	and     #$01
	sta     _nt
;
; x = pseudo_scroll_x & 0xff;
;
	lda     _pseudo_scroll_x
	sta     _x
;
; switch (scroll_count)
;
	lda     _scroll_count
;
; }
;
	beq     L32CE
	cmp     #$01
	beq     L32E7
	cmp     #$02
	jeq     L3301
	jmp     L331A
;
; address = get_ppu_addr(nt, x, 0);
;
L32CE:	jsr     decsp2
	lda     _nt
	ldy     #$01
	sta     (sp),y
	lda     _x
	dey
	sta     (sp),y
	tya
	jsr     _get_ppu_addr
	sta     _address
	stx     _address+1
;
; index = 0 + (x >> 4);
;
	lda     _x
	lsr     a
	lsr     a
	lsr     a
	lsr     a
	sta     _index
;
; buffer_4_mt(address, index); // ppu_address, index to the data
;
	lda     _address
	ldx     _address+1
	jsr     pushax
	lda     _index
	jsr     _buffer_4_mt
;
; address = get_ppu_addr(nt, x, 0x20);
;
	jsr     decsp2
	lda     _nt
	ldy     #$01
	sta     (sp),y
	lda     _x
	dey
	sta     (sp),y
	lda     #$20
	jsr     _get_ppu_addr
	sta     _address
	stx     _address+1
;
; index = 0x20 + (x >> 4);
;
	lda     _x
	lsr     a
	lsr     a
	lsr     a
	lsr     a
	clc
	adc     #$20
;
; break;
;
	jmp     L361B
;
; address = get_ppu_addr(nt, x, 0x40);
;
L32E7:	jsr     decsp2
	lda     _nt
	ldy     #$01
	sta     (sp),y
	lda     _x
	dey
	sta     (sp),y
	lda     #$40
	jsr     _get_ppu_addr
	sta     _address
	stx     _address+1
;
; index = 0x40 + (x >> 4);
;
	lda     _x
	lsr     a
	lsr     a
	lsr     a
	lsr     a
	clc
	adc     #$40
	sta     _index
;
; buffer_4_mt(address, index); // ppu_address, index to the data
;
	lda     _address
	ldx     _address+1
	jsr     pushax
	lda     _index
	jsr     _buffer_4_mt
;
; address = get_ppu_addr(nt, x, 0x60);
;
	jsr     decsp2
	lda     _nt
	ldy     #$01
	sta     (sp),y
	lda     _x
	dey
	sta     (sp),y
	lda     #$60
	jsr     _get_ppu_addr
	sta     _address
	stx     _address+1
;
; index = 0x60 + (x >> 4);
;
	lda     _x
	lsr     a
	lsr     a
	lsr     a
	lsr     a
	clc
	adc     #$60
;
; break;
;
	jmp     L361B
;
; address = get_ppu_addr(nt, x, 0x80);
;
L3301:	jsr     decsp2
	lda     _nt
	ldy     #$01
	sta     (sp),y
	lda     _x
	dey
	sta     (sp),y
	lda     #$80
	jsr     _get_ppu_addr
	sta     _address
	stx     _address+1
;
; index = 0x80 + (x >> 4);
;
	lda     _x
	lsr     a
	lsr     a
	lsr     a
	lsr     a
	clc
	adc     #$80
	sta     _index
;
; buffer_4_mt(address, index); // ppu_address, index to the data
;
	lda     _address
	ldx     _address+1
	jsr     pushax
	lda     _index
	jsr     _buffer_4_mt
;
; address = get_ppu_addr(nt, x, 0xa0);
;
	jsr     decsp2
	lda     _nt
	ldy     #$01
	sta     (sp),y
	lda     _x
	dey
	sta     (sp),y
	lda     #$A0
	jsr     _get_ppu_addr
	sta     _address
	stx     _address+1
;
; index = 0xa0 + (x >> 4);
;
	lda     _x
	lsr     a
	lsr     a
	lsr     a
	lsr     a
	clc
	adc     #$A0
;
; break;
;
	jmp     L361B
;
; address = get_ppu_addr(nt, x, 0xc0);
;
L331A:	jsr     decsp2
	lda     _nt
	ldy     #$01
	sta     (sp),y
	lda     _x
	dey
	sta     (sp),y
	lda     #$C0
	jsr     _get_ppu_addr
	sta     _address
	stx     _address+1
;
; index = 0xc0 + (x >> 4);
;
	lda     _x
	lsr     a
	lsr     a
	lsr     a
	lsr     a
	clc
	adc     #$C0
	sta     _index
;
; buffer_4_mt(address, index); // ppu_address, index to the data
;
	lda     _address
	ldx     _address+1
	jsr     pushax
	lda     _index
	jsr     _buffer_4_mt
;
; address = get_ppu_addr(nt, x, 0xe0);
;
	jsr     decsp2
	lda     _nt
	ldy     #$01
	sta     (sp),y
	lda     _x
	dey
	sta     (sp),y
	lda     #$E0
	jsr     _get_ppu_addr
	sta     _address
	stx     _address+1
;
; index = 0xe0 + (x >> 4);
;
	lda     _x
	lsr     a
	lsr     a
	lsr     a
	lsr     a
	clc
	adc     #$E0
L361B:	sta     _index
;
; buffer_4_mt(address, index); // ppu_address, index to the data
;
	lda     _address
	ldx     _address+1
	jsr     pushax
	lda     _index
	jsr     _buffer_4_mt
;
; ++scroll_count;
;
	inc     _scroll_count
;
; scroll_count &= 3; // mask off top bits, keep it 0-3
;
	lda     _scroll_count
	and     #$03
	sta     _scroll_count
;
; }
;
	rts

.endproc

; ---------------------------------------------------------------
; void __near__ draw_screen_L (void)
; ---------------------------------------------------------------

.segment	"CODE"

.proc	_draw_screen_L: near

.segment	"CODE"

;
; pseudo_scroll_x = scroll_x - 0x20; // Modify the scroll offset for left scroll
;
	lda     _scroll_x
	ldx     _scroll_x+1
	sec
	sbc     #$20
	bcs     L323B
	dex
L323B:	sta     _pseudo_scroll_x
	stx     _pseudo_scroll_x+1
;
; temp1 = pseudo_scroll_x >> 8;
;
	lda     _pseudo_scroll_x+1
	sta     _temp1
;
; offset = level_offsets[level];
;
	ldy     _level
	lda     _level_offsets,y
	sta     _offset
;
; offset += temp1; // in place of room?!?
;
	lda     _temp1
	clc
	adc     _offset
	sta     _offset
;
; set_data_pointer(stage1_levels_list[offset]);
;
	ldx     #$00
	lda     _offset
	asl     a
	bcc     L361E
	inx
	clc
L361E:	adc     #<(_stage1_levels_list)
	sta     ptr1
	txa
	adc     #>(_stage1_levels_list)
	sta     ptr1+1
	ldy     #$01
	lda     (ptr1),y
	tax
	dey
	lda     (ptr1),y
	jsr     _set_data_pointer
;
; nt = temp1 & 1;
;
	lda     _temp1
	and     #$01
	sta     _nt
;
; x = pseudo_scroll_x & 0xff;
;
	lda     _pseudo_scroll_x
	sta     _x
;
; switch (scroll_count)
;
	lda     _scroll_count
;
; }
;
	beq     L324F
	cmp     #$01
	beq     L3268
	cmp     #$02
	jeq     L3282
	jmp     L329B
;
; address = get_ppu_addr(nt, x, 0);
;
L324F:	jsr     decsp2
	lda     _nt
	ldy     #$01
	sta     (sp),y
	lda     _x
	dey
	sta     (sp),y
	tya
	jsr     _get_ppu_addr
	sta     _address
	stx     _address+1
;
; index = 0 + (x >> 4);
;
	lda     _x
	lsr     a
	lsr     a
	lsr     a
	lsr     a
	sta     _index
;
; buffer_4_mt(address, index); // ppu_address, index to the data
;
	lda     _address
	ldx     _address+1
	jsr     pushax
	lda     _index
	jsr     _buffer_4_mt
;
; address = get_ppu_addr(nt, x, 0x20);
;
	jsr     decsp2
	lda     _nt
	ldy     #$01
	sta     (sp),y
	lda     _x
	dey
	sta     (sp),y
	lda     #$20
	jsr     _get_ppu_addr
	sta     _address
	stx     _address+1
;
; index = 0x20 + (x >> 4);
;
	lda     _x
	lsr     a
	lsr     a
	lsr     a
	lsr     a
	clc
	adc     #$20
;
; break;
;
	jmp     L3623
;
; address = get_ppu_addr(nt, x, 0x40);
;
L3268:	jsr     decsp2
	lda     _nt
	ldy     #$01
	sta     (sp),y
	lda     _x
	dey
	sta     (sp),y
	lda     #$40
	jsr     _get_ppu_addr
	sta     _address
	stx     _address+1
;
; index = 0x40 + (x >> 4);
;
	lda     _x
	lsr     a
	lsr     a
	lsr     a
	lsr     a
	clc
	adc     #$40
	sta     _index
;
; buffer_4_mt(address, index); // ppu_address, index to the data
;
	lda     _address
	ldx     _address+1
	jsr     pushax
	lda     _index
	jsr     _buffer_4_mt
;
; address = get_ppu_addr(nt, x, 0x60);
;
	jsr     decsp2
	lda     _nt
	ldy     #$01
	sta     (sp),y
	lda     _x
	dey
	sta     (sp),y
	lda     #$60
	jsr     _get_ppu_addr
	sta     _address
	stx     _address+1
;
; index = 0x60 + (x >> 4);
;
	lda     _x
	lsr     a
	lsr     a
	lsr     a
	lsr     a
	clc
	adc     #$60
;
; break;
;
	jmp     L3623
;
; address = get_ppu_addr(nt, x, 0x80);
;
L3282:	jsr     decsp2
	lda     _nt
	ldy     #$01
	sta     (sp),y
	lda     _x
	dey
	sta     (sp),y
	lda     #$80
	jsr     _get_ppu_addr
	sta     _address
	stx     _address+1
;
; index = 0x80 + (x >> 4);
;
	lda     _x
	lsr     a
	lsr     a
	lsr     a
	lsr     a
	clc
	adc     #$80
	sta     _index
;
; buffer_4_mt(address, index); // ppu_address, index to the data
;
	lda     _address
	ldx     _address+1
	jsr     pushax
	lda     _index
	jsr     _buffer_4_mt
;
; address = get_ppu_addr(nt, x, 0xa0);
;
	jsr     decsp2
	lda     _nt
	ldy     #$01
	sta     (sp),y
	lda     _x
	dey
	sta     (sp),y
	lda     #$A0
	jsr     _get_ppu_addr
	sta     _address
	stx     _address+1
;
; index = 0xa0 + (x >> 4);
;
	lda     _x
	lsr     a
	lsr     a
	lsr     a
	lsr     a
	clc
	adc     #$A0
;
; break;
;
	jmp     L3623
;
; address = get_ppu_addr(nt, x, 0xc0);
;
L329B:	jsr     decsp2
	lda     _nt
	ldy     #$01
	sta     (sp),y
	lda     _x
	dey
	sta     (sp),y
	lda     #$C0
	jsr     _get_ppu_addr
	sta     _address
	stx     _address+1
;
; index = 0xc0 + (x >> 4);
;
	lda     _x
	lsr     a
	lsr     a
	lsr     a
	lsr     a
	clc
	adc     #$C0
	sta     _index
;
; buffer_4_mt(address, index); // ppu_address, index to the data
;
	lda     _address
	ldx     _address+1
	jsr     pushax
	lda     _index
	jsr     _buffer_4_mt
;
; address = get_ppu_addr(nt, x, 0xe0);
;
	jsr     decsp2
	lda     _nt
	ldy     #$01
	sta     (sp),y
	lda     _x
	dey
	sta     (sp),y
	lda     #$E0
	jsr     _get_ppu_addr
	sta     _address
	stx     _address+1
;
; index = 0xe0 + (x >> 4);
;
	lda     _x
	lsr     a
	lsr     a
	lsr     a
	lsr     a
	clc
	adc     #$E0
L3623:	sta     _index
;
; buffer_4_mt(address, index); // ppu_address, index to the data
;
	lda     _address
	ldx     _address+1
	jsr     pushax
	lda     _index
	jsr     _buffer_4_mt
;
; --scroll_count;   // Reverse the increment to scroll in the opposite direction
;
	dec     _scroll_count
;
; scroll_count &= 3; // mask off top bits, keep it 0-3
;
	lda     _scroll_count
	and     #$03
	sta     _scroll_count
;
; }
;
	rts

.endproc

; ---------------------------------------------------------------
; void __near__ new_cmap (void)
; ---------------------------------------------------------------

.segment	"CODE"

.proc	_new_cmap: near

.segment	"CODE"

;
; offset = level_offsets[level];
;
	ldy     _level
	lda     _level_offsets,y
	sta     _offset
;
; offset += room_to_load;
;
	lda     _room_to_load
	clc
	adc     _offset
	sta     _offset
;
; map = room_to_load & 1; // even or odd?
;
	lda     _room_to_load
	and     #$01
	sta     _map
;
; if (!map)
;
	lda     _map
	bne     L333F
;
; memcpy(c_map, stage1_levels_list[offset], 240);
;
	lda     #<(_c_map)
	ldx     #>(_c_map)
	jsr     pushax
	ldx     #$00
	lda     _offset
	asl     a
	bcc     L3626
	inx
	clc
L3626:	adc     #<(_stage1_levels_list)
	sta     ptr1
	txa
	adc     #>(_stage1_levels_list)
	sta     ptr1+1
	ldy     #$01
	lda     (ptr1),y
	tax
	dey
	lda     (ptr1),y
	jsr     pushax
	ldx     #$00
	lda     #$F0
	jsr     _memcpy
;
; temp_cmap1 = room_to_load;
;
	lda     _room_to_load
	sta     _temp_cmap1
;
; else
;
	rts
;
; memcpy(c_map2, stage1_levels_list[offset], 240);
;
L333F:	lda     #<(_c_map2)
	ldx     #>(_c_map2)
	jsr     pushax
	ldx     #$00
	lda     _offset
	asl     a
	bcc     L3627
	inx
	clc
L3627:	adc     #<(_stage1_levels_list)
	sta     ptr1
	txa
	adc     #>(_stage1_levels_list)
	sta     ptr1+1
	ldy     #$01
	lda     (ptr1),y
	tax
	dey
	lda     (ptr1),y
	jsr     pushax
	ldx     #$00
	lda     #$F0
	jsr     _memcpy
;
; temp_cmap2 = room_to_load;
;
	lda     _room_to_load
	sta     _temp_cmap2
;
; }
;
	rts

.endproc

; ---------------------------------------------------------------
; void __near__ handle_scrolling (void)
; ---------------------------------------------------------------

.segment	"CODE"

.proc	_handle_scrolling: near

.segment	"CODE"

;
; if (!r_scroll_frames && !l_scroll_frames)
;
	lda     _r_scroll_frames
	bne     L2F28
	lda     _l_scroll_frames
	bne     L2F28
;
; if (direction == RIGHT)
;
	lda     _direction
	cmp     #$01
	bne     L3628
;
; r_scroll_frames = 4;
;
	lda     #$04
	sta     _r_scroll_frames
;
; else
;
	jmp     L2F28
;
; l_scroll_frames = 4;
;
L3628:	lda     #$04
	sta     _l_scroll_frames
;
; if (r_scroll_frames)
;
L2F28:	lda     _r_scroll_frames
	beq     L2F2B
;
; draw_screen_R();
;
	jsr     _draw_screen_R
;
; --r_scroll_frames;
;
	dec     _r_scroll_frames
;
; else if (l_scroll_frames)
;
	rts
L2F2B:	lda     _l_scroll_frames
	beq     L2F30
;
; draw_screen_L();
;
	jsr     _draw_screen_L
;
; --l_scroll_frames;
;
	dec     _l_scroll_frames
;
; }
;
L2F30:	rts

.endproc

; ---------------------------------------------------------------
; void __near__ projectile_movement (void)
; ---------------------------------------------------------------

.segment	"CODE"

.proc	_projectile_movement: near

.segment	"CODE"

;
; for (temp1 = 0; temp1 < 3; ++temp1)
;
	lda     #$00
	sta     _temp1
L362A:	lda     _temp1
	cmp     #$03
	bcc     L3631
;
; }
;
	rts
;
; if (projectiles_list[temp1] != TURN_OFF)
;
L3631:	ldy     _temp1
	lda     _projectiles_list,y
	cmp     #$FF
	jeq     L3630
;
; if (projectiles_x[temp1] > 250)
;
	ldy     _temp1
	lda     _projectiles_x,y
	cmp     #$FB
	bcc     L2EEE
;
; projectiles_list[temp1] = TURN_OFF;
;
	ldy     _temp1
	lda     #$FF
	sta     _projectiles_list,y
;
; else
;
	jmp     L3630
;
; if (projectiles_list[temp1] == RIGHT)
;
L2EEE:	ldy     _temp1
	lda     _projectiles_list,y
	cmp     #$01
	bne     L2EF7
;
; if ((BoxGuy1.x <= MAX_LEFT) && (pad1 & PAD_LEFT))
;
	lda     _BoxGuy1+1
	cmp     #$40
	bne     L2EFE
	lda     _BoxGuy1
	cmp     #$01
L2EFE:	bcs     L2EFB
	lda     _pad1
	and     #$02
	beq     L2EFB
;
; projectiles_x[temp1] += PROJECTILE_SPEED_WITH_SCROLL;
;
	lda     #<(_projectiles_x)
	ldx     #>(_projectiles_x)
	clc
	adc     _temp1
	bcc     L2F04
	inx
L2F04:	sta     ptr1
	stx     ptr1+1
	ldy     #$00
	lda     (ptr1),y
	clc
	adc     #$05
;
; else
;
	jmp     L3629
;
; projectiles_x[temp1] += PROJECTILE_SPEED;
;
L2EFB:	lda     #<(_projectiles_x)
	ldx     #>(_projectiles_x)
	clc
	adc     _temp1
	bcc     L2F09
	inx
L2F09:	sta     ptr1
	stx     ptr1+1
	ldy     #$00
	lda     (ptr1),y
	clc
	adc     #$03
;
; else if (projectiles_list[temp1] == LEFT)
;
	jmp     L3629
L2EF7:	ldy     _temp1
	lda     _projectiles_list,y
	bne     L3630
;
; if ((BoxGuy1.x >= MAX_RIGHT) && (pad1 & PAD_RIGHT))
;
	lda     _BoxGuy1
	cmp     #$00
	lda     _BoxGuy1+1
	sbc     #$90
	bcc     L2F10
	lda     _pad1
	and     #$01
	beq     L2F10
;
; projectiles_x[temp1] -= PROJECTILE_SPEED_WITH_SCROLL;
;
	lda     #<(_projectiles_x)
	ldx     #>(_projectiles_x)
	clc
	adc     _temp1
	bcc     L2F18
	inx
L2F18:	sta     ptr1
	stx     ptr1+1
	ldy     #$00
	lda     (ptr1),y
	sec
	sbc     #$05
;
; else
;
	jmp     L3629
;
; projectiles_x[temp1] -= PROJECTILE_SPEED;
;
L2F10:	lda     #<(_projectiles_x)
	ldx     #>(_projectiles_x)
	clc
	adc     _temp1
	bcc     L2F1D
	inx
L2F1D:	sta     ptr1
	stx     ptr1+1
	ldy     #$00
	lda     (ptr1),y
	sec
	sbc     #$03
L3629:	sta     (ptr1),y
;
; for (temp1 = 0; temp1 < 3; ++temp1)
;
L3630:	inc     _temp1
	jmp     L362A

.endproc

; ---------------------------------------------------------------
; void __near__ check_spr_objects (void)
; ---------------------------------------------------------------

.segment	"CODE"

.proc	_check_spr_objects: near

.segment	"CODE"

;
; ++enemy_frames;
;
	inc     _enemy_frames
;
; Generic2.x = high_byte(BoxGuy1.x);
;
	lda     _BoxGuy1+1
	sta     _Generic2
;
; for (index = 0; index < MAX_ENEMY; ++index)
;
	lda     #$00
	sta     _index
L3632:	lda     _index
	cmp     #$10
	bcs     L3389
;
; enemy_active[index] = 0; // default to zero
;
	ldy     _index
	lda     #$00
	sta     _enemy_active,y
;
; if (enemy_y[index] != TURN_OFF)
;
	ldy     _index
	lda     _enemy_y,y
	cmp     #$FF
	beq     L3634
;
; high_byte(temp5) = enemy_room[index];
;
	ldy     _index
	lda     _enemy_room,y
	sta     _temp5+1
;
; low_byte(temp5) = enemy_actual_x[index];
;
	ldy     _index
	lda     _enemy_actual_x,y
	sta     _temp5
;
; temp1 = enemy_active[index] = get_position();
;
	lda     #<(_enemy_active)
	ldx     #>(_enemy_active)
	clc
	adc     _index
	bcc     L33A5
	inx
L33A5:	jsr     pushax
	jsr     _get_position
	ldy     #$00
	jsr     staspidx
	sta     _temp1
;
; if (temp1 == 0 || enemy_health[index] == 0)
;
	lda     _temp1
	beq     L3634
	ldy     _index
	lda     _enemy_health,y
	beq     L3634
;
; enemy_x[index] = temp_x; // screen x coords
;
	ldy     _index
	lda     _temp_x
	sta     _enemy_x,y
;
; enemy_moves(); // if active, do it's moves now
;
	jsr     _enemy_moves
;
; for (index = 0; index < MAX_ENEMY; ++index)
;
L3634:	inc     _index
	jmp     L3632
;
; }
;
L3389:	rts

.endproc

; ---------------------------------------------------------------
; void __near__ check_entity_objects (void)
; ---------------------------------------------------------------

.segment	"CODE"

.proc	_check_entity_objects: near

.segment	"CODE"

;
; Generic2.x = high_byte(BoxGuy1.x);
;
	lda     _BoxGuy1+1
	sta     _Generic2
;
; for (index = 0; index < MAX_ENTITY; ++index)
;
	lda     #$00
	sta     _index
L3635:	lda     _index
	cmp     #$10
	bcs     L335F
;
; entity_active[index] = 0; // default to zero
;
	ldy     _index
	lda     #$00
	sta     _entity_active,y
;
; if (entity_y[index] != TURN_OFF)
;
	ldy     _index
	lda     _entity_y,y
	cmp     #$FF
	beq     L3636
;
; high_byte(temp5) = entity_room[index];
;
	ldy     _index
	lda     _entity_room,y
	sta     _temp5+1
;
; low_byte(temp5) = entity_actual_x[index];
;
	ldy     _index
	lda     _entity_actual_x,y
	sta     _temp5
;
; temp1 = entity_active[index] = get_position();
;
	lda     #<(_entity_active)
	ldx     #>(_entity_active)
	clc
	adc     _index
	bcc     L337B
	inx
L337B:	jsr     pushax
	jsr     _get_position
	ldy     #$00
	jsr     staspidx
	sta     _temp1
;
; if (temp1 == 0)
;
	lda     _temp1
;
; continue;
;
	beq     L3636
;
; entity_x[index] = temp_x; // screen x coords
;
	ldy     _index
	lda     _temp_x
	sta     _entity_x,y
;
; for (index = 0; index < MAX_ENTITY; ++index)
;
L3636:	inc     _index
	jmp     L3635
;
; }
;
L335F:	rts

.endproc

; ---------------------------------------------------------------
; void __near__ sprite_collisions (void)
; ---------------------------------------------------------------

.segment	"CODE"

.proc	_sprite_collisions: near

.segment	"CODE"

;
; Generic.x = high_byte(BoxGuy1.x);
;
	lda     _BoxGuy1+1
	sta     _Generic
;
; Generic.y = high_byte(BoxGuy1.y);
;
	lda     _BoxGuy1+3
	sta     _Generic+1
;
; Generic2.width = ENEMY_WIDTH;
;
	lda     #$0D
	sta     _Generic2+2
;
; Generic2.height = ENEMY_HEIGHT;
;
	sta     _Generic2+3
;
; for (index = 0; index < MAX_ENEMY; ++index)
;
	lda     #$00
	sta     _index
L3637:	lda     _index
	cmp     #$10
	bcs     L3557
;
; if (enemy_active[index])
;
	ldy     _index
	lda     _enemy_active,y
	beq     L3638
;
; Generic2.x = enemy_x[index];
;
	ldy     _index
	lda     _enemy_x,y
	sta     _Generic2
;
; Generic2.y = enemy_y[index];
;
	ldy     _index
	lda     _enemy_y,y
	sta     _Generic2+1
;
; if (check_collision(&Generic, &Generic2))
;
	lda     #<(_Generic)
	ldx     #>(_Generic)
	jsr     pushax
	lda     #<(_Generic2)
	ldx     #>(_Generic2)
	jsr     _check_collision
	tax
	beq     L3638
;
; switch (enemy_type[index])
;
	ldy     _index
	lda     _enemy_type,y
;
; }
;
	bne     L3638
;
; if (invul_frames == 0)
;
	lda     _invul_frames
	bne     L3638
;
; BoxGuy1.health -= ENEMY_SNAIL_DAMAGE; // check for overflow
;
	lda     _BoxGuy1+8
	sec
	sbc     #$02
	sta     _BoxGuy1+8
;
; player_in_hitstun = ENEMY_SNAIL_PLAYER_HITSTUN;
;
	lda     #$1E
	sta     _player_in_hitstun
;
; invul_frames = ENEMY_SNAIL_PLAYER_INVUL;
;
	lda     #$64
	sta     _invul_frames
;
; for (index = 0; index < MAX_ENEMY; ++index)
;
L3638:	inc     _index
	jmp     L3637
;
; }
;
L3557:	rts

.endproc

; ---------------------------------------------------------------
; void __near__ entity_collisions (void)
; ---------------------------------------------------------------

.segment	"CODE"

.proc	_entity_collisions: near

.segment	"CODE"

;
; Generic.x = high_byte(BoxGuy1.x);
;
	lda     _BoxGuy1+1
	sta     _Generic
;
; Generic.y = high_byte(BoxGuy1.y);
;
	lda     _BoxGuy1+3
	sta     _Generic+1
;
; Generic.width = HERO_WIDTH;
;
	lda     #$0E
	sta     _Generic+2
;
; Generic.height = HERO_HEIGHT;
;
	sta     _Generic+3
;
; for (index = 0; index < MAX_ENTITY; ++index)
;
	lda     #$00
	sta     _index
L363A:	lda     _index
	cmp     #$10
	bcc     L3640
;
; }
;
	rts
;
; if (entity_active[index])
;
L3640:	ldy     _index
	lda     _entity_active,y
	beq     L363F
;
; switch (entity_type[index])
;
	ldy     _index
	lda     _entity_type,y
;
; }
;
	cmp     #$01
	bne     L363B
;
; Generic2.width = 64;
;
	lda     #$40
	sta     _Generic2+2
;
; Generic2.height = 16;
;
	lda     #$10
;
; break;
;
	jmp     L3639
;
; Generic2.width = 16;
;
L363B:	lda     #$10
	sta     _Generic2+2
;
; Generic2.height = 16;
;
L3639:	sta     _Generic2+3
;
; Generic2.x = entity_x[index];
;
	ldy     _index
	lda     _entity_x,y
	sta     _Generic2
;
; Generic2.y = entity_y[index];
;
	ldy     _index
	lda     _entity_y,y
	sta     _Generic2+1
;
; if (entity_type[index] == ENTITY_PIT_WIDE_64) // for full lenght check?
;
	ldy     _index
	lda     _entity_type,y
	cmp     #$02
	bne     L352E
;
; if (Generic.y >= Generic2.y)
;
	lda     _Generic+1
	cmp     _Generic2+1
	bcc     L363F
;
; death_flag = 30; // 30 frames the player can die in
;
	lda     #$1E
	sta     _death_flag
;
; else if (check_collision(&Generic, &Generic2))
;
	jmp     L363F
L352E:	lda     #<(_Generic)
	ldx     #>(_Generic)
	jsr     pushax
	lda     #<(_Generic2)
	ldx     #>(_Generic2)
	jsr     _check_collision
	tax
	beq     L363F
;
; switch (entity_type[index])
;
	ldy     _index
	lda     _entity_type,y
;
; }
;
	beq     L363D
	cmp     #$01
	beq     L363C
	cmp     #$03
	beq     L363E
	jmp     L363F
;
; death_flag = 30; // 30 frames the player can die in
;
L363C:	lda     #$1E
	sta     _death_flag
;
; break;
;
	jmp     L363F
;
; ++level_up;
;
L363D:	inc     _level_up
;
; break;
;
	jmp     L363F
;
; ++level_down;
;
L363E:	inc     _level_down
;
; for (index = 0; index < MAX_ENTITY; ++index)
;
L363F:	inc     _index
	jmp     L363A

.endproc

; ---------------------------------------------------------------
; void __near__ enemy_moves (void)
; ---------------------------------------------------------------

.segment	"CODE"

.proc	_enemy_moves: near

.segment	"CODE"

;
; for (temp1 = 0; temp1 < MAX_PROJECTILES; ++temp1)
;
	lda     #$00
	sta     _temp1
L3652:	lda     _temp1
	cmp     #$03
	jcs     L33F7
;
; if (projectiles_list[temp1] != TURN_OFF)
;
	ldy     _temp1
	lda     _projectiles_list,y
	cmp     #$FF
	jeq     L3658
;
; (enemy_x[index] > projectiles_x[temp1] - 5 && enemy_x[index] < projectiles_x[temp1] + 5) &&
;
	ldy     _index
	lda     _enemy_x,y
	jsr     pusha0
	ldy     _temp1
	lda     _projectiles_x,y
	sec
	sbc     #$05
	bcs     L3409
	ldx     #$FF
L3409:	jsr     tosicmp
	jcc     L3658
	jeq     L3658
	ldy     _index
	lda     _enemy_x,y
	jsr     pusha0
	ldy     _temp1
	lda     _projectiles_x,y
	clc
	adc     #$05
	bcc     L340F
	ldx     #$01
L340F:	jsr     tosicmp
	bcs     L3658
;
; (enemy_y[index] > projectiles_y[temp1] - 30 && enemy_y[index] < projectiles_y[temp1] + 30))
;
	ldy     _index
	lda     _enemy_y,y
	jsr     pusha0
	ldy     _temp1
	lda     _projectiles_y,y
	sec
	sbc     #$1E
	bcs     L3417
	ldx     #$FF
L3417:	jsr     tosicmp
	bcc     L3658
	beq     L3658
	ldy     _index
	lda     _enemy_y,y
	jsr     pusha0
	ldy     _temp1
	lda     _projectiles_y,y
	clc
	adc     #$1E
	bcc     L341D
	ldx     #$01
L341D:	jsr     tosicmp
	bcs     L3658
;
; projectiles_list[temp1] = TURN_OFF;
;
	ldy     _temp1
	lda     #$FF
	sta     _projectiles_list,y
;
; --enemy_health[index];
;
	lda     #<(_enemy_health)
	ldx     #>(_enemy_health)
	clc
	adc     _index
	bcc     L3426
	inx
L3426:	sta     ptr1
	stx     ptr1+1
	ldy     #$00
	lda     (ptr1),y
	sec
	sbc     #$01
	sta     (ptr1),y
;
; if (enemy_health[index] == 0 || enemy_health[index] > 240) // check for overflow with 240
;
	ldy     _index
	lda     _enemy_health,y
	beq     L3657
	ldy     _index
	lda     _enemy_health,y
	cmp     #$F1
	bcc     L3658
;
; enemy_y[index] = TURN_OFF;
;
L3657:	ldy     _index
	lda     #$FF
	sta     _enemy_y,y
;
; enemy_active[index] = 0;
;
	ldy     _index
	lda     #$00
	sta     _enemy_active,y
;
; for (temp1 = 0; temp1 < MAX_PROJECTILES; ++temp1)
;
L3658:	inc     _temp1
	jmp     L3652
;
; if (enemy_type[index] == ENEMY_SNAIL)
;
L33F7:	ldy     _index
	lda     _enemy_type,y
	beq     L3660
;
; }
;
	rts
;
; Generic.x = enemy_x[index];
;
L3660:	ldy     _index
	lda     _enemy_x,y
	sta     _Generic
;
; Generic.y = enemy_y[index] + 6; // mid point
;
	ldy     _index
	lda     _enemy_y,y
	clc
	adc     #$06
	sta     _Generic+1
;
; Generic.width = ENEMY_SNAIL_WIDTH;
;
	lda     #$0D
	sta     _Generic+2
;
; Generic.height = ENEMY_SNAIL_HEIGHT;
;
	lda     #$0F
	sta     _Generic+3
;
; if (enemy_frames < 10)
;
	lda     _enemy_frames
	cmp     #$0A
	bcs     L365A
;
; if (enemy_dir[index] == LEFT)
;
	ldy     _index
	ldx     #$00
	lda     _enemy_dir,y
	bne     L3659
;
; enemy_anim[index] = animate_snail1left_data;
;
	lda     _index
	asl     a
	bcc     L364A
	inx
	clc
L364A:	adc     #<(_enemy_anim)
	sta     ptr1
	txa
	adc     #>(_enemy_anim)
	sta     ptr1+1
	lda     #<(_animate_snail1left_data)
	ldy     #$00
	sta     (ptr1),y
	iny
	lda     #>(_animate_snail1left_data)
	sta     (ptr1),y
;
; else
;
	jmp     L3470
;
; enemy_anim[index] = animate_snail1right_data;
;
L3659:	lda     _index
	asl     a
	bcc     L364B
	inx
	clc
L364B:	adc     #<(_enemy_anim)
	sta     ptr1
	txa
	adc     #>(_enemy_anim)
	sta     ptr1+1
	lda     #<(_animate_snail1right_data)
	ldy     #$00
	sta     (ptr1),y
	iny
	lda     #>(_animate_snail1right_data)
	sta     (ptr1),y
;
; else if (enemy_frames < 20)
;
	jmp     L3470
L365A:	lda     _enemy_frames
	cmp     #$14
	bcs     L365C
;
; if (enemy_dir[index] == LEFT)
;
	ldy     _index
	ldx     #$00
	lda     _enemy_dir,y
	bne     L365B
;
; enemy_anim[index] = animate_snail2left_data;
;
	lda     _index
	asl     a
	bcc     L364C
	inx
	clc
L364C:	adc     #<(_enemy_anim)
	sta     ptr1
	txa
	adc     #>(_enemy_anim)
	sta     ptr1+1
	lda     #<(_animate_snail2left_data)
	ldy     #$00
	sta     (ptr1),y
	iny
	lda     #>(_animate_snail2left_data)
	sta     (ptr1),y
;
; else
;
	jmp     L3470
;
; enemy_anim[index] = animate_snail2right_data;
;
L365B:	lda     _index
	asl     a
	bcc     L364D
	inx
	clc
L364D:	adc     #<(_enemy_anim)
	sta     ptr1
	txa
	adc     #>(_enemy_anim)
	sta     ptr1+1
	lda     #<(_animate_snail2right_data)
	ldy     #$00
	sta     (ptr1),y
	iny
	lda     #>(_animate_snail2right_data)
	sta     (ptr1),y
;
; else if (enemy_frames < 30)
;
	jmp     L3470
L365C:	lda     _enemy_frames
	cmp     #$1E
	bcs     L3463
;
; if (enemy_dir[index] == LEFT)
;
	ldy     _index
	ldx     #$00
	lda     _enemy_dir,y
	bne     L365D
;
; enemy_anim[index] = animate_snail3left_data;
;
	lda     _index
	asl     a
	bcc     L364E
	inx
	clc
L364E:	adc     #<(_enemy_anim)
	sta     ptr1
	txa
	adc     #>(_enemy_anim)
	sta     ptr1+1
	lda     #<(_animate_snail3left_data)
	ldy     #$00
	sta     (ptr1),y
	iny
	lda     #>(_animate_snail3left_data)
	sta     (ptr1),y
;
; else
;
	jmp     L3470
;
; enemy_anim[index] = animate_snail3right_data;
;
L365D:	lda     _index
	asl     a
	bcc     L364F
	inx
	clc
L364F:	adc     #<(_enemy_anim)
	sta     ptr1
	txa
	adc     #>(_enemy_anim)
	sta     ptr1+1
	lda     #<(_animate_snail3right_data)
	ldy     #$00
	sta     (ptr1),y
	iny
	lda     #>(_animate_snail3right_data)
	sta     (ptr1),y
;
; else
;
	jmp     L3470
;
; if (enemy_dir[index] == LEFT)
;
L3463:	ldy     _index
	ldx     #$00
	lda     _enemy_dir,y
	bne     L365E
;
; enemy_anim[index] = animate_snail3left_data;
;
	lda     _index
	asl     a
	bcc     L3650
	inx
	clc
L3650:	adc     #<(_enemy_anim)
	sta     ptr1
	txa
	adc     #>(_enemy_anim)
	sta     ptr1+1
	lda     #<(_animate_snail3left_data)
	ldy     #$00
	sta     (ptr1),y
	iny
	lda     #>(_animate_snail3left_data)
;
; else
;
	jmp     L365F
;
; enemy_anim[index] = animate_snail3right_data;
;
L365E:	lda     _index
	asl     a
	bcc     L3651
	inx
	clc
L3651:	adc     #<(_enemy_anim)
	sta     ptr1
	txa
	adc     #>(_enemy_anim)
	sta     ptr1+1
	lda     #<(_animate_snail3right_data)
	ldy     #$00
	sta     (ptr1),y
	iny
	lda     #>(_animate_snail3right_data)
L365F:	sta     (ptr1),y
;
; enemy_frames = 0;
;
	lda     #$00
	sta     _enemy_frames
;
; if (frame_counter % 3 == 0)
;
L3470:	lda     _frame_counter
	jsr     pusha0
	lda     #$03
	jsr     tosumoda0
	cpx     #$00
	beq     L3661
;
; }
;
	rts
;
; if (frame_counter % 3 == 0)
;
L3661:	cmp     #$00
	beq     L3662
;
; }
;
	rts
;
; if (enemy_x[index] > Generic2.x)
;
L3662:	ldy     _index
	lda     _enemy_x,y
	sec
	sbc     _Generic2
	bcc     L3481
	beq     L3481
;
; Generic.x -= 1; // test going left
;
	dec     _Generic
;
; bg_collision_fast();
;
	jsr     _bg_collision_fast
;
; if (collision_L)
;
	lda     _collision_L
;
; return;
;
	beq     L3663
;
; }
;
	rts
;
; if (collision_D) // needs ground under it
;
L3663:	lda     _collision_D
	bne     L3664
;
; }
;
	rts
;
; if (enemy_actual_x[index] == 0)
;
L3664:	ldy     _index
	lda     _enemy_actual_x,y
	bne     L348C
;
; --enemy_room[index];
;
	lda     #<(_enemy_room)
	ldx     #>(_enemy_room)
	clc
	adc     _index
	bcc     L3492
	inx
L3492:	sta     ptr1
	stx     ptr1+1
	ldy     #$00
	lda     (ptr1),y
	sec
	sbc     #$01
	sta     (ptr1),y
;
; --enemy_actual_x[index];
;
L348C:	lda     #<(_enemy_actual_x)
	ldx     #>(_enemy_actual_x)
	clc
	adc     _index
	bcc     L3495
	inx
L3495:	sta     ptr1
	stx     ptr1+1
	ldy     #$00
	lda     (ptr1),y
	sec
	sbc     #$01
	sta     (ptr1),y
;
; enemy_dir[index] = LEFT;
;
	ldy     _index
	lda     #$00
	sta     _enemy_dir,y
;
; else if (enemy_x[index] < Generic2.x)
;
	rts
L3481:	ldy     _index
	lda     _enemy_x,y
	cmp     _Generic2
	bcs     L34AD
;
; Generic.x += 1; // test going right
;
	inc     _Generic
;
; bg_collision_fast();
;
	jsr     _bg_collision_fast
;
; if (collision_R)
;
	lda     _collision_R
;
; return;
;
	bne     L34AD
;
; if (collision_D)
;
	lda     _collision_D
	beq     L34AD
;
; ++enemy_actual_x[index];
;
	lda     #<(_enemy_actual_x)
	ldx     #>(_enemy_actual_x)
	clc
	adc     _index
	bcc     L34A8
	inx
L34A8:	sta     ptr1
	stx     ptr1+1
	ldy     #$00
	lda     #$01
	clc
	adc     (ptr1),y
	sta     (ptr1),y
;
; enemy_dir[index] = RIGHT;
;
	ldy     _index
	lda     #$01
	sta     _enemy_dir,y
;
; if (enemy_actual_x[index] == 0)
;
	ldy     _index
	lda     _enemy_actual_x,y
	bne     L34AD
;
; ++enemy_room[index];
;
	lda     #<(_enemy_room)
	ldx     #>(_enemy_room)
	clc
	adc     _index
	bcc     L34B3
	inx
L34B3:	sta     ptr1
	stx     ptr1+1
	ldy     #$00
	lda     #$01
	clc
	adc     (ptr1),y
	sta     (ptr1),y
;
; }
;
L34AD:	rts

.endproc

; ---------------------------------------------------------------
; void __near__ reset (void)
; ---------------------------------------------------------------

.segment	"CODE"

.proc	_reset: near

.segment	"CODE"

;
; ppu_wait_nmi();
;
	jsr     _ppu_wait_nmi
;
; ppu_off();   // screen off
;
	jsr     _ppu_off
;
; pal_bright(4); // back to normal brightness
;
	lda     #$04
	jsr     _pal_bright
;
; scroll_x = 0;
;
	lda     #$00
	sta     _scroll_x
	sta     _scroll_x+1
;
; scroll_y = 0;
;
	sta     _scroll_y
	sta     _scroll_y+1
;
; map_loaded = 0;
;
	sta     _map_loaded
;
; player_in_air = 0;
;
	sta     _player_in_air
;
; player_on_ladder = 0;
;
	sta     _player_on_ladder
;
; player_running = 0;
;
	sta     _player_running
;
; short_jump_count = 0;
;
	sta     _short_jump_count
;
; multi_jump = 0;
;
	sta     _multi_jump
;
; projectile_cooldown = 0;
;
	sta     _projectile_cooldown
;
; projectile_count = 0;
;
	sta     _projectile_count
;
; projectile_index = 0;
;
	sta     _projectile_index
;
; player_shooting = 0;
;
	sta     _player_shooting
;
; direction = 1;
;
	lda     #$01
	sta     _direction
;
; direction_y = 0; // down default?
;
	lda     #$00
	sta     _direction_y
;
; frame_counter = 0;
;
	sta     _frame_counter
;
; sprite_frame_counter = 0;
;
	sta     _sprite_frame_counter
;
; r_scroll_frames = 0;
;
	sta     _r_scroll_frames
;
; l_scroll_frames = 0;
;
	sta     _l_scroll_frames
;
; collision = 0;
;
	sta     _collision
;
; death = 0;
;
	sta     _death
;
; BoxGuy1.x = 0x4000;
;
	ldx     #$40
	sta     _BoxGuy1
	stx     _BoxGuy1+1
;
; BoxGuy1.y = 0x8400;
;
	ldx     #$84
	sta     _BoxGuy1+2
	stx     _BoxGuy1+2+1
;
; BoxGuy1.health = MAX_PLAYER_HEALTH;
;
	lda     #$1C
	sta     _BoxGuy1+8
;
; invul_frames = 0;
;
	lda     #$00
	sta     _invul_frames
;
; game_mode = MODE_GAME;
;
	lda     #$01
	sta     _game_mode
;
; level = 0;    // debug, change starting level
;
	lda     #$00
	sta     _level
;
; room_to_load = 0; // debug, hacky, change starting room
;
	sta     _room_to_load
;
; debug = 0;
;
	sta     _debug
;
; player_in_hitstun = 0;
;
	sta     _player_in_hitstun
;
; invul_frames = 0;
;
	sta     _invul_frames
;
; for (temp1 = 0; temp1 < MAX_PROJECTILES; ++temp1)
;
	sta     _temp1
L3665:	lda     _temp1
	cmp     #$03
	bcs     L3666
;
; projectiles_list[temp1] = TURN_OFF;
;
	ldy     _temp1
	lda     #$FF
	sta     _projectiles_list,y
;
; for (temp1 = 0; temp1 < MAX_PROJECTILES; ++temp1)
;
	inc     _temp1
	jmp     L3665
;
; for (temp1 = 0; temp1 < MAX_ENTITY; ++temp1)
;
L3666:	lda     #$00
	sta     _temp1
L3667:	lda     _temp1
	cmp     #$10
	bcs     L3668
;
; entity_y[temp1] = TURN_OFF;
;
	ldy     _temp1
	lda     #$FF
	sta     _entity_y,y
;
; for (temp1 = 0; temp1 < MAX_ENTITY; ++temp1)
;
	inc     _temp1
	jmp     L3667
;
; for (temp1 = 0; temp1 < MAX_ENEMY; ++temp1)
;
L3668:	lda     #$00
	sta     _temp1
L3669:	lda     _temp1
	cmp     #$10
	bcs     L2EC7
;
; enemy_y[temp1] = TURN_OFF;
;
	ldy     _temp1
	lda     #$FF
	sta     _enemy_y,y
;
; for (temp1 = 0; temp1 < MAX_ENEMY; ++temp1)
;
	inc     _temp1
	jmp     L3669
;
; ppu_mask(0); // grayscale mode
;
L2EC7:	lda     #$00
	jsr     _ppu_mask
;
; pal_bg(palette_bg);
;
	lda     #<(_palette_bg)
	ldx     #>(_palette_bg)
	jsr     _pal_bg
;
; pal_spr(palette_sp);
;
	lda     #<(_palette_sp)
	ldx     #>(_palette_sp)
	jsr     _pal_spr
;
; bank_spr(0);
;
	lda     #$00
	jsr     _bank_spr
;
; bank_bg(1);
;
	lda     #$01
	jsr     _bank_bg
;
; set_vram_buffer(); // do at least once, sets a pointer to a buffer
;
	jsr     _set_vram_buffer
;
; load_room();
;
	jsr     _load_room
;
; set_scroll_y(0xff); // shift the bg down 1 pixel
;
	ldx     #$00
	lda     #$FF
	jsr     _set_scroll_y
;
; ppu_on_all(); // turn on screen
;
	jmp     _ppu_on_all

.endproc

; ---------------------------------------------------------------
; void __near__ sprite_obj_init (void)
; ---------------------------------------------------------------

.segment	"CODE"

.proc	_sprite_obj_init: near

.segment	"CODE"

;
; pointer = Enemy_list[level];
;
	ldx     #$00
	lda     _level
	asl     a
	bcc     L3670
	inx
	clc
L3670:	adc     #<(_Enemy_list)
	sta     ptr1
	txa
	adc     #>(_Enemy_list)
	sta     ptr1+1
	ldy     #$01
	lda     (ptr1),y
	sta     _pointer+1
	dey
	lda     (ptr1),y
	sta     _pointer
;
; for (index = 0, index2 = 0; index < MAX_ENEMY; ++index)
;
	tya
	sta     _index
	sta     _index2
L3671:	lda     _index
	cmp     #$10
	jcs     L3673
;
; enemy_x[index] = 0;
;
	ldy     _index
	lda     #$00
	sta     _enemy_x,y
;
; temp1 = pointer[index2]; // get a byte of data
;
	lda     _pointer
	ldx     _pointer+1
	ldy     _index2
	sta     ptr1
	stx     ptr1+1
	lda     (ptr1),y
	sta     _temp1
;
; enemy_y[index] = temp1;
;
	ldy     _index
	lda     _temp1
	sta     _enemy_y,y
;
; if (temp1 == TURN_OFF)
;
	lda     _temp1
	cmp     #$FF
;
; break;
;
	beq     L3673
;
; ++index2;
;
	inc     _index2
;
; enemy_active[index] = 0;
;
	ldy     _index
	lda     #$00
	sta     _enemy_active,y
;
; temp1 = pointer[index2]; // get a byte of data
;
	lda     _pointer
	ldx     _pointer+1
	ldy     _index2
	sta     ptr1
	stx     ptr1+1
	lda     (ptr1),y
	sta     _temp1
;
; enemy_room[index] = temp1;
;
	ldy     _index
	lda     _temp1
	sta     _enemy_room,y
;
; ++index2;
;
	inc     _index2
;
; temp1 = pointer[index2]; // get a byte of data
;
	lda     _pointer
	ldx     _pointer+1
	ldy     _index2
	sta     ptr1
	stx     ptr1+1
	lda     (ptr1),y
	sta     _temp1
;
; enemy_actual_x[index] = temp1;
;
	ldy     _index
	lda     _temp1
	sta     _enemy_actual_x,y
;
; ++index2;
;
	inc     _index2
;
; temp1 = pointer[index2]; // get a byte of data
;
	lda     _pointer
	ldx     _pointer+1
	ldy     _index2
	sta     ptr1
	stx     ptr1+1
	lda     (ptr1),y
	sta     _temp1
;
; enemy_type[index] = temp1;
;
	ldy     _index
	lda     _temp1
	sta     _enemy_type,y
;
; if (enemy_type[index] == ENEMY_SNAIL)
;
	ldy     _index
	lda     _enemy_type,y
	bne     L3672
;
; enemy_health[index] = ENEMY_SNAIL_HEALTH; // set enemy health here
;
	ldy     _index
	lda     #$02
	sta     _enemy_health,y
;
; ++index2;
;
L3672:	inc     _index2
;
; for (index = 0, index2 = 0; index < MAX_ENEMY; ++index)
;
	inc     _index
	jmp     L3671
;
; for (++index; index < MAX_ENEMY; ++index)
;
L3673:	inc     _index
	lda     _index
	cmp     #$10
	bcs     L34F5
;
; enemy_y[index] = TURN_OFF;
;
	ldy     _index
	lda     #$FF
	sta     _enemy_y,y
;
; for (++index; index < MAX_ENEMY; ++index)
;
	jmp     L3673
;
; }
;
L34F5:	rts

.endproc

; ---------------------------------------------------------------
; void __near__ entity_obj_init (void)
; ---------------------------------------------------------------

.segment	"CODE"

.proc	_entity_obj_init: near

.segment	"CODE"

;
; pointer = entity_list[level];
;
	ldx     #$00
	lda     _level
	asl     a
	bcc     L3679
	inx
	clc
L3679:	adc     #<(_entity_list)
	sta     ptr1
	txa
	adc     #>(_entity_list)
	sta     ptr1+1
	ldy     #$01
	lda     (ptr1),y
	sta     _pointer+1
	dey
	lda     (ptr1),y
	sta     _pointer
;
; for (index = 0; index < MAX_ENTITY; ++index)
;
	sty     _index
L367A:	lda     _index
	cmp     #$10
	bcs     L367B
;
; entity_y[index] = TURN_OFF; // turn off all objects
;
	ldy     _index
	lda     #$FF
	sta     _entity_y,y
;
; for (index = 0; index < MAX_ENTITY; ++index)
;
	inc     _index
	jmp     L367A
;
; for (index = 0, index2 = 0; index < MAX_ENTITY; ++index)
;
L367B:	lda     #$00
	sta     _index
	sta     _index2
L367C:	lda     _index
	cmp     #$10
	bcc     L367D
;
; }
;
	rts
;
; entity_x[index] = 0;
;
L367D:	ldy     _index
	lda     #$00
	sta     _entity_x,y
;
; temp1 = pointer[index2]; // get a byte of data
;
	lda     _pointer
	ldx     _pointer+1
	ldy     _index2
	sta     ptr1
	stx     ptr1+1
	lda     (ptr1),y
	sta     _temp1
;
; entity_y[index] = temp1;
;
	ldy     _index
	lda     _temp1
	sta     _entity_y,y
;
; if (temp1 == TURN_OFF)
;
	lda     _temp1
	cmp     #$FF
;
; break;
;
	beq     L33C2
;
; ++index2;
;
	inc     _index2
;
; entity_active[index] = 0;
;
	ldy     _index
	lda     #$00
	sta     _entity_active,y
;
; temp1 = pointer[index2]; // get a byte of data
;
	lda     _pointer
	ldx     _pointer+1
	ldy     _index2
	sta     ptr1
	stx     ptr1+1
	lda     (ptr1),y
	sta     _temp1
;
; entity_room[index] = temp1;
;
	ldy     _index
	lda     _temp1
	sta     _entity_room,y
;
; ++index2;
;
	inc     _index2
;
; temp1 = pointer[index2]; // get a byte of data
;
	lda     _pointer
	ldx     _pointer+1
	ldy     _index2
	sta     ptr1
	stx     ptr1+1
	lda     (ptr1),y
	sta     _temp1
;
; entity_actual_x[index] = temp1;
;
	ldy     _index
	lda     _temp1
	sta     _entity_actual_x,y
;
; ++index2;
;
	inc     _index2
;
; temp1 = pointer[index2]; // get a byte of data
;
	lda     _pointer
	ldx     _pointer+1
	ldy     _index2
	sta     ptr1
	stx     ptr1+1
	lda     (ptr1),y
	sta     _temp1
;
; entity_type[index] = temp1;
;
	ldy     _index
	lda     _temp1
	sta     _entity_type,y
;
; ++index2;
;
	inc     _index2
;
; for (index = 0, index2 = 0; index < MAX_ENTITY; ++index)
;
	inc     _index
	jmp     L367C
;
; }
;
L33C2:	rts

.endproc

; ---------------------------------------------------------------
; void __near__ init_death (void)
; ---------------------------------------------------------------

.segment	"CODE"

.proc	_init_death: near

.segment	"CODE"

;
; pal_fade_to(4, 0); // fade to black
;
	lda     #$04
	jsr     pusha
	lda     #$00
	jsr     _pal_fade_to
;
; ppu_off();
;
	jsr     _ppu_off
;
; for (y = 0;; y += 0x20)
;
	lda     #$00
L367F:	sta     _y
;
; for (x = 0;; x += 0x20)
;
	lda     #$00
L367E:	sta     _x
;
; address = get_ppu_addr(0, x, y);
;
	jsr     decsp2
	lda     #$00
	ldy     #$01
	sta     (sp),y
	lda     _x
	dey
	sta     (sp),y
	lda     _y
	jsr     _get_ppu_addr
	sta     _address
	stx     _address+1
;
; buffer_4_mt(address, 0); // ppu_address, index to the data
;
	jsr     pushax
	lda     #$00
	jsr     _buffer_4_mt
;
; flush_vram_update2();
;
	jsr     _flush_vram_update2
;
; if (x == 0xe0)
;
	ldx     #$00
	lda     _x
	cmp     #$E0
;
; break;
;
	beq     L3680
;
; for (x = 0;; x += 0x20)
;
	lda     #$20
	clc
	adc     _x
	jmp     L367E
;
; if (y == 0xe0)
;
L3680:	lda     _y
	cmp     #$E0
;
; break;
;
	beq     L3681
;
; for (y = 0;; y += 0x20)
;
	lda     #$20
	clc
	adc     _y
	jmp     L367F
;
; scroll_x = 0;
;
L3681:	txa
	sta     _scroll_x
	sta     _scroll_x+1
;
; set_scroll_x(0);
;
	jsr     _set_scroll_x
;
; oam_clear();
;
	jsr     _oam_clear
;
; game_mode = MODE_DEATH;
;
	lda     #$03
	sta     _game_mode
;
; multi_vram_buffer_horz("GAME OVER", 10, NTADR_A(11, 6));
;
	jsr     decsp3
	lda     #<(L35A8)
	ldy     #$01
	sta     (sp),y
	iny
	lda     #>(L35A8)
	sta     (sp),y
	lda     #$0A
	ldy     #$00
	sta     (sp),y
	ldx     #$20
	lda     #$CB
	jsr     _multi_vram_buffer_horz
;
; multi_vram_buffer_horz("PRESS START", 12, NTADR_A(11, 14));
;
	jsr     decsp3
	lda     #<(L35B2)
	ldy     #$01
	sta     (sp),y
	iny
	lda     #>(L35B2)
	sta     (sp),y
	lda     #$0C
	ldy     #$00
	sta     (sp),y
	ldx     #$21
	lda     #$CB
	jsr     _multi_vram_buffer_horz
;
; ppu_on_all();
;
	jsr     _ppu_on_all
;
; pal_fade_to(0, 4); // fade to black
;
	lda     #$00
	jsr     pusha
	lda     #$04
	jmp     _pal_fade_to

.endproc

; ---------------------------------------------------------------
; unsigned char __near__ bg_coll_L (void)
; ---------------------------------------------------------------

.segment	"CODE"

.proc	_bg_coll_L: near

.segment	"CODE"

;
; temp5 = Generic.x + scroll_x;
;
	lda     _Generic
	clc
	adc     _scroll_x
	sta     _temp5
	lda     #$00
	adc     _scroll_x+1
	sta     _temp5+1
;
; temp_x = (char)temp5;   // low byte
;
	lda     _temp5
	sta     _temp_x
;
; temp_room = temp5 >> 8; // high byte
;
	lda     _temp5+1
	sta     _temp_room
;
; eject_L = temp_x | 0xf0;
;
	lda     _temp_x
	ora     #$F0
	sta     _eject_L
;
; temp_y = Generic.y + 2;
;
	lda     _Generic+1
	clc
	adc     #$02
	sta     _temp_y
;
; if (bg_collision_sub() & COL_ALL)
;
	jsr     _bg_collision_sub
	and     #$40
	beq     L3683
;
; return 1;
;
	ldx     #$00
	lda     #$01
	rts
;
; temp_y = Generic.y + Generic.height;
;
L3683:	lda     _Generic+1
	clc
	adc     _Generic+3
	sta     _temp_y
;
; temp_y -= 2;
;
	sec
	sbc     #$02
	sta     _temp_y
;
; if (bg_collision_sub() & COL_ALL)
;
	jsr     _bg_collision_sub
	ldx     #$00
	and     #$40
	beq     L3685
;
; return 1;
;
	lda     #$01
	rts
;
; }
;
L3685:	rts

.endproc

; ---------------------------------------------------------------
; unsigned char __near__ bg_coll_R (void)
; ---------------------------------------------------------------

.segment	"CODE"

.proc	_bg_coll_R: near

.segment	"CODE"

;
; temp5 = Generic.x + scroll_x + Generic.width;
;
	lda     _Generic
	clc
	adc     _scroll_x
	pha
	lda     #$00
	adc     _scroll_x+1
	tax
	pla
	clc
	adc     _Generic+2
	bcc     L3686
	inx
L3686:	sta     _temp5
	stx     _temp5+1
;
; temp_x = (char)temp5;   // low byte
;
	lda     _temp5
	sta     _temp_x
;
; temp_room = temp5 >> 8; // high byte
;
	lda     _temp5+1
	sta     _temp_room
;
; eject_R = (temp_x + 1) & 0x0f;
;
	lda     _temp_x
	clc
	adc     #$01
	and     #$0F
	sta     _eject_R
;
; temp_y = Generic.y + 2;
;
	lda     _Generic+1
	clc
	adc     #$02
	sta     _temp_y
;
; if (bg_collision_sub() & COL_ALL)
;
	jsr     _bg_collision_sub
	and     #$40
	beq     L3688
;
; return 1;
;
	ldx     #$00
	lda     #$01
	rts
;
; temp_y = Generic.y + Generic.height;
;
L3688:	lda     _Generic+1
	clc
	adc     _Generic+3
	sta     _temp_y
;
; temp_y -= 2;
;
	sec
	sbc     #$02
	sta     _temp_y
;
; if (bg_collision_sub() & COL_ALL)
;
	jsr     _bg_collision_sub
	ldx     #$00
	and     #$40
	beq     L368A
;
; return 1;
;
	lda     #$01
	rts
;
; }
;
L368A:	rts

.endproc

; ---------------------------------------------------------------
; unsigned char __near__ bg_coll_U (void)
; ---------------------------------------------------------------

.segment	"CODE"

.proc	_bg_coll_U: near

.segment	"CODE"

;
; temp5 = Generic.x + scroll_x;
;
	lda     _Generic
	clc
	adc     _scroll_x
	sta     _temp5
	lda     #$00
	adc     _scroll_x+1
	sta     _temp5+1
;
; temp5 += 2;
;
	lda     #$02
	clc
	adc     _temp5
	sta     _temp5
	bcc     L2BA9
	inc     _temp5+1
;
; temp_x = (char)temp5;   // low byte
;
L2BA9:	lda     _temp5
	sta     _temp_x
;
; temp_room = temp5 >> 8; // high byte
;
	lda     _temp5+1
	sta     _temp_room
;
; temp_y = Generic.y;
;
	lda     _Generic+1
	sta     _temp_y
;
; eject_U = temp_y | 0xf0;
;
	ora     #$F0
	sta     _eject_U
;
; if (bg_collision_sub() & COL_ALL)
;
	jsr     _bg_collision_sub
	and     #$40
	beq     L368C
;
; return 1;
;
	ldx     #$00
	lda     #$01
	rts
;
; temp5 = Generic.x + scroll_x + Generic.width;
;
L368C:	lda     _Generic
	clc
	adc     _scroll_x
	pha
	lda     #$00
	adc     _scroll_x+1
	tax
	pla
	clc
	adc     _Generic+2
	bcc     L368B
	inx
L368B:	sta     _temp5
	stx     _temp5+1
;
; temp5 -= 2;
;
	lda     _temp5
	sec
	sbc     #$02
	sta     _temp5
	bcs     L2BB9
	dec     _temp5+1
;
; temp_x = (char)temp5;   // low byte
;
L2BB9:	lda     _temp5
	sta     _temp_x
;
; temp_room = temp5 >> 8; // high byte
;
	lda     _temp5+1
	sta     _temp_room
;
; if (bg_collision_sub() & COL_ALL)
;
	jsr     _bg_collision_sub
	ldx     #$00
	and     #$40
	beq     L368E
;
; return 1;
;
	lda     #$01
	rts
;
; }
;
L368E:	rts

.endproc

; ---------------------------------------------------------------
; unsigned char __near__ bg_coll_D (void)
; ---------------------------------------------------------------

.segment	"CODE"

.proc	_bg_coll_D: near

.segment	"CODE"

;
; temp5 = Generic.x + scroll_x;
;
	lda     _Generic
	clc
	adc     _scroll_x
	sta     _temp5
	lda     #$00
	adc     _scroll_x+1
	sta     _temp5+1
;
; temp5 += 2;
;
	lda     #$02
	clc
	adc     _temp5
	sta     _temp5
	bcc     L2BC7
	inc     _temp5+1
;
; temp_x = (char)temp5;   // low byte
;
L2BC7:	lda     _temp5
	sta     _temp_x
;
; temp_room = temp5 >> 8; // high byte
;
	lda     _temp5+1
	sta     _temp_room
;
; temp_y = Generic.y + Generic.height;
;
	lda     _Generic+1
	clc
	adc     _Generic+3
	sta     _temp_y
;
; if ((temp_y & 0x0f) > 3)
;
	and     #$0F
	cmp     #$04
	lda     #$00
	bcc     L3692
;
; return 0; // bug fix
;
	tax
	rts
;
; eject_D = (temp_y + 1) & 0x0f;
;
L3692:	lda     _temp_y
	clc
	adc     #$01
	and     #$0F
	sta     _eject_D
;
; if (bg_collision_sub() & COL_ALL || bg_collision_sub() & COL_LADDER_TOP)
;
	jsr     _bg_collision_sub
	and     #$40
	bne     L3693
	jsr     _bg_collision_sub
	and     #$02
	beq     L3694
;
; return 1;
;
L3693:	ldx     #$00
	lda     #$01
	rts
;
; temp5 = Generic.x + scroll_x + Generic.width;
;
L3694:	lda     _Generic
	clc
	adc     _scroll_x
	pha
	lda     #$00
	adc     _scroll_x+1
	tax
	pla
	clc
	adc     _Generic+2
	bcc     L3690
	inx
L3690:	sta     _temp5
	stx     _temp5+1
;
; temp5 -= 2;
;
	lda     _temp5
	sec
	sbc     #$02
	sta     _temp5
	bcs     L2BDE
	dec     _temp5+1
;
; temp_x = (char)temp5;   // low byte
;
L2BDE:	lda     _temp5
	sta     _temp_x
;
; temp_room = temp5 >> 8; // high byte
;
	lda     _temp5+1
	sta     _temp_room
;
; if (bg_collision_sub() & COL_ALL || bg_collision_sub() & COL_LADDER_TOP)
;
	jsr     _bg_collision_sub
	and     #$40
	bne     L3695
	jsr     _bg_collision_sub
	and     #$02
	bne     L3695
	tax
	rts
;
; return 1;
;
L3695:	ldx     #$00
	lda     #$01
	rts

.endproc

; ---------------------------------------------------------------
; unsigned char __near__ bg_coll_D2 (void)
; ---------------------------------------------------------------

.segment	"CODE"

.proc	_bg_coll_D2: near

.segment	"CODE"

;
; temp5 = Generic.x + scroll_x;
;
	lda     _Generic
	clc
	adc     _scroll_x
	sta     _temp5
	lda     #$00
	adc     _scroll_x+1
	sta     _temp5+1
;
; temp5 += 2;
;
	lda     #$02
	clc
	adc     _temp5
	sta     _temp5
	bcc     L2BED
	inc     _temp5+1
;
; temp_x = (char)temp5;   // low byte
;
L2BED:	lda     _temp5
	sta     _temp_x
;
; temp_room = temp5 >> 8; // high byte
;
	lda     _temp5+1
	sta     _temp_room
;
; temp_y = Generic.y + Generic.height;
;
	lda     _Generic+1
	clc
	adc     _Generic+3
	sta     _temp_y
;
; temp_y += 2;
;
	lda     #$02
	clc
	adc     _temp_y
	sta     _temp_y
;
; if (bg_collision_sub())
;
	jsr     _bg_collision_sub
	tax
	beq     L3699
;
; return 1;
;
	ldx     #$00
	lda     #$01
	rts
;
; temp5 = Generic.x + scroll_x + Generic.width;
;
L3699:	lda     _Generic
	clc
	adc     _scroll_x
	pha
	txa
	adc     _scroll_x+1
	tax
	pla
	clc
	adc     _Generic+2
	bcc     L3698
	inx
L3698:	sta     _temp5
	stx     _temp5+1
;
; temp5 -= 2;
;
	lda     _temp5
	sec
	sbc     #$02
	sta     _temp5
	bcs     L2BFD
	dec     _temp5+1
;
; temp_x = (char)temp5;   // low byte
;
L2BFD:	lda     _temp5
	sta     _temp_x
;
; temp_room = temp5 >> 8; // high byte
;
	lda     _temp5+1
	sta     _temp_room
;
; if (bg_collision_sub())
;
	jsr     _bg_collision_sub
	tax
	beq     L369B
;
; return 1;
;
	ldx     #$00
	lda     #$01
	rts
;
; }
;
L369B:	rts

.endproc

; ---------------------------------------------------------------
; unsigned char __near__ get_position (void)
; ---------------------------------------------------------------

.segment	"CODE"

.proc	_get_position: near

.segment	"CODE"

;
; temp5 -= scroll_x;
;
	lda     _scroll_x
	eor     #$FF
	sec
	adc     _temp5
	sta     _temp5
	lda     _scroll_x+1
	eor     #$FF
	adc     _temp5+1
	sta     _temp5+1
;
; temp_x = temp5 & 0xff;
;
	lda     _temp5
	ldx     #$00
	sta     _temp_x
;
; if (high_byte(temp5))
;
	lda     _temp5+1
	beq     L369C
;
; return 0;
;
	txa
	rts
;
; return 1;
;
L369C:	lda     #$01
;
; }
;
	rts

.endproc

; ---------------------------------------------------------------
; void __near__ bg_collision_fast (void)
; ---------------------------------------------------------------

.segment	"CODE"

.proc	_bg_collision_fast: near

.segment	"CODE"

;
; collision_L = 0;
;
	lda     #$00
	sta     _collision_L
;
; collision_R = 0;
;
	sta     _collision_R
;
; collision_D = 0;
;
	sta     _collision_D
;
; if (Generic.y >= 0xf0)
;
	lda     _Generic+1
	cmp     #$F0
;
; return;
;
	bcc     L369F
;
; }
;
	rts
;
; temp5 = Generic.x + scroll_x;
;
L369F:	lda     _Generic
	clc
	adc     _scroll_x
	pha
	lda     #$00
	adc     _scroll_x+1
	sta     _temp5+1
	pla
	sta     _temp5
;
; temp_x = temp5 & 0xff;  // low byte x
;
	sta     _temp_x
;
; temp_room = temp5 >> 8; // high byte x
;
	lda     _temp5+1
	sta     _temp_room
;
; temp_y = Generic.y + 6; // y middle
;
	lda     _Generic+1
	clc
	adc     #$06
	sta     _temp_y
;
; bg_collision_sub();
;
	jsr     _bg_collision_sub
;
; if (bg_collision_sub() & COL_ALL)
;
	jsr     _bg_collision_sub
	and     #$40
	beq     L369D
;
; ++collision_L;
;
	inc     _collision_L
;
; temp5 += Generic.width;
;
L369D:	lda     _Generic+2
	clc
	adc     _temp5
	sta     _temp5
	lda     #$00
	adc     _temp5+1
	sta     _temp5+1
;
; temp_x = temp5 & 0xff;  // low byte x
;
	lda     _temp5
	sta     _temp_x
;
; temp_room = temp5 >> 8; // high byte x
;
	lda     _temp5+1
	sta     _temp_room
;
; bg_collision_sub();
;
	jsr     _bg_collision_sub
;
; if (bg_collision_sub() & COL_ALL)
;
	jsr     _bg_collision_sub
	and     #$40
	beq     L369E
;
; ++collision_R;
;
	inc     _collision_R
;
; temp5 -= (Generic.width >> 1); // middle of character
;
L369E:	lda     _Generic+2
	lsr     a
	eor     #$FF
	sec
	adc     _temp5
	sta     _temp5
	lda     #$FF
	adc     _temp5+1
	sta     _temp5+1
;
; temp_x = (char)temp5;          // low byte
;
	lda     _temp5
	sta     _temp_x
;
; temp_y += 6;
;
	lda     #$06
	clc
	adc     _temp_y
	sta     _temp_y
;
; if (bg_collision_sub() & COL_ALL)
;
	jsr     _bg_collision_sub
	and     #$40
	beq     L2B54
;
; ++collision_D;
;
	inc     _collision_D
;
; }
;
L2B54:	rts

.endproc

; ---------------------------------------------------------------
; unsigned char __near__ bg_coll_ladder (void)
; ---------------------------------------------------------------

.segment	"CODE"

.proc	_bg_coll_ladder: near

.segment	"CODE"

;
; temp5 = Generic.x + scroll_x + 7;
;
	lda     _Generic
	clc
	adc     _scroll_x
	pha
	lda     #$00
	adc     _scroll_x+1
	tax
	pla
	clc
	adc     #$07
	bcc     L2B8A
	inx
L2B8A:	sta     _temp5
	stx     _temp5+1
;
; temp_x = (char)temp5; // low byte
;
	lda     _temp5
	sta     _temp_x
;
; temp_y = Generic.y + Generic.height;
;
	lda     _Generic+1
	clc
	adc     _Generic+3
	sta     _temp_y
;
; temp_y -= 2;
;
	sec
	sbc     #$02
	sta     _temp_y
;
; if (bg_collision_sub() & COL_LADDER || bg_collision_sub() & COL_LADDER_TOP)
;
	jsr     _bg_collision_sub
	and     #$01
	bne     L36A1
	jsr     _bg_collision_sub
	and     #$02
	bne     L36A1
	tax
	rts
;
; return temp5;
;
L36A1:	ldx     #$00
	lda     _temp5
	rts

.endproc

; ---------------------------------------------------------------
; unsigned char __near__ bg_coll_ladder_top_under_player (void)
; ---------------------------------------------------------------

.segment	"CODE"

.proc	_bg_coll_ladder_top_under_player: near

.segment	"CODE"

;
; temp5 = Generic.x + scroll_x + 7;
;
	lda     _Generic
	clc
	adc     _scroll_x
	pha
	lda     #$00
	adc     _scroll_x+1
	tax
	pla
	clc
	adc     #$07
	bcc     L2B99
	inx
L2B99:	sta     _temp5
	stx     _temp5+1
;
; temp_x = (char)temp5; // low byte
;
	lda     _temp5
	sta     _temp_x
;
; temp_y = Generic.y + Generic.height;
;
	lda     _Generic+1
	clc
	adc     _Generic+3
	sta     _temp_y
;
; temp_y += 4;
;
	lda     #$04
	clc
	adc     _temp_y
	sta     _temp_y
;
; if (bg_collision_sub() & COL_LADDER_TOP)
;
	jsr     _bg_collision_sub
	ldx     #$00
	and     #$02
	beq     L36A6
;
; return temp_x;
;
	lda     _temp_x
	rts
;
; }
;
L36A6:	rts

.endproc

; ---------------------------------------------------------------
; void __near__ draw_player_health_meter (void)
; ---------------------------------------------------------------

.segment	"CODE"

.proc	_draw_player_health_meter: near

.segment	"CODE"

;
; switch (BoxGuy1.health)
;
	lda     _BoxGuy1+8
;
; }
;
	cmp     #$01
	jeq     L2C8F
	cmp     #$02
	jeq     L2C8B
	cmp     #$03
	jeq     L2C87
	cmp     #$04
	jeq     L2C83
	cmp     #$05
	jeq     L2C7F
	cmp     #$06
	jeq     L2C7B
	cmp     #$07
	jeq     L2C77
	cmp     #$08
	jeq     L2C73
	cmp     #$09
	jeq     L2C6F
	cmp     #$0A
	jeq     L2C6B
	cmp     #$0B
	jeq     L2C67
	cmp     #$0C
	jeq     L2C63
	cmp     #$0D
	jeq     L2C5F
	cmp     #$0E
	jeq     L2C5B
	cmp     #$0F
	jeq     L2C57
	cmp     #$10
	jeq     L2C53
	cmp     #$11
	jeq     L2C4F
	cmp     #$12
	jeq     L2C4B
	cmp     #$13
	jeq     L2C47
	cmp     #$14
	beq     L2C43
	cmp     #$15
	beq     L2C3F
	cmp     #$16
	beq     L2C3B
	cmp     #$17
	beq     L2C37
	cmp     #$18
	beq     L2C33
	cmp     #$19
	beq     L2C2F
	cmp     #$1A
	beq     L2C2B
	cmp     #$1B
	beq     L2C27
	cmp     #$1C
	jne     L2C92
;
; tempint2 = animate_meter28_data;
;
	lda     #>(_animate_meter28_data)
	sta     _tempint2+1
	lda     #<(_animate_meter28_data)
;
; break;
;
	jmp     L36A7
;
; tempint2 = animate_meter27_data;
;
L2C27:	lda     #>(_animate_meter27_data)
	sta     _tempint2+1
	lda     #<(_animate_meter27_data)
;
; break;
;
	jmp     L36A7
;
; tempint2 = animate_meter26_data;
;
L2C2B:	lda     #>(_animate_meter26_data)
	sta     _tempint2+1
	lda     #<(_animate_meter26_data)
;
; break;
;
	jmp     L36A7
;
; tempint2 = animate_meter25_data;
;
L2C2F:	lda     #>(_animate_meter25_data)
	sta     _tempint2+1
	lda     #<(_animate_meter25_data)
;
; break;
;
	jmp     L36A7
;
; tempint2 = animate_meter24_data;
;
L2C33:	lda     #>(_animate_meter24_data)
	sta     _tempint2+1
	lda     #<(_animate_meter24_data)
;
; break;
;
	jmp     L36A7
;
; tempint2 = animate_meter23_data;
;
L2C37:	lda     #>(_animate_meter23_data)
	sta     _tempint2+1
	lda     #<(_animate_meter23_data)
;
; break;
;
	jmp     L36A7
;
; tempint2 = animate_meter22_data;
;
L2C3B:	lda     #>(_animate_meter22_data)
	sta     _tempint2+1
	lda     #<(_animate_meter22_data)
;
; break;
;
	jmp     L36A7
;
; tempint2 = animate_meter21_data;
;
L2C3F:	lda     #>(_animate_meter21_data)
	sta     _tempint2+1
	lda     #<(_animate_meter21_data)
;
; break;
;
	jmp     L36A7
;
; tempint2 = animate_meter20_data;
;
L2C43:	lda     #>(_animate_meter20_data)
	sta     _tempint2+1
	lda     #<(_animate_meter20_data)
;
; break;
;
	jmp     L36A7
;
; tempint2 = animate_meter19_data;
;
L2C47:	lda     #>(_animate_meter19_data)
	sta     _tempint2+1
	lda     #<(_animate_meter19_data)
;
; break;
;
	jmp     L36A7
;
; tempint2 = animate_meter18_data;
;
L2C4B:	lda     #>(_animate_meter18_data)
	sta     _tempint2+1
	lda     #<(_animate_meter18_data)
;
; break;
;
	jmp     L36A7
;
; tempint2 = animate_meter17_data;
;
L2C4F:	lda     #>(_animate_meter17_data)
	sta     _tempint2+1
	lda     #<(_animate_meter17_data)
;
; break;
;
	jmp     L36A7
;
; tempint2 = animate_meter16_data;
;
L2C53:	lda     #>(_animate_meter16_data)
	sta     _tempint2+1
	lda     #<(_animate_meter16_data)
;
; break;
;
	jmp     L36A7
;
; tempint2 = animate_meter15_data;
;
L2C57:	lda     #>(_animate_meter15_data)
	sta     _tempint2+1
	lda     #<(_animate_meter15_data)
;
; break;
;
	jmp     L36A7
;
; tempint2 = animate_meter14_data;
;
L2C5B:	lda     #>(_animate_meter14_data)
	sta     _tempint2+1
	lda     #<(_animate_meter14_data)
;
; break;
;
	jmp     L36A7
;
; tempint2 = animate_meter13_data;
;
L2C5F:	lda     #>(_animate_meter13_data)
	sta     _tempint2+1
	lda     #<(_animate_meter13_data)
;
; break;
;
	jmp     L36A7
;
; tempint2 = animate_meter12_data;
;
L2C63:	lda     #>(_animate_meter12_data)
	sta     _tempint2+1
	lda     #<(_animate_meter12_data)
;
; break;
;
	jmp     L36A7
;
; tempint2 = animate_meter11_data;
;
L2C67:	lda     #>(_animate_meter11_data)
	sta     _tempint2+1
	lda     #<(_animate_meter11_data)
;
; break;
;
	jmp     L36A7
;
; tempint2 = animate_meter10_data;
;
L2C6B:	lda     #>(_animate_meter10_data)
	sta     _tempint2+1
	lda     #<(_animate_meter10_data)
;
; break;
;
	jmp     L36A7
;
; tempint2 = animate_meter9_data;
;
L2C6F:	lda     #>(_animate_meter9_data)
	sta     _tempint2+1
	lda     #<(_animate_meter9_data)
;
; break;
;
	jmp     L36A7
;
; tempint2 = animate_meter8_data;
;
L2C73:	lda     #>(_animate_meter8_data)
	sta     _tempint2+1
	lda     #<(_animate_meter8_data)
;
; break;
;
	jmp     L36A7
;
; tempint2 = animate_meter7_data;
;
L2C77:	lda     #>(_animate_meter7_data)
	sta     _tempint2+1
	lda     #<(_animate_meter7_data)
;
; break;
;
	jmp     L36A7
;
; tempint2 = animate_meter6_data;
;
L2C7B:	lda     #>(_animate_meter6_data)
	sta     _tempint2+1
	lda     #<(_animate_meter6_data)
;
; break;
;
	jmp     L36A7
;
; tempint2 = animate_meter5_data;
;
L2C7F:	lda     #>(_animate_meter5_data)
	sta     _tempint2+1
	lda     #<(_animate_meter5_data)
;
; break;
;
	jmp     L36A7
;
; tempint2 = animate_meter4_data;
;
L2C83:	lda     #>(_animate_meter4_data)
	sta     _tempint2+1
	lda     #<(_animate_meter4_data)
;
; break;
;
	jmp     L36A7
;
; tempint2 = animate_meter3_data;
;
L2C87:	lda     #>(_animate_meter3_data)
	sta     _tempint2+1
	lda     #<(_animate_meter3_data)
;
; break;
;
	jmp     L36A7
;
; tempint2 = animate_meter2_data;
;
L2C8B:	lda     #>(_animate_meter2_data)
	sta     _tempint2+1
	lda     #<(_animate_meter2_data)
;
; break;
;
	jmp     L36A7
;
; tempint2 = animate_meter1_data;
;
L2C8F:	lda     #>(_animate_meter1_data)
	sta     _tempint2+1
	lda     #<(_animate_meter1_data)
;
; break;
;
	jmp     L36A7
;
; tempint2 = animate_meter0_data;
;
L2C92:	lda     #>(_animate_meter0_data)
	sta     _tempint2+1
	lda     #<(_animate_meter0_data)
L36A7:	sta     _tempint2
;
; oam_meta_spr(0x16, 0x16, tempint2);
;
	jsr     decsp2
	lda     #$16
	ldy     #$01
	sta     (sp),y
	dey
	sta     (sp),y
	lda     _tempint2
	ldx     _tempint2+1
	jmp     _oam_meta_spr

.endproc

; ---------------------------------------------------------------
; void __near__ draw_player_sprites (void)
; ---------------------------------------------------------------

.segment	"CODE"

.proc	_draw_player_sprites: near

.segment	"CODE"

;
; draw_player_health_meter();
;
	jsr     _draw_player_health_meter
;
; temp_x = BoxGuy1.x >> 8;
;
	lda     _BoxGuy1+1
	sta     _temp_x
;
; temp_y = BoxGuy1.y >> 8;
;
	lda     _BoxGuy1+3
	sta     _temp_y
;
; if (temp_x == 0)
;
	lda     _temp_x
	bne     L36B1
;
; temp_x = 1;
;
	lda     #$01
	sta     _temp_x
;
; if (temp_y == 0)
;
L36B1:	lda     _temp_y
	bne     L36B2
;
; temp_y = 1;
;
	lda     #$01
	sta     _temp_y
;
; ++sprite_frame_counter;
;
L36B2:	inc     _sprite_frame_counter
;
; if (invul_frames > 0)
;
	lda     _invul_frames
	beq     L36B3
;
; if (frame_counter % TOTAL_DURATION < FLASH_DURATION)
;
	lda     _frame_counter
	and     #$0F
	cmp     #$08
;
; return;
;
	bcs     L36B3
;
; }
;
	rts
;
; if (player_shooting > 0)
;
L36B3:	lda     _player_shooting
	beq     L2CAD
;
; --player_shooting;
;
	dec     _player_shooting
;
; if (player_in_hitstun)
;
L2CAD:	lda     _player_in_hitstun
	beq     L2CB0
;
; if (direction == LEFT)
;
	lda     _direction
	bne     L2CB2
;
; tempint = animate_recoilleft_data;
;
	lda     #>(_animate_recoilleft_data)
	sta     _tempint+1
	lda     #<(_animate_recoilleft_data)
;
; else
;
	jmp     L36A8
;
; tempint = animate_recoilright_data;
;
L2CB2:	lda     #>(_animate_recoilright_data)
	sta     _tempint+1
	lda     #<(_animate_recoilright_data)
L36A8:	sta     _tempint
;
; oam_meta_spr(temp_x, temp_y, tempint);
;
	jsr     decsp2
	lda     _temp_x
	ldy     #$01
	sta     (sp),y
	lda     _temp_y
	dey
	sta     (sp),y
	lda     _tempint
	ldx     _tempint+1
	jmp     _oam_meta_spr
;
; else if (player_in_air)
;
L2CB0:	lda     _player_in_air
	beq     L2CBE
;
; if (direction == LEFT)
;
	lda     _direction
	bne     L2CC0
;
; if (player_shooting)
;
	lda     _player_shooting
	beq     L2CC2
;
; tempint = animate_playerjumpleftshoot_data;
;
	lda     #>(_animate_playerjumpleftshoot_data)
	sta     _tempint+1
	lda     #<(_animate_playerjumpleftshoot_data)
;
; else
;
	jmp     L36A9
;
; tempint = animate_playerjumpleft_data;
;
L2CC2:	lda     #>(_animate_playerjumpleft_data)
	sta     _tempint+1
	lda     #<(_animate_playerjumpleft_data)
;
; else
;
	jmp     L36A9
;
; if (player_shooting)
;
L2CC0:	lda     _player_shooting
	beq     L2CCA
;
; tempint = animate_playerjumprightshoot_data;
;
	lda     #>(_animate_playerjumprightshoot_data)
	sta     _tempint+1
	lda     #<(_animate_playerjumprightshoot_data)
;
; else
;
	jmp     L36A9
;
; tempint = animate_playerjumpright_data;
;
L2CCA:	lda     #>(_animate_playerjumpright_data)
	sta     _tempint+1
	lda     #<(_animate_playerjumpright_data)
L36A9:	sta     _tempint
;
; oam_meta_spr(temp_x, temp_y, tempint);
;
	jsr     decsp2
	lda     _temp_x
	ldy     #$01
	sta     (sp),y
	lda     _temp_y
	dey
	sta     (sp),y
	lda     _tempint
	ldx     _tempint+1
	jmp     _oam_meta_spr
;
; else if (player_on_ladder)
;
L2CBE:	lda     _player_on_ladder
	jeq     L2CD6
;
; if (player_shooting)
;
	lda     _player_shooting
	beq     L2CD8
;
; if (direction == LEFT)
;
	lda     _direction
	bne     L2CDA
;
; tempint = animate_playerclimbshootleft_data;
;
	lda     #>(_animate_playerclimbshootleft_data)
	sta     _tempint+1
	lda     #<(_animate_playerclimbshootleft_data)
	sta     _tempint
;
; player_on_ladder_pose = 0;
;
	lda     #$00
;
; else
;
	jmp     L36AA
;
; tempint = animate_playerclimbshootright_data;
;
L2CDA:	lda     #>(_animate_playerclimbshootright_data)
	sta     _tempint+1
	lda     #<(_animate_playerclimbshootright_data)
	sta     _tempint
;
; player_on_ladder_pose = PLAYER_LADDER_1_FRAMES;
;
	lda     #$0F
L36AA:	sta     _player_on_ladder_pose
;
; oam_meta_spr(temp_x, temp_y, tempint);
;
	jsr     decsp2
	lda     _temp_x
	ldy     #$01
	sta     (sp),y
	lda     _temp_y
	dey
	sta     (sp),y
	lda     _tempint
	ldx     _tempint+1
	jmp     _oam_meta_spr
;
; if (player_on_ladder_pose < PLAYER_LADDER_1_FRAMES)
;
L2CD8:	lda     _player_on_ladder_pose
	cmp     #$0F
	bcs     L36B4
;
; oam_meta_spr(temp_x, temp_y, animate_playerclimb1_data);
;
	jsr     decsp2
	lda     _temp_x
	ldy     #$01
	sta     (sp),y
	lda     _temp_y
	dey
	sta     (sp),y
	lda     #<(_animate_playerclimb1_data)
	ldx     #>(_animate_playerclimb1_data)
	jmp     _oam_meta_spr
;
; else if (player_on_ladder_pose < PLAYER_LADDER_2_FRAMES)
;
L36B4:	lda     _player_on_ladder_pose
	cmp     #$1E
	bcs     L2CF0
;
; oam_meta_spr(temp_x, temp_y, animate_playerclimb2_data);
;
	jsr     decsp2
	lda     _temp_x
	ldy     #$01
	sta     (sp),y
	lda     _temp_y
	dey
	sta     (sp),y
	lda     #<(_animate_playerclimb2_data)
	ldx     #>(_animate_playerclimb2_data)
	jmp     _oam_meta_spr
;
; oam_meta_spr(temp_x, temp_y, animate_playerclimb1_data);
;
L2CF0:	jsr     decsp2
	lda     _temp_x
	ldy     #$01
	sta     (sp),y
	lda     _temp_y
	dey
	sta     (sp),y
	lda     #<(_animate_playerclimb1_data)
	ldx     #>(_animate_playerclimb1_data)
	jsr     _oam_meta_spr
;
; player_on_ladder_pose = 0;
;
	lda     #$00
	sta     _player_on_ladder_pose
;
; return;
;
	rts
;
; else if (player_is_running) // running
;
L2CD6:	lda     _player_is_running
	jeq     L2CFE
;
; if (sprite_frame_counter < PLAYER_RUN_1_FRAMES)
;
	lda     _sprite_frame_counter
	cmp     #$0C
	bcs     L36B5
;
; if (direction == LEFT)
;
	lda     _direction
	bne     L2D02
;
; if (player_shooting)
;
	lda     _player_shooting
	beq     L2D04
;
; tempint = animate_playerrunshoot2left_data;
;
	lda     #>(_animate_playerrunshoot2left_data)
	sta     _tempint+1
	lda     #<(_animate_playerrunshoot2left_data)
;
; else
;
	jmp     L36AC
;
; tempint = animate_playerrun2left_data;
;
L2D04:	lda     #>(_animate_playerrun2left_data)
	sta     _tempint+1
	lda     #<(_animate_playerrun2left_data)
;
; else
;
	jmp     L36AC
;
; if (player_shooting)
;
L2D02:	lda     _player_shooting
	beq     L2D0C
;
; tempint = animate_playerrunshoot2right_data;
;
	lda     #>(_animate_playerrunshoot2right_data)
	sta     _tempint+1
	lda     #<(_animate_playerrunshoot2right_data)
;
; else
;
	jmp     L36AC
;
; tempint = animate_playerrun2right_data;
;
L2D0C:	lda     #>(_animate_playerrun2right_data)
	sta     _tempint+1
	lda     #<(_animate_playerrun2right_data)
;
; else if (sprite_frame_counter < PLAYER_RUN_2_FRAMES)
;
	jmp     L36AC
L36B5:	lda     _sprite_frame_counter
	cmp     #$18
	bcs     L36B6
;
; if (direction == LEFT)
;
	lda     _direction
	bne     L2D16
;
; if (player_shooting)
;
	lda     _player_shooting
	beq     L2D18
;
; tempint = animate_playerrunshoot3left_data;
;
	lda     #>(_animate_playerrunshoot3left_data)
	sta     _tempint+1
	lda     #<(_animate_playerrunshoot3left_data)
;
; else
;
	jmp     L36AC
;
; tempint = animate_playerrun3left_data;
;
L2D18:	lda     #>(_animate_playerrun3left_data)
	sta     _tempint+1
	lda     #<(_animate_playerrun3left_data)
;
; else
;
	jmp     L36AC
;
; if (player_shooting)
;
L2D16:	lda     _player_shooting
	beq     L2D20
;
; tempint = animate_playerrunshoot3right_data;
;
	lda     #>(_animate_playerrunshoot3right_data)
	sta     _tempint+1
	lda     #<(_animate_playerrunshoot3right_data)
;
; else
;
	jmp     L36AC
;
; tempint = animate_playerrun3right_data;
;
L2D20:	lda     #>(_animate_playerrun3right_data)
	sta     _tempint+1
	lda     #<(_animate_playerrun3right_data)
;
; else if (sprite_frame_counter < PLAYER_RUN_3_FRAMES)
;
	jmp     L36AC
L36B6:	lda     _sprite_frame_counter
	cmp     #$24
	bcs     L36B7
;
; if (direction == LEFT)
;
	lda     _direction
	bne     L2D2A
;
; if (player_shooting)
;
	lda     _player_shooting
	beq     L2D2C
;
; tempint = animate_playerrunshoot2left_data;
;
	lda     #>(_animate_playerrunshoot2left_data)
	sta     _tempint+1
	lda     #<(_animate_playerrunshoot2left_data)
;
; else
;
	jmp     L36AC
;
; tempint = animate_playerrun2left_data;
;
L2D2C:	lda     #>(_animate_playerrun2left_data)
	sta     _tempint+1
	lda     #<(_animate_playerrun2left_data)
;
; else
;
	jmp     L36AC
;
; if (player_shooting)
;
L2D2A:	lda     _player_shooting
	beq     L2D34
;
; tempint = animate_playerrunshoot2right_data;
;
	lda     #>(_animate_playerrunshoot2right_data)
	sta     _tempint+1
	lda     #<(_animate_playerrunshoot2right_data)
;
; else
;
	jmp     L36AC
;
; tempint = animate_playerrun2right_data;
;
L2D34:	lda     #>(_animate_playerrun2right_data)
	sta     _tempint+1
	lda     #<(_animate_playerrun2right_data)
;
; else if (sprite_frame_counter < PLAYER_RUN_4_FRAMES)
;
	jmp     L36AC
L36B7:	lda     _sprite_frame_counter
	cmp     #$30
	bcs     L36B8
;
; if (direction == LEFT)
;
	lda     _direction
	bne     L2D3E
;
; if (player_shooting)
;
	lda     _player_shooting
	beq     L2D40
;
; tempint = animate_playerrunshoot1left_data;
;
	lda     #>(_animate_playerrunshoot1left_data)
	sta     _tempint+1
	lda     #<(_animate_playerrunshoot1left_data)
;
; else
;
	jmp     L36AC
;
; tempint = animate_playerrun1left_data;
;
L2D40:	lda     #>(_animate_playerrun1left_data)
	sta     _tempint+1
	lda     #<(_animate_playerrun1left_data)
;
; else
;
	jmp     L36AC
;
; if (player_shooting)
;
L2D3E:	lda     _player_shooting
	beq     L2D5C
;
; tempint = animate_playerrunshoot1right_data;
;
	lda     #>(_animate_playerrunshoot1right_data)
	sta     _tempint+1
	lda     #<(_animate_playerrunshoot1right_data)
;
; else
;
	jmp     L36AC
;
; sprite_frame_counter = 0;
;
L36B8:	lda     #$00
	sta     _sprite_frame_counter
;
; if (direction == LEFT)
;
	lda     _direction
	bne     L2D52
;
; if (player_shooting)
;
	lda     _player_shooting
	beq     L2D54
;
; tempint = animate_playerrunshoot1left_data;
;
	lda     #>(_animate_playerrunshoot1left_data)
	sta     _tempint+1
	lda     #<(_animate_playerrunshoot1left_data)
;
; else
;
	jmp     L36AC
;
; tempint = animate_playerrun1left_data;
;
L2D54:	lda     #>(_animate_playerrun1left_data)
	sta     _tempint+1
	lda     #<(_animate_playerrun1left_data)
;
; else
;
	jmp     L36AC
;
; if (player_shooting)
;
L2D52:	lda     _player_shooting
	beq     L2D5C
;
; tempint = animate_playerrunshoot1right_data;
;
	lda     #>(_animate_playerrunshoot1right_data)
	sta     _tempint+1
	lda     #<(_animate_playerrunshoot1right_data)
;
; else
;
	jmp     L36AC
;
; tempint = animate_playerrun1right_data;
;
L2D5C:	lda     #>(_animate_playerrun1right_data)
	sta     _tempint+1
	lda     #<(_animate_playerrun1right_data)
L36AC:	sta     _tempint
;
; oam_meta_spr(temp_x, temp_y, tempint);
;
	jsr     decsp2
	lda     _temp_x
	ldy     #$01
	sta     (sp),y
	lda     _temp_y
	dey
	sta     (sp),y
	lda     _tempint
	ldx     _tempint+1
	jmp     _oam_meta_spr
;
; if (player_shooting)
;
L2CFE:	lda     _player_shooting
	beq     L2D68
;
; if (direction == LEFT)
;
	lda     _direction
	bne     L2D6A
;
; tempint = animate_playerstandshootleft_data;
;
	lda     #>(_animate_playerstandshootleft_data)
	sta     _tempint+1
	lda     #<(_animate_playerstandshootleft_data)
;
; else
;
	jmp     L36B0
;
; tempint = animate_playerstandshootright_data;
;
L2D6A:	lda     #>(_animate_playerstandshootright_data)
	sta     _tempint+1
	lda     #<(_animate_playerstandshootright_data)
;
; else
;
	jmp     L36B0
;
; if (direction == LEFT)
;
L2D68:	lda     _direction
	bne     L2D72
;
; tempint = animate_playerstandleft_data;
;
	lda     #>(_animate_playerstandleft_data)
	sta     _tempint+1
	lda     #<(_animate_playerstandleft_data)
;
; else
;
	jmp     L36B0
;
; tempint = animate_playerstandright_data;
;
L2D72:	lda     #>(_animate_playerstandright_data)
	sta     _tempint+1
	lda     #<(_animate_playerstandright_data)
L36B0:	sta     _tempint
;
; oam_meta_spr(temp_x, temp_y, tempint);
;
	jsr     decsp2
	lda     _temp_x
	ldy     #$01
	sta     (sp),y
	lda     _temp_y
	dey
	sta     (sp),y
	lda     _tempint
	ldx     _tempint+1
	jmp     _oam_meta_spr

.endproc

; ---------------------------------------------------------------
; void __near__ main (void)
; ---------------------------------------------------------------

.segment	"CODE"

.proc	_main: near

.segment	"CODE"

;
; reset();
;
	jsr     _reset
;
; while (game_mode == MODE_TITLE)
;
	jmp     L36BB
;
; ppu_wait_nmi();
;
L2D83:	jsr     _ppu_wait_nmi
;
; pad1 = pad_poll(0); // read the first controller
;
	lda     #$00
	jsr     _pad_poll
	sta     _pad1
;
; pad1_new = get_pad_new(0);
;
	lda     #$00
	jsr     _get_pad_new
	sta     _pad1_new
;
; if (pad1_new & PAD_START)
;
	and     #$10
	beq     L36BB
;
; pal_fade_to(4, 0); // fade to black
;
	lda     #$04
	jsr     pusha
	lda     #$00
	jsr     _pal_fade_to
;
; ppu_off();
;
	jsr     _ppu_off
;
; game_mode = MODE_GAME;
;
	lda     #$01
	sta     _game_mode
;
; ppu_on_all();
;
	jsr     _ppu_on_all
;
; pal_bright(4); // back to normal brightness
;
	lda     #$04
	jsr     _pal_bright
;
; while (game_mode == MODE_TITLE)
;
L36BB:	lda     _game_mode
	beq     L2D83
;
; while (game_mode == MODE_GAME)
;
	jmp     L36D2
;
; ++frame_counter;
;
L36BC:	inc     _frame_counter
;
; ppu_wait_nmi(); // wait till beginning of the frame
;
	jsr     _ppu_wait_nmi
;
; pad1 = pad_poll(0); // read the first controller
;
	lda     #$00
	jsr     _pad_poll
	sta     _pad1
;
; pad1_new = get_pad_new(0);
;
	lda     #$00
	jsr     _get_pad_new
	sta     _pad1_new
;
; if (pad1_new & PAD_START)
;
	and     #$10
	beq     L2DA5
;
; game_mode = MODE_PAUSE;
;
	lda     #$02
	sta     _game_mode
;
; ppu_mask(0b00011001); // grayscale mode
;
	lda     #$19
	jsr     _ppu_mask
;
; break; // out of the game loop
;
	jmp     L36D3
;
; movement();
;
L2DA5:	jsr     _movement
;
; check_spr_objects();
;
	jsr     _check_spr_objects
;
; check_entity_objects();
;
	jsr     _check_entity_objects
;
; projectile_movement();
;
	jsr     _projectile_movement
;
; sprite_collisions();
;
	jsr     _sprite_collisions
;
; entity_collisions();
;
	jsr     _entity_collisions
;
; set_scroll_x(scroll_x);
;
	lda     _scroll_x
	ldx     _scroll_x+1
	jsr     _set_scroll_x
;
; set_scroll_y(scroll_y);
;
	lda     _scroll_y
	ldx     _scroll_y+1
	jsr     _set_scroll_y
;
; handle_scrolling();
;
	jsr     _handle_scrolling
;
; draw_sprites();
;
	jsr     _draw_sprites
;
; if (BoxGuy1.health == 0 || BoxGuy1.health > MAX_PLAYER_HEALTH) // if it wraps
;
	lda     _BoxGuy1+8
	beq     L36BD
	cmp     #$1D
	bcc     L2DB7
;
; death = 1;
;
L36BD:	lda     #$01
	sta     _death
;
; if (death)
;
L2DB7:	lda     _death
	beq     L36BE
;
; init_death();
;
	jsr     _init_death
;
; if (high_byte(BoxGuy1.y) < 0x08 && level_up && player_on_ladder)
;
L36BE:	lda     _BoxGuy1+3
	cmp     #$08
	bcs     L36C2
	lda     _level_up
	beq     L36C2
	lda     _player_on_ladder
	beq     L36C2
;
; BoxGuy1.y = 0xD000;    // put the user above the bottom of the screen.
;
	ldx     #$D0
	lda     #$00
	sta     _BoxGuy1+2
	stx     _BoxGuy1+2+1
;
; pal_fade_to(4, 0);    // fade to black
;
	lda     #$04
	jsr     pusha
	lda     #$00
	jsr     _pal_fade_to
;
; game_mode = MODE_SWITCH; // this handles loading the level
;
	lda     #$04
	sta     _game_mode
;
; scroll_x = 0;
;
	lda     #$00
	sta     _scroll_x
	sta     _scroll_x+1
;
; ppu_off();
;
	jsr     _ppu_off
;
; ++level;
;
	inc     _level
;
; level_up = 0;
;
	lda     #$00
	sta     _level_up
;
; room_to_load = 0;
;
	sta     _room_to_load
;
; if (high_byte(BoxGuy1.y) > 0xd0 && level_up) // todo: might need less than 0xd0
;
L36C2:	lda     _BoxGuy1+3
	cmp     #$D1
	bcc     L36C6
	lda     _level_up
	beq     L36C6
;
; BoxGuy1.y = 0x1800;    // put the user near the top of screen
;
	ldx     #$18
	lda     #$00
	sta     _BoxGuy1+2
	stx     _BoxGuy1+2+1
;
; pal_fade_to(4, 0);    // fade to black
;
	lda     #$04
	jsr     pusha
	lda     #$00
	jsr     _pal_fade_to
;
; game_mode = MODE_SWITCH; // this handles loading the level
;
	lda     #$04
	sta     _game_mode
;
; ppu_off();
;
	jsr     _ppu_off
;
; scroll_x = 0;
;
	lda     #$00
	sta     _scroll_x
	sta     _scroll_x+1
;
; ++level;
;
	inc     _level
;
; level_up = 0;
;
	sta     _level_up
;
; room_to_load = 0;
;
	sta     _room_to_load
;
; if (high_byte(BoxGuy1.y) < 0x08 && level_down && player_on_ladder)
;
L36C6:	lda     _BoxGuy1+3
	cmp     #$08
	bcs     L36CA
	lda     _level_down
	beq     L36CA
	lda     _player_on_ladder
	beq     L36CA
;
; BoxGuy1.y = 0xD000;    // put the user above the bottom of the screen.
;
	ldx     #$D0
	lda     #$00
	sta     _BoxGuy1+2
	stx     _BoxGuy1+2+1
;
; pal_fade_to(4, 0);    // fade to black
;
	lda     #$04
	jsr     pusha
	lda     #$00
	jsr     _pal_fade_to
;
; game_mode = MODE_SWITCH; // this handles loading the level
;
	lda     #$04
	sta     _game_mode
;
; ppu_off();
;
	jsr     _ppu_off
;
; scroll_x = 0;
;
	lda     #$00
	sta     _scroll_x
	sta     _scroll_x+1
;
; --level;
;
	dec     _level
;
; level_down = 0;
;
	sta     _level_down
;
; max_rooms = level_max_rooms[level] - 1;
;
	ldy     _level
	lda     _level_max_rooms,y
	sec
	sbc     #$01
	sta     _max_rooms
;
; max_scroll = (max_rooms * 0x100) - 1; // 11 rooms makes 0x0AFF as the max
;
	tax
	lda     #$00
	sec
	sbc     #$01
	bcs     L2E01
	dex
L2E01:	sta     _max_scroll
	stx     _max_scroll+1
;
; scroll_x = max_scroll;
;
	sta     _scroll_x
	stx     _scroll_x+1
;
; room_to_load = max_rooms;
;
	lda     _max_rooms
	sta     _room_to_load
;
; if (high_byte(BoxGuy1.y) > 0xd0 && level_down)
;
L36CA:	lda     _BoxGuy1+3
	cmp     #$D1
	bcc     L36CE
	lda     _level_down
	beq     L36CE
;
; BoxGuy1.y = 0x1800;    // put the user near the top of screen
;
	ldx     #$18
	lda     #$00
	sta     _BoxGuy1+2
	stx     _BoxGuy1+2+1
;
; pal_fade_to(4, 0);    // fade to black
;
	lda     #$04
	jsr     pusha
	lda     #$00
	jsr     _pal_fade_to
;
; game_mode = MODE_SWITCH; // this handles loading the level
;
	lda     #$04
	sta     _game_mode
;
; ppu_off();
;
	jsr     _ppu_off
;
; scroll_x = 0;
;
	lda     #$00
	sta     _scroll_x
	sta     _scroll_x+1
;
; --level;
;
	dec     _level
;
; level_down = 0;
;
	sta     _level_down
;
; max_rooms = level_max_rooms[level] - 1;
;
	ldy     _level
	lda     _level_max_rooms,y
	sec
	sbc     #$01
	sta     _max_rooms
;
; max_scroll = (max_rooms * 0x100) - 1; // 11 rooms makes 0x0AFF as the max
;
	tax
	lda     #$00
	sec
	sbc     #$01
	bcs     L2E20
	dex
L2E20:	sta     _max_scroll
	stx     _max_scroll+1
;
; scroll_x = max_scroll;
;
	sta     _scroll_x
	stx     _scroll_x+1
;
; room_to_load = max_rooms;
;
	lda     _max_rooms
	sta     _room_to_load
;
; if (high_byte(BoxGuy1.y) > 0xf0 && death_flag)
;
L36CE:	lda     _BoxGuy1+3
	cmp     #$F1
	bcc     L36D2
	lda     _death_flag
	beq     L36D2
;
; ++death;
;
	inc     _death
;
; while (game_mode == MODE_GAME)
;
L36D2:	lda     _game_mode
	cmp     #$01
	jeq     L36BC
;
; while (game_mode == MODE_DEATH)
;
	jmp     L36D3
;
; ppu_wait_nmi();
;
L2E2B:	jsr     _ppu_wait_nmi
;
; pad1 = pad_poll(0); // read the first controller
;
	lda     #$00
	jsr     _pad_poll
	sta     _pad1
;
; pad1_new = get_pad_new(0);
;
	lda     #$00
	jsr     _get_pad_new
	sta     _pad1_new
;
; if (pad1_new & PAD_START)
;
	and     #$10
	beq     L36D3
;
; reset();
;
	jsr     _reset
;
; game_mode = MODE_GAME;
;
	lda     #$01
	sta     _game_mode
;
; while (game_mode == MODE_DEATH)
;
L36D3:	lda     _game_mode
	cmp     #$03
	beq     L2E2B
;
; while (game_mode == MODE_PAUSE)
;
	jmp     L36D4
;
; ppu_wait_nmi();
;
L2E3B:	jsr     _ppu_wait_nmi
;
; pad1 = pad_poll(0); // read the first controller
;
	lda     #$00
	jsr     _pad_poll
	sta     _pad1
;
; pad1_new = get_pad_new(0);
;
	lda     #$00
	jsr     _get_pad_new
	sta     _pad1_new
;
; if (pad1_new & PAD_START)
;
	and     #$10
	beq     L36D4
;
; game_mode = MODE_GAME;
;
	lda     #$01
	sta     _game_mode
;
; ppu_mask(0b00011000); // grayscale mode
;
	lda     #$18
	jsr     _ppu_mask
;
; while (game_mode == MODE_PAUSE)
;
L36D4:	lda     _game_mode
	cmp     #$02
	beq     L2E3B
;
; while (game_mode == MODE_SWITCH)
;
	jmp     L36D5
;
; ppu_wait_nmi();
;
L2E4C:	jsr     _ppu_wait_nmi
;
; ++bright_count;
;
	inc     _bright_count
;
; if (bright_count >= 0x10)
;
	lda     _bright_count
	cmp     #$10
	bcc     L2E57
;
; bright_count = 0;
;
	lda     #$00
	sta     _bright_count
;
; --bright;
;
	dec     _bright
;
; if (bright != 0xff)
;
	lda     _bright
	cmp     #$FF
	beq     L2E57
;
; pal_bright(bright); // fade out
;
	jsr     _pal_bright
;
; set_scroll_x(scroll_x);
;
L2E57:	lda     _scroll_x
	ldx     _scroll_x+1
	jsr     _set_scroll_x
;
; if (bright == 0xff)
;
	lda     _bright
	cmp     #$FF
	bne     L36D5
;
; ppu_off();
;
	jsr     _ppu_off
;
; oam_clear();
;
	jsr     _oam_clear
;
; scroll_x = 0;
;
	ldx     #$00
	txa
	sta     _scroll_x
	sta     _scroll_x+1
;
; set_scroll_x(scroll_x);
;
	jsr     _set_scroll_x
;
; if (level < 20)
;
	lda     _level
	cmp     #$14
	bcs     L36D5
;
; load_room();
;
	jsr     _load_room
;
; game_mode = MODE_GAME;
;
	lda     #$01
	sta     _game_mode
;
; ppu_on_all();
;
	jsr     _ppu_on_all
;
; pal_bright(4); // back to normal brighness
;
	lda     #$04
	jsr     _pal_bright
;
; while (game_mode == MODE_SWITCH)
;
L36D5:	lda     _game_mode
	cmp     #$04
	beq     L2E4C
;
; while (1)
;
	jmp     L36BB

.endproc

