;
; File generated by cc65 v 2.18 - N/A
;
	.fopt		compiler,"cc65 v 2.18 - N/A"
	.setcpu		"6502"
	.smart		on
	.autoimport	on
	.case		on
	.debuginfo	off
	.importzp	sp, sreg, regsave, regbank
	.importzp	tmp1, tmp2, tmp3, tmp4, ptr1, ptr2, ptr3, ptr4
	.macpack	longbranch
	.forceimport	__STARTUP__
	.import		_pal_bg
	.import		_pal_spr
	.import		_pal_bright
	.import		_ppu_wait_nmi
	.import		_ppu_off
	.import		_ppu_on_all
	.import		_ppu_mask
	.import		_oam_clear
	.import		_oam_spr
	.import		_oam_meta_spr
	.import		_pad_poll
	.import		_bank_spr
	.import		_bank_bg
	.import		_memcpy
	.import		_set_vram_buffer
	.import		_get_pad_new
	.import		_get_frame_count
	.import		_pal_fade_to
	.import		_set_scroll_x
	.import		_set_scroll_y
	.import		_get_ppu_addr
	.import		_set_data_pointer
	.import		_set_mt_pointer
	.import		_buffer_4_mt
	.import		_flush_vram_update2
	.import		_gray_line
	.export		_animate_implosion1_data
	.export		_animate_implosion2_data
	.export		_animate_implosion3_data
	.export		_animate_orb0_data
	.export		_animate_orb2_data
	.export		_animate_orb3_data
	.export		_animate_orb4_data
	.export		_animate_orb5_data
	.export		_animate_orb6_data
	.export		_animate_orb7_data
	.export		_animate_meter28_data
	.export		_animate_meter27_data
	.export		_animate_meter26_data
	.export		_animate_meter25_data
	.export		_animate_meter24_data
	.export		_animate_meter23_data
	.export		_animate_meter22_data
	.export		_animate_meter21_data
	.export		_animate_meter20_data
	.export		_animate_meter19_data
	.export		_animate_meter18_data
	.export		_animate_meter17_data
	.export		_animate_meter16_data
	.export		_animate_meter15_data
	.export		_animate_meter14_data
	.export		_animate_meter13_data
	.export		_animate_meter12_data
	.export		_animate_meter11_data
	.export		_animate_meter10_data
	.export		_animate_meter9_data
	.export		_animate_meter8_data
	.export		_animate_meter7_data
	.export		_animate_meter6_data
	.export		_animate_meter5_data
	.export		_animate_meter4_data
	.export		_animate_meter3_data
	.export		_animate_meter2_data
	.export		_animate_meter1_data
	.export		_animate_meter0_data
	.export		_animate_playerclimb1_data
	.export		_animate_playerclimb2_data
	.export		_animate_playerclimb3_data
	.export		_animate_recoilleft_data
	.export		_animate_recoilright_data
	.export		_animate_playerstandright_data
	.export		_animate_playerstandleft_data
	.export		_animate_playerstandshootleft_data
	.export		_animate_playerstandshootright_data
	.export		_animate_playerrun1left_data
	.export		_animate_playerrun2left_data
	.export		_animate_playerrun3left_data
	.export		_animate_playerrun4left_data
	.export		_animate_playerrun5left_data
	.export		_animate_playerrun1right_data
	.export		_animate_playerrun2right_data
	.export		_animate_playerrun3right_data
	.export		_animate_playerrun4right_data
	.export		_animate_playerrun5right_data
	.export		_animate_playerrunshoot1left_data
	.export		_animate_playerrunshoot2left_data
	.export		_animate_playerrunshoot3left_data
	.export		_animate_playerrunshoot4left_data
	.export		_animate_playerrunshoot5left_data
	.export		_animate_playerrunshoot1right_data
	.export		_animate_playerrunshoot2right_data
	.export		_animate_playerrunshoot3right_data
	.export		_animate_playerrunshoot4right_data
	.export		_animate_playerrunshoot5right_data
	.export		_animate_playerjumpleft_data
	.export		_animate_playerjumpleftshoot_data
	.export		_animate_playerjumpright_data
	.export		_animate_playerjumprightshoot_data
	.export		_animate_playerfallwiggle1left_data
	.export		_animate_payerfallwiggle2left_data
	.export		_animate_playerfallwiggle1leftshoot_data
	.export		_animate_playerfallwiggle2leftshoot_data
	.export		_animate_playerfallwiggle1right_data
	.export		_animate_playerfallwiggle2right_data
	.export		_animate_playerfallwiggle1rightshoot_data
	.export		_animate_playerfallwiggle2rightshoot_data
	.export		_animate_hootyowl1left_data
	.export		_animate_hootyowl2left_data
	.export		_animate_hootyowl3left_data
	.export		_animate_hootyowl4left_data
	.export		_animate_hootyowl5left_data
	.export		_animate_hootyowl1right_data
	.export		_animate_hootyowl2right_data
	.export		_animate_hootyowl3right_data
	.export		_animate_hootyowl4right_data
	.export		_animate_hootyowl5right_data
	.export		_animate_snail1left_data
	.export		_animate_snail2left_data
	.export		_animate_snail3left_data
	.export		_animate_snail1right_data
	.export		_animate_snail2right_data
	.export		_animate_snail3right_data
	.export		_animate_snake1left_data
	.export		_animate_snake2left_data
	.export		_animate_snake3left_data
	.export		_animate_snake4left_data
	.export		_animate_snake5left_data
	.export		_animate_snake6left_data
	.export		_animate_snake7left_data
	.export		_animate_snake8left_data
	.export		_animate_snake9left_data
	.export		_animate_snake10left_data
	.export		_animate_snake11left_data
	.export		_animate_snake12left_data
	.export		_animate_snake13left_data
	.export		_animate_snake14left_data
	.export		_animate_snake15_data
	.export		_animate_snake16_data
	.export		_animate_snake17_data
	.export		_animate_snake18_data
	.export		_animate_snake19_data
	.export		_animate_snake20_data
	.export		_animate_snake21_data
	.export		_animate_snake22_data
	.export		_animate_mole1_data
	.export		_animate_mole2_data
	.export		_animate_mole3_data
	.export		_animate_mole4_data
	.export		_animate_mole5_data
	.export		_animate_mole6_data
	.export		_animate_mole7_data
	.export		_animate_mole8_data
	.export		_animate_spider_data
	.export		_animate_mouse_data
	.export		_animate_list
	.export		_debug
	.export		_pad1
	.export		_pad1_new
	.export		_short_jump_count
	.export		_map_loaded
	.export		_collision
	.export		_player_in_air
	.export		_player_on_ladder
	.export		_player_in_hitstun
	.export		_player_jumping
	.export		_collision_L
	.export		_collision_R
	.export		_collision_U
	.export		_collision_D
	.export		_coordinates
	.export		_temp1
	.export		_temp2
	.export		_temp3
	.export		_temp4
	.export		_temp5
	.export		_temp6
	.export		_tempint
	.export		_temp_playerlocation
	.export		_temp_cmap1
	.export		_temp_cmap2
	.export		_level
	.export		_offset
	.export		_level_up
	.export		_eject_L
	.export		_eject_R
	.export		_eject_D
	.export		_eject_U
	.export		_direction
	.export		_sprite_frame_counter
	.export		_frame_counter
	.export		_address
	.export		_x
	.export		_y
	.export		_nt
	.export		_index
	.export		_index2
	.export		_room
	.export		_map
	.export		_scroll_x
	.export		_scroll_y
	.export		_scroll_count
	.export		_pseudo_scroll_x
	.export		_song
	.export		_game_mode
	.export		_pointer
	.export		_l_scroll_frames
	.export		_r_scroll_frames
	.export		_old_x
	.export		_old_y
	.export		_bright
	.export		_bright_count
	.export		_temp_x
	.export		_temp_y
	.export		_temp_room
	.export		_player_shooting
	.export		_death
	.export		_invul_frames
	.export		_projectile_cooldown
	.export		_projectile_count
	.export		_projectile_index
	.export		_projectiles_list
	.export		_projectiles_x
	.export		_projectiles_y
	.export		_sine_wave
	.export		_shuffle_array
	.export		_c_map
	.export		_c_map2
	.export		_Generic
	.export		_Generic2
	.export		_BoxGuy1
	.export		_max_rooms
	.export		_max_scroll
	.export		_palette_sp
	.export		_enemy_x
	.export		_enemy_y
	.export		_enemy_active
	.export		_enemy_health
	.export		_enemy_room
	.export		_enemy_actual_x
	.export		_enemy_type
	.export		_enemy_anim
	.export		_enemy_frames
	.export		_palette_bg
	.export		_metatile
	.export		_metatile_colision_map
	.export		_LEVELTNG_0
	.export		_LEVELTNG_1
	.export		_LEVELTNG_2
	.export		_LEVELTNG_3
	.export		_LEVELTNG_4
	.export		_LEVELTNG_5
	.export		_LEVELTNG_6
	.export		_LEVELTNG_7
	.export		_LEVELTNG_8
	.export		_LEVELTNG_9
	.export		_LEVELTNG_10
	.export		_Leveltng2_0
	.export		_Leveltng3_0
	.export		_Leveltng3_1
	.export		_Leveltng3_2
	.export		_Leveltng3_3
	.export		_Leveltng4_0
	.export		_Leveltng5_0
	.export		_Leveltng5_1
	.export		_Leveltng5_2
	.export		_Leveltng5_3
	.export		_Leveltng5_4
	.export		_Leveltng6_0
	.export		_Leveltng7_0
	.export		_stage1_levels_list
	.export		_Level_max_rooms
	.export		_Level_offsets
	.export		_level_1_enemies
	.export		_Enemy_list
	.export		_stage_1_transitions
	.export		_load_room
	.export		_draw_sprites
	.export		_movement
	.export		_bg_collision_sub
	.export		_draw_screen_R
	.export		_draw_screen_L
	.export		_new_cmap
	.export		_handle_scrolling
	.export		_projectile_movement
	.export		_check_spr_objects
	.export		_enemy_moves
	.export		_reset
	.export		_sprite_obj_init
	.export		_bg_coll_L
	.export		_bg_coll_R
	.export		_bg_coll_U
	.export		_bg_coll_D
	.export		_bg_coll_D2
	.export		_get_position
	.export		_bg_collision_fast
	.export		_bg_coll_ladder
	.export		_draw_player_health_meter
	.export		_draw_player_sprites
	.export		_main

.segment	"DATA"

_direction:
	.byte	$01
_room:
	.byte	$00
_projectiles_list:
	.byte	$FF
	.byte	$FF
	.byte	$FF
	.byte	$FF
_projectiles_x:
	.byte	$00
	.byte	$00
	.byte	$00
	.byte	$00
_projectiles_y:
	.byte	$00
	.byte	$00
	.byte	$00
	.byte	$00
_sine_wave:
	.byte	$05
	.byte	$08
	.byte	$0A
	.byte	$0A
	.byte	$08
	.byte	$05
	.byte	$02
	.byte	$00
	.byte	$00
	.byte	$02
_BoxGuy1:
	.word	$4000
	.word	$8400
	.res	5,$00

.segment	"RODATA"

_animate_implosion1_data:
	.byte	$00
	.byte	$00
	.byte	$2E
	.byte	$03
	.byte	$08
	.byte	$00
	.byte	$2F
	.byte	$03
	.byte	$00
	.byte	$08
	.byte	$3E
	.byte	$03
	.byte	$08
	.byte	$08
	.byte	$3F
	.byte	$03
	.byte	$80
_animate_implosion2_data:
	.byte	$04
	.byte	$04
	.byte	$4E
	.byte	$03
	.byte	$80
_animate_implosion3_data:
	.byte	$04
	.byte	$05
	.byte	$4F
	.byte	$03
	.byte	$80
_animate_orb0_data:
	.byte	$00
	.byte	$00
	.byte	$0C
	.byte	$00
	.byte	$80
_animate_orb2_data:
	.byte	$00
	.byte	$00
	.byte	$0D
	.byte	$00
	.byte	$80
_animate_orb3_data:
	.byte	$00
	.byte	$00
	.byte	$0E
	.byte	$00
	.byte	$80
_animate_orb4_data:
	.byte	$00
	.byte	$00
	.byte	$0F
	.byte	$00
	.byte	$80
_animate_orb5_data:
	.byte	$00
	.byte	$00
	.byte	$1F
	.byte	$00
	.byte	$80
_animate_orb6_data:
	.byte	$00
	.byte	$00
	.byte	$1E
	.byte	$00
	.byte	$80
_animate_orb7_data:
	.byte	$00
	.byte	$00
	.byte	$1D
	.byte	$00
	.byte	$80
_animate_meter28_data:
	.byte	$00
	.byte	$00
	.byte	$50
	.byte	$02
	.byte	$00
	.byte	$08
	.byte	$50
	.byte	$02
	.byte	$00
	.byte	$10
	.byte	$50
	.byte	$02
	.byte	$00
	.byte	$18
	.byte	$50
	.byte	$02
	.byte	$00
	.byte	$20
	.byte	$50
	.byte	$02
	.byte	$00
	.byte	$28
	.byte	$50
	.byte	$02
	.byte	$00
	.byte	$30
	.byte	$50
	.byte	$02
	.byte	$80
_animate_meter27_data:
	.byte	$00
	.byte	$00
	.byte	$51
	.byte	$02
	.byte	$00
	.byte	$08
	.byte	$50
	.byte	$02
	.byte	$00
	.byte	$10
	.byte	$50
	.byte	$02
	.byte	$00
	.byte	$18
	.byte	$50
	.byte	$02
	.byte	$00
	.byte	$20
	.byte	$50
	.byte	$02
	.byte	$00
	.byte	$28
	.byte	$50
	.byte	$02
	.byte	$00
	.byte	$30
	.byte	$50
	.byte	$02
	.byte	$80
_animate_meter26_data:
	.byte	$00
	.byte	$00
	.byte	$52
	.byte	$02
	.byte	$00
	.byte	$08
	.byte	$50
	.byte	$02
	.byte	$00
	.byte	$10
	.byte	$50
	.byte	$02
	.byte	$00
	.byte	$18
	.byte	$50
	.byte	$02
	.byte	$00
	.byte	$20
	.byte	$50
	.byte	$02
	.byte	$00
	.byte	$28
	.byte	$50
	.byte	$02
	.byte	$00
	.byte	$30
	.byte	$50
	.byte	$02
	.byte	$80
_animate_meter25_data:
	.byte	$00
	.byte	$00
	.byte	$53
	.byte	$02
	.byte	$00
	.byte	$08
	.byte	$50
	.byte	$02
	.byte	$00
	.byte	$10
	.byte	$50
	.byte	$02
	.byte	$00
	.byte	$18
	.byte	$50
	.byte	$02
	.byte	$00
	.byte	$20
	.byte	$50
	.byte	$02
	.byte	$00
	.byte	$28
	.byte	$50
	.byte	$02
	.byte	$00
	.byte	$30
	.byte	$50
	.byte	$02
	.byte	$80
_animate_meter24_data:
	.byte	$00
	.byte	$00
	.byte	$54
	.byte	$02
	.byte	$00
	.byte	$08
	.byte	$50
	.byte	$02
	.byte	$00
	.byte	$10
	.byte	$50
	.byte	$02
	.byte	$00
	.byte	$18
	.byte	$50
	.byte	$02
	.byte	$00
	.byte	$20
	.byte	$50
	.byte	$02
	.byte	$00
	.byte	$28
	.byte	$50
	.byte	$02
	.byte	$00
	.byte	$30
	.byte	$50
	.byte	$02
	.byte	$80
_animate_meter23_data:
	.byte	$00
	.byte	$00
	.byte	$54
	.byte	$02
	.byte	$00
	.byte	$08
	.byte	$51
	.byte	$02
	.byte	$00
	.byte	$10
	.byte	$50
	.byte	$02
	.byte	$00
	.byte	$18
	.byte	$50
	.byte	$02
	.byte	$00
	.byte	$20
	.byte	$50
	.byte	$02
	.byte	$00
	.byte	$28
	.byte	$50
	.byte	$02
	.byte	$00
	.byte	$30
	.byte	$50
	.byte	$02
	.byte	$80
_animate_meter22_data:
	.byte	$00
	.byte	$00
	.byte	$54
	.byte	$02
	.byte	$00
	.byte	$08
	.byte	$52
	.byte	$02
	.byte	$00
	.byte	$10
	.byte	$50
	.byte	$02
	.byte	$00
	.byte	$18
	.byte	$50
	.byte	$02
	.byte	$00
	.byte	$20
	.byte	$50
	.byte	$02
	.byte	$00
	.byte	$28
	.byte	$50
	.byte	$02
	.byte	$00
	.byte	$30
	.byte	$50
	.byte	$02
	.byte	$80
_animate_meter21_data:
	.byte	$00
	.byte	$00
	.byte	$54
	.byte	$02
	.byte	$00
	.byte	$08
	.byte	$53
	.byte	$02
	.byte	$00
	.byte	$10
	.byte	$50
	.byte	$02
	.byte	$00
	.byte	$18
	.byte	$50
	.byte	$02
	.byte	$00
	.byte	$20
	.byte	$50
	.byte	$02
	.byte	$00
	.byte	$28
	.byte	$50
	.byte	$02
	.byte	$00
	.byte	$30
	.byte	$50
	.byte	$02
	.byte	$80
_animate_meter20_data:
	.byte	$00
	.byte	$00
	.byte	$54
	.byte	$02
	.byte	$00
	.byte	$08
	.byte	$54
	.byte	$02
	.byte	$00
	.byte	$10
	.byte	$50
	.byte	$02
	.byte	$00
	.byte	$18
	.byte	$50
	.byte	$02
	.byte	$00
	.byte	$20
	.byte	$50
	.byte	$02
	.byte	$00
	.byte	$28
	.byte	$50
	.byte	$02
	.byte	$00
	.byte	$30
	.byte	$50
	.byte	$02
	.byte	$80
_animate_meter19_data:
	.byte	$00
	.byte	$00
	.byte	$54
	.byte	$02
	.byte	$00
	.byte	$08
	.byte	$54
	.byte	$02
	.byte	$00
	.byte	$10
	.byte	$51
	.byte	$02
	.byte	$00
	.byte	$18
	.byte	$50
	.byte	$02
	.byte	$00
	.byte	$20
	.byte	$50
	.byte	$02
	.byte	$00
	.byte	$28
	.byte	$50
	.byte	$02
	.byte	$00
	.byte	$30
	.byte	$50
	.byte	$02
	.byte	$80
_animate_meter18_data:
	.byte	$00
	.byte	$00
	.byte	$54
	.byte	$02
	.byte	$00
	.byte	$08
	.byte	$54
	.byte	$02
	.byte	$00
	.byte	$10
	.byte	$52
	.byte	$02
	.byte	$00
	.byte	$18
	.byte	$50
	.byte	$02
	.byte	$00
	.byte	$20
	.byte	$50
	.byte	$02
	.byte	$00
	.byte	$28
	.byte	$50
	.byte	$02
	.byte	$00
	.byte	$30
	.byte	$50
	.byte	$02
	.byte	$80
_animate_meter17_data:
	.byte	$00
	.byte	$00
	.byte	$54
	.byte	$02
	.byte	$00
	.byte	$08
	.byte	$54
	.byte	$02
	.byte	$00
	.byte	$10
	.byte	$53
	.byte	$02
	.byte	$00
	.byte	$18
	.byte	$50
	.byte	$02
	.byte	$00
	.byte	$20
	.byte	$50
	.byte	$02
	.byte	$00
	.byte	$28
	.byte	$50
	.byte	$02
	.byte	$00
	.byte	$30
	.byte	$50
	.byte	$02
	.byte	$80
_animate_meter16_data:
	.byte	$00
	.byte	$00
	.byte	$54
	.byte	$02
	.byte	$00
	.byte	$08
	.byte	$54
	.byte	$02
	.byte	$00
	.byte	$10
	.byte	$54
	.byte	$02
	.byte	$00
	.byte	$18
	.byte	$50
	.byte	$02
	.byte	$00
	.byte	$20
	.byte	$50
	.byte	$02
	.byte	$00
	.byte	$28
	.byte	$50
	.byte	$02
	.byte	$00
	.byte	$30
	.byte	$50
	.byte	$02
	.byte	$80
_animate_meter15_data:
	.byte	$00
	.byte	$00
	.byte	$54
	.byte	$02
	.byte	$00
	.byte	$08
	.byte	$54
	.byte	$02
	.byte	$00
	.byte	$10
	.byte	$54
	.byte	$02
	.byte	$00
	.byte	$18
	.byte	$51
	.byte	$02
	.byte	$00
	.byte	$20
	.byte	$50
	.byte	$02
	.byte	$00
	.byte	$28
	.byte	$50
	.byte	$02
	.byte	$00
	.byte	$30
	.byte	$50
	.byte	$02
	.byte	$80
_animate_meter14_data:
	.byte	$00
	.byte	$00
	.byte	$54
	.byte	$02
	.byte	$00
	.byte	$08
	.byte	$54
	.byte	$02
	.byte	$00
	.byte	$10
	.byte	$54
	.byte	$02
	.byte	$00
	.byte	$18
	.byte	$52
	.byte	$02
	.byte	$00
	.byte	$20
	.byte	$50
	.byte	$02
	.byte	$00
	.byte	$28
	.byte	$50
	.byte	$02
	.byte	$00
	.byte	$30
	.byte	$50
	.byte	$02
	.byte	$80
_animate_meter13_data:
	.byte	$00
	.byte	$00
	.byte	$54
	.byte	$02
	.byte	$00
	.byte	$08
	.byte	$54
	.byte	$02
	.byte	$00
	.byte	$10
	.byte	$54
	.byte	$02
	.byte	$00
	.byte	$18
	.byte	$53
	.byte	$02
	.byte	$00
	.byte	$20
	.byte	$50
	.byte	$02
	.byte	$00
	.byte	$28
	.byte	$50
	.byte	$02
	.byte	$00
	.byte	$30
	.byte	$50
	.byte	$02
	.byte	$80
_animate_meter12_data:
	.byte	$00
	.byte	$00
	.byte	$54
	.byte	$02
	.byte	$00
	.byte	$08
	.byte	$54
	.byte	$02
	.byte	$00
	.byte	$10
	.byte	$54
	.byte	$02
	.byte	$00
	.byte	$18
	.byte	$54
	.byte	$02
	.byte	$00
	.byte	$20
	.byte	$50
	.byte	$02
	.byte	$00
	.byte	$28
	.byte	$50
	.byte	$02
	.byte	$00
	.byte	$30
	.byte	$50
	.byte	$02
	.byte	$80
_animate_meter11_data:
	.byte	$00
	.byte	$00
	.byte	$54
	.byte	$02
	.byte	$00
	.byte	$08
	.byte	$54
	.byte	$02
	.byte	$00
	.byte	$10
	.byte	$54
	.byte	$02
	.byte	$00
	.byte	$18
	.byte	$54
	.byte	$02
	.byte	$00
	.byte	$20
	.byte	$51
	.byte	$02
	.byte	$00
	.byte	$28
	.byte	$50
	.byte	$02
	.byte	$00
	.byte	$30
	.byte	$50
	.byte	$02
	.byte	$80
_animate_meter10_data:
	.byte	$00
	.byte	$00
	.byte	$54
	.byte	$02
	.byte	$00
	.byte	$08
	.byte	$54
	.byte	$02
	.byte	$00
	.byte	$10
	.byte	$54
	.byte	$02
	.byte	$00
	.byte	$18
	.byte	$54
	.byte	$02
	.byte	$00
	.byte	$20
	.byte	$52
	.byte	$02
	.byte	$00
	.byte	$28
	.byte	$50
	.byte	$02
	.byte	$00
	.byte	$30
	.byte	$50
	.byte	$02
	.byte	$80
_animate_meter9_data:
	.byte	$00
	.byte	$00
	.byte	$54
	.byte	$02
	.byte	$00
	.byte	$08
	.byte	$54
	.byte	$02
	.byte	$00
	.byte	$10
	.byte	$54
	.byte	$02
	.byte	$00
	.byte	$18
	.byte	$54
	.byte	$02
	.byte	$00
	.byte	$20
	.byte	$53
	.byte	$02
	.byte	$00
	.byte	$28
	.byte	$50
	.byte	$02
	.byte	$00
	.byte	$30
	.byte	$50
	.byte	$02
	.byte	$80
_animate_meter8_data:
	.byte	$00
	.byte	$00
	.byte	$54
	.byte	$02
	.byte	$00
	.byte	$08
	.byte	$54
	.byte	$02
	.byte	$00
	.byte	$10
	.byte	$54
	.byte	$02
	.byte	$00
	.byte	$18
	.byte	$54
	.byte	$02
	.byte	$00
	.byte	$20
	.byte	$54
	.byte	$02
	.byte	$00
	.byte	$28
	.byte	$50
	.byte	$02
	.byte	$00
	.byte	$30
	.byte	$50
	.byte	$02
	.byte	$80
_animate_meter7_data:
	.byte	$00
	.byte	$00
	.byte	$54
	.byte	$02
	.byte	$00
	.byte	$08
	.byte	$54
	.byte	$02
	.byte	$00
	.byte	$10
	.byte	$54
	.byte	$02
	.byte	$00
	.byte	$18
	.byte	$54
	.byte	$02
	.byte	$00
	.byte	$20
	.byte	$54
	.byte	$02
	.byte	$00
	.byte	$28
	.byte	$51
	.byte	$02
	.byte	$00
	.byte	$30
	.byte	$50
	.byte	$02
	.byte	$80
_animate_meter6_data:
	.byte	$00
	.byte	$00
	.byte	$54
	.byte	$02
	.byte	$00
	.byte	$08
	.byte	$54
	.byte	$02
	.byte	$00
	.byte	$10
	.byte	$54
	.byte	$02
	.byte	$00
	.byte	$18
	.byte	$54
	.byte	$02
	.byte	$00
	.byte	$20
	.byte	$54
	.byte	$02
	.byte	$00
	.byte	$28
	.byte	$52
	.byte	$02
	.byte	$00
	.byte	$30
	.byte	$50
	.byte	$02
	.byte	$80
_animate_meter5_data:
	.byte	$00
	.byte	$00
	.byte	$54
	.byte	$02
	.byte	$00
	.byte	$08
	.byte	$54
	.byte	$02
	.byte	$00
	.byte	$10
	.byte	$54
	.byte	$02
	.byte	$00
	.byte	$18
	.byte	$54
	.byte	$02
	.byte	$00
	.byte	$20
	.byte	$54
	.byte	$02
	.byte	$00
	.byte	$28
	.byte	$53
	.byte	$02
	.byte	$00
	.byte	$30
	.byte	$50
	.byte	$02
	.byte	$80
_animate_meter4_data:
	.byte	$00
	.byte	$00
	.byte	$54
	.byte	$02
	.byte	$00
	.byte	$08
	.byte	$54
	.byte	$02
	.byte	$00
	.byte	$10
	.byte	$54
	.byte	$02
	.byte	$00
	.byte	$18
	.byte	$54
	.byte	$02
	.byte	$00
	.byte	$20
	.byte	$54
	.byte	$02
	.byte	$00
	.byte	$28
	.byte	$54
	.byte	$02
	.byte	$00
	.byte	$30
	.byte	$50
	.byte	$02
	.byte	$80
_animate_meter3_data:
	.byte	$00
	.byte	$00
	.byte	$54
	.byte	$02
	.byte	$00
	.byte	$08
	.byte	$54
	.byte	$02
	.byte	$00
	.byte	$10
	.byte	$54
	.byte	$02
	.byte	$00
	.byte	$18
	.byte	$54
	.byte	$02
	.byte	$00
	.byte	$20
	.byte	$54
	.byte	$02
	.byte	$00
	.byte	$28
	.byte	$54
	.byte	$02
	.byte	$00
	.byte	$30
	.byte	$51
	.byte	$02
	.byte	$80
_animate_meter2_data:
	.byte	$00
	.byte	$00
	.byte	$54
	.byte	$02
	.byte	$00
	.byte	$08
	.byte	$54
	.byte	$02
	.byte	$00
	.byte	$10
	.byte	$54
	.byte	$02
	.byte	$00
	.byte	$18
	.byte	$54
	.byte	$02
	.byte	$00
	.byte	$20
	.byte	$54
	.byte	$02
	.byte	$00
	.byte	$28
	.byte	$54
	.byte	$02
	.byte	$00
	.byte	$30
	.byte	$52
	.byte	$02
	.byte	$80
_animate_meter1_data:
	.byte	$00
	.byte	$00
	.byte	$54
	.byte	$02
	.byte	$00
	.byte	$08
	.byte	$54
	.byte	$02
	.byte	$00
	.byte	$10
	.byte	$54
	.byte	$02
	.byte	$00
	.byte	$18
	.byte	$54
	.byte	$02
	.byte	$00
	.byte	$20
	.byte	$54
	.byte	$02
	.byte	$00
	.byte	$28
	.byte	$54
	.byte	$02
	.byte	$00
	.byte	$30
	.byte	$53
	.byte	$02
	.byte	$80
_animate_meter0_data:
	.byte	$00
	.byte	$00
	.byte	$54
	.byte	$02
	.byte	$00
	.byte	$08
	.byte	$54
	.byte	$02
	.byte	$00
	.byte	$10
	.byte	$54
	.byte	$02
	.byte	$00
	.byte	$18
	.byte	$54
	.byte	$02
	.byte	$00
	.byte	$20
	.byte	$54
	.byte	$02
	.byte	$00
	.byte	$28
	.byte	$54
	.byte	$02
	.byte	$00
	.byte	$30
	.byte	$54
	.byte	$02
	.byte	$80
_animate_playerclimb1_data:
	.byte	$08
	.byte	$F8
	.byte	$06
	.byte	$00
	.byte	$10
	.byte	$F8
	.byte	$03
	.byte	$00
	.byte	$08
	.byte	$00
	.byte	$16
	.byte	$00
	.byte	$10
	.byte	$00
	.byte	$13
	.byte	$00
	.byte	$08
	.byte	$08
	.byte	$26
	.byte	$00
	.byte	$10
	.byte	$08
	.byte	$23
	.byte	$00
	.byte	$80
_animate_playerclimb2_data:
	.byte	$08
	.byte	$F8
	.byte	$04
	.byte	$00
	.byte	$10
	.byte	$F8
	.byte	$05
	.byte	$00
	.byte	$08
	.byte	$00
	.byte	$14
	.byte	$00
	.byte	$10
	.byte	$00
	.byte	$15
	.byte	$00
	.byte	$08
	.byte	$08
	.byte	$24
	.byte	$00
	.byte	$10
	.byte	$08
	.byte	$25
	.byte	$00
	.byte	$80
_animate_playerclimb3_data:
	.byte	$08
	.byte	$F8
	.byte	$02
	.byte	$00
	.byte	$10
	.byte	$F8
	.byte	$07
	.byte	$00
	.byte	$08
	.byte	$00
	.byte	$12
	.byte	$00
	.byte	$10
	.byte	$00
	.byte	$17
	.byte	$00
	.byte	$08
	.byte	$08
	.byte	$22
	.byte	$00
	.byte	$10
	.byte	$08
	.byte	$27
	.byte	$00
	.byte	$80
_animate_recoilleft_data:
	.byte	$00
	.byte	$F8
	.byte	$18
	.byte	$00
	.byte	$08
	.byte	$F8
	.byte	$19
	.byte	$00
	.byte	$00
	.byte	$00
	.byte	$65
	.byte	$00
	.byte	$08
	.byte	$00
	.byte	$68
	.byte	$00
	.byte	$00
	.byte	$08
	.byte	$45
	.byte	$00
	.byte	$08
	.byte	$08
	.byte	$4C
	.byte	$00
	.byte	$04
	.byte	$F9
	.byte	$0B
	.byte	$02
	.byte	$0F
	.byte	$09
	.byte	$4D
	.byte	$00
	.byte	$80
_animate_recoilright_data:
	.byte	$10
	.byte	$F8
	.byte	$18
	.byte	$40
	.byte	$08
	.byte	$F8
	.byte	$19
	.byte	$40
	.byte	$10
	.byte	$00
	.byte	$65
	.byte	$40
	.byte	$08
	.byte	$00
	.byte	$68
	.byte	$40
	.byte	$10
	.byte	$08
	.byte	$45
	.byte	$40
	.byte	$08
	.byte	$08
	.byte	$4C
	.byte	$40
	.byte	$0C
	.byte	$F9
	.byte	$0B
	.byte	$42
	.byte	$01
	.byte	$09
	.byte	$4D
	.byte	$40
	.byte	$80
_animate_playerstandright_data:
	.byte	$10
	.byte	$F8
	.byte	$00
	.byte	$40
	.byte	$08
	.byte	$F8
	.byte	$01
	.byte	$40
	.byte	$10
	.byte	$00
	.byte	$10
	.byte	$40
	.byte	$08
	.byte	$00
	.byte	$11
	.byte	$40
	.byte	$10
	.byte	$08
	.byte	$20
	.byte	$40
	.byte	$08
	.byte	$08
	.byte	$21
	.byte	$40
	.byte	$0C
	.byte	$F9
	.byte	$0B
	.byte	$42
	.byte	$80
_animate_playerstandleft_data:
	.byte	$08
	.byte	$F8
	.byte	$00
	.byte	$00
	.byte	$10
	.byte	$F8
	.byte	$01
	.byte	$00
	.byte	$08
	.byte	$00
	.byte	$10
	.byte	$00
	.byte	$10
	.byte	$00
	.byte	$11
	.byte	$00
	.byte	$08
	.byte	$08
	.byte	$20
	.byte	$00
	.byte	$10
	.byte	$08
	.byte	$21
	.byte	$00
	.byte	$0C
	.byte	$F9
	.byte	$0B
	.byte	$02
	.byte	$80
_animate_playerstandshootleft_data:
	.byte	$08
	.byte	$F8
	.byte	$00
	.byte	$00
	.byte	$10
	.byte	$F8
	.byte	$01
	.byte	$00
	.byte	$08
	.byte	$00
	.byte	$09
	.byte	$00
	.byte	$10
	.byte	$00
	.byte	$11
	.byte	$00
	.byte	$08
	.byte	$08
	.byte	$20
	.byte	$00
	.byte	$10
	.byte	$08
	.byte	$21
	.byte	$00
	.byte	$0C
	.byte	$F9
	.byte	$0B
	.byte	$02
	.byte	$00
	.byte	$00
	.byte	$08
	.byte	$00
	.byte	$80
_animate_playerstandshootright_data:
	.byte	$10
	.byte	$F8
	.byte	$00
	.byte	$40
	.byte	$08
	.byte	$F8
	.byte	$01
	.byte	$40
	.byte	$10
	.byte	$00
	.byte	$09
	.byte	$40
	.byte	$08
	.byte	$00
	.byte	$11
	.byte	$40
	.byte	$10
	.byte	$08
	.byte	$20
	.byte	$40
	.byte	$08
	.byte	$08
	.byte	$21
	.byte	$40
	.byte	$0C
	.byte	$F9
	.byte	$0B
	.byte	$42
	.byte	$18
	.byte	$00
	.byte	$08
	.byte	$40
	.byte	$80
_animate_playerrun1left_data:
	.byte	$08
	.byte	$F8
	.byte	$00
	.byte	$00
	.byte	$10
	.byte	$F8
	.byte	$01
	.byte	$00
	.byte	$08
	.byte	$00
	.byte	$35
	.byte	$00
	.byte	$10
	.byte	$00
	.byte	$36
	.byte	$00
	.byte	$08
	.byte	$08
	.byte	$45
	.byte	$00
	.byte	$10
	.byte	$08
	.byte	$46
	.byte	$00
	.byte	$0C
	.byte	$F9
	.byte	$0B
	.byte	$02
	.byte	$18
	.byte	$08
	.byte	$47
	.byte	$00
	.byte	$00
	.byte	$00
	.byte	$34
	.byte	$00
	.byte	$80
_animate_playerrun2left_data:
	.byte	$08
	.byte	$F8
	.byte	$00
	.byte	$00
	.byte	$10
	.byte	$F8
	.byte	$01
	.byte	$00
	.byte	$08
	.byte	$00
	.byte	$32
	.byte	$00
	.byte	$10
	.byte	$00
	.byte	$33
	.byte	$00
	.byte	$08
	.byte	$08
	.byte	$42
	.byte	$00
	.byte	$10
	.byte	$08
	.byte	$43
	.byte	$00
	.byte	$0C
	.byte	$F9
	.byte	$0B
	.byte	$02
	.byte	$08
	.byte	$00
	.byte	$34
	.byte	$00
	.byte	$80
_animate_playerrun3left_data:
	.byte	$08
	.byte	$F8
	.byte	$00
	.byte	$00
	.byte	$10
	.byte	$F8
	.byte	$01
	.byte	$00
	.byte	$08
	.byte	$00
	.byte	$30
	.byte	$00
	.byte	$10
	.byte	$00
	.byte	$31
	.byte	$00
	.byte	$08
	.byte	$08
	.byte	$40
	.byte	$00
	.byte	$10
	.byte	$08
	.byte	$41
	.byte	$00
	.byte	$0C
	.byte	$F9
	.byte	$0B
	.byte	$02
	.byte	$08
	.byte	$00
	.byte	$34
	.byte	$00
	.byte	$80
_animate_playerrun4left_data:
	.byte	$08
	.byte	$F8
	.byte	$00
	.byte	$00
	.byte	$10
	.byte	$F8
	.byte	$01
	.byte	$00
	.byte	$08
	.byte	$00
	.byte	$38
	.byte	$00
	.byte	$10
	.byte	$00
	.byte	$39
	.byte	$00
	.byte	$08
	.byte	$08
	.byte	$48
	.byte	$00
	.byte	$10
	.byte	$08
	.byte	$49
	.byte	$00
	.byte	$0C
	.byte	$F9
	.byte	$0B
	.byte	$02
	.byte	$08
	.byte	$00
	.byte	$34
	.byte	$00
	.byte	$80
_animate_playerrun5left_data:
	.byte	$08
	.byte	$F8
	.byte	$00
	.byte	$00
	.byte	$10
	.byte	$F8
	.byte	$01
	.byte	$00
	.byte	$08
	.byte	$00
	.byte	$3B
	.byte	$00
	.byte	$10
	.byte	$00
	.byte	$3C
	.byte	$00
	.byte	$08
	.byte	$08
	.byte	$4B
	.byte	$00
	.byte	$10
	.byte	$08
	.byte	$4C
	.byte	$00
	.byte	$0C
	.byte	$F9
	.byte	$0B
	.byte	$02
	.byte	$08
	.byte	$00
	.byte	$34
	.byte	$00
	.byte	$18
	.byte	$08
	.byte	$4D
	.byte	$00
	.byte	$80
_animate_playerrun1right_data:
	.byte	$10
	.byte	$F8
	.byte	$00
	.byte	$40
	.byte	$08
	.byte	$F8
	.byte	$01
	.byte	$40
	.byte	$10
	.byte	$00
	.byte	$35
	.byte	$40
	.byte	$08
	.byte	$00
	.byte	$36
	.byte	$40
	.byte	$10
	.byte	$08
	.byte	$45
	.byte	$40
	.byte	$08
	.byte	$08
	.byte	$46
	.byte	$40
	.byte	$0C
	.byte	$F9
	.byte	$0B
	.byte	$42
	.byte	$00
	.byte	$08
	.byte	$47
	.byte	$40
	.byte	$18
	.byte	$00
	.byte	$34
	.byte	$40
	.byte	$80
_animate_playerrun2right_data:
	.byte	$10
	.byte	$F8
	.byte	$00
	.byte	$40
	.byte	$08
	.byte	$F8
	.byte	$01
	.byte	$40
	.byte	$10
	.byte	$00
	.byte	$32
	.byte	$40
	.byte	$08
	.byte	$00
	.byte	$33
	.byte	$40
	.byte	$10
	.byte	$08
	.byte	$42
	.byte	$40
	.byte	$08
	.byte	$08
	.byte	$43
	.byte	$40
	.byte	$0C
	.byte	$F9
	.byte	$0B
	.byte	$42
	.byte	$10
	.byte	$00
	.byte	$34
	.byte	$40
	.byte	$80
_animate_playerrun3right_data:
	.byte	$10
	.byte	$F8
	.byte	$00
	.byte	$40
	.byte	$08
	.byte	$F8
	.byte	$01
	.byte	$40
	.byte	$10
	.byte	$00
	.byte	$30
	.byte	$40
	.byte	$08
	.byte	$00
	.byte	$31
	.byte	$40
	.byte	$10
	.byte	$08
	.byte	$40
	.byte	$40
	.byte	$08
	.byte	$08
	.byte	$41
	.byte	$40
	.byte	$0C
	.byte	$F9
	.byte	$0B
	.byte	$42
	.byte	$10
	.byte	$00
	.byte	$34
	.byte	$40
	.byte	$80
_animate_playerrun4right_data:
	.byte	$10
	.byte	$F8
	.byte	$00
	.byte	$40
	.byte	$08
	.byte	$F8
	.byte	$01
	.byte	$40
	.byte	$10
	.byte	$00
	.byte	$38
	.byte	$40
	.byte	$08
	.byte	$00
	.byte	$39
	.byte	$40
	.byte	$10
	.byte	$08
	.byte	$48
	.byte	$40
	.byte	$08
	.byte	$08
	.byte	$49
	.byte	$40
	.byte	$0C
	.byte	$F9
	.byte	$0B
	.byte	$42
	.byte	$10
	.byte	$00
	.byte	$34
	.byte	$40
	.byte	$80
_animate_playerrun5right_data:
	.byte	$10
	.byte	$F8
	.byte	$00
	.byte	$40
	.byte	$08
	.byte	$F8
	.byte	$01
	.byte	$40
	.byte	$10
	.byte	$00
	.byte	$3B
	.byte	$40
	.byte	$08
	.byte	$00
	.byte	$3C
	.byte	$40
	.byte	$10
	.byte	$08
	.byte	$4B
	.byte	$40
	.byte	$08
	.byte	$08
	.byte	$4C
	.byte	$40
	.byte	$0C
	.byte	$F9
	.byte	$0B
	.byte	$42
	.byte	$10
	.byte	$00
	.byte	$34
	.byte	$40
	.byte	$00
	.byte	$08
	.byte	$4D
	.byte	$40
	.byte	$80
_animate_playerrunshoot1left_data:
	.byte	$08
	.byte	$F8
	.byte	$00
	.byte	$00
	.byte	$10
	.byte	$F8
	.byte	$01
	.byte	$00
	.byte	$08
	.byte	$00
	.byte	$09
	.byte	$00
	.byte	$10
	.byte	$00
	.byte	$36
	.byte	$00
	.byte	$08
	.byte	$08
	.byte	$45
	.byte	$00
	.byte	$10
	.byte	$08
	.byte	$46
	.byte	$00
	.byte	$0C
	.byte	$F9
	.byte	$0B
	.byte	$02
	.byte	$18
	.byte	$08
	.byte	$47
	.byte	$00
	.byte	$00
	.byte	$00
	.byte	$08
	.byte	$00
	.byte	$80
_animate_playerrunshoot2left_data:
	.byte	$08
	.byte	$F8
	.byte	$00
	.byte	$00
	.byte	$10
	.byte	$F8
	.byte	$01
	.byte	$00
	.byte	$08
	.byte	$00
	.byte	$09
	.byte	$00
	.byte	$10
	.byte	$00
	.byte	$36
	.byte	$00
	.byte	$08
	.byte	$08
	.byte	$42
	.byte	$00
	.byte	$10
	.byte	$08
	.byte	$43
	.byte	$00
	.byte	$0C
	.byte	$F9
	.byte	$0B
	.byte	$02
	.byte	$00
	.byte	$00
	.byte	$08
	.byte	$00
	.byte	$80
_animate_playerrunshoot3left_data:
	.byte	$08
	.byte	$F8
	.byte	$00
	.byte	$00
	.byte	$10
	.byte	$F8
	.byte	$01
	.byte	$00
	.byte	$08
	.byte	$00
	.byte	$09
	.byte	$00
	.byte	$10
	.byte	$00
	.byte	$31
	.byte	$00
	.byte	$08
	.byte	$08
	.byte	$40
	.byte	$00
	.byte	$10
	.byte	$08
	.byte	$41
	.byte	$00
	.byte	$0C
	.byte	$F9
	.byte	$0B
	.byte	$02
	.byte	$00
	.byte	$00
	.byte	$08
	.byte	$00
	.byte	$80
_animate_playerrunshoot4left_data:
	.byte	$08
	.byte	$F8
	.byte	$00
	.byte	$00
	.byte	$10
	.byte	$F8
	.byte	$01
	.byte	$00
	.byte	$08
	.byte	$00
	.byte	$09
	.byte	$00
	.byte	$10
	.byte	$00
	.byte	$39
	.byte	$00
	.byte	$08
	.byte	$08
	.byte	$48
	.byte	$00
	.byte	$10
	.byte	$08
	.byte	$49
	.byte	$00
	.byte	$0C
	.byte	$F9
	.byte	$0B
	.byte	$02
	.byte	$00
	.byte	$00
	.byte	$08
	.byte	$00
	.byte	$80
_animate_playerrunshoot5left_data:
	.byte	$08
	.byte	$F8
	.byte	$00
	.byte	$00
	.byte	$10
	.byte	$F8
	.byte	$01
	.byte	$00
	.byte	$08
	.byte	$00
	.byte	$09
	.byte	$00
	.byte	$10
	.byte	$00
	.byte	$3C
	.byte	$00
	.byte	$08
	.byte	$08
	.byte	$4B
	.byte	$00
	.byte	$10
	.byte	$08
	.byte	$4C
	.byte	$00
	.byte	$0C
	.byte	$F9
	.byte	$0B
	.byte	$02
	.byte	$18
	.byte	$08
	.byte	$4D
	.byte	$00
	.byte	$00
	.byte	$00
	.byte	$08
	.byte	$00
	.byte	$80
_animate_playerrunshoot1right_data:
	.byte	$10
	.byte	$F8
	.byte	$00
	.byte	$40
	.byte	$08
	.byte	$F8
	.byte	$01
	.byte	$40
	.byte	$10
	.byte	$00
	.byte	$09
	.byte	$40
	.byte	$08
	.byte	$00
	.byte	$36
	.byte	$40
	.byte	$10
	.byte	$08
	.byte	$45
	.byte	$40
	.byte	$08
	.byte	$08
	.byte	$46
	.byte	$40
	.byte	$0C
	.byte	$F9
	.byte	$0B
	.byte	$42
	.byte	$00
	.byte	$08
	.byte	$47
	.byte	$40
	.byte	$18
	.byte	$00
	.byte	$08
	.byte	$40
	.byte	$80
_animate_playerrunshoot2right_data:
	.byte	$10
	.byte	$F8
	.byte	$00
	.byte	$40
	.byte	$08
	.byte	$F8
	.byte	$01
	.byte	$40
	.byte	$10
	.byte	$00
	.byte	$09
	.byte	$40
	.byte	$08
	.byte	$00
	.byte	$36
	.byte	$40
	.byte	$10
	.byte	$08
	.byte	$42
	.byte	$40
	.byte	$08
	.byte	$08
	.byte	$43
	.byte	$40
	.byte	$0C
	.byte	$F9
	.byte	$0B
	.byte	$42
	.byte	$18
	.byte	$00
	.byte	$08
	.byte	$40
	.byte	$80
_animate_playerrunshoot3right_data:
	.byte	$10
	.byte	$F8
	.byte	$00
	.byte	$40
	.byte	$08
	.byte	$F8
	.byte	$01
	.byte	$40
	.byte	$10
	.byte	$00
	.byte	$09
	.byte	$40
	.byte	$08
	.byte	$00
	.byte	$31
	.byte	$40
	.byte	$10
	.byte	$08
	.byte	$40
	.byte	$40
	.byte	$08
	.byte	$08
	.byte	$41
	.byte	$40
	.byte	$0C
	.byte	$F9
	.byte	$0B
	.byte	$42
	.byte	$18
	.byte	$00
	.byte	$08
	.byte	$40
	.byte	$80
_animate_playerrunshoot4right_data:
	.byte	$10
	.byte	$F8
	.byte	$00
	.byte	$40
	.byte	$08
	.byte	$F8
	.byte	$01
	.byte	$40
	.byte	$10
	.byte	$00
	.byte	$09
	.byte	$40
	.byte	$08
	.byte	$00
	.byte	$39
	.byte	$40
	.byte	$10
	.byte	$08
	.byte	$48
	.byte	$40
	.byte	$08
	.byte	$08
	.byte	$49
	.byte	$40
	.byte	$0C
	.byte	$F9
	.byte	$0B
	.byte	$42
	.byte	$18
	.byte	$00
	.byte	$08
	.byte	$40
	.byte	$80
_animate_playerrunshoot5right_data:
	.byte	$10
	.byte	$F8
	.byte	$00
	.byte	$40
	.byte	$08
	.byte	$F8
	.byte	$01
	.byte	$40
	.byte	$10
	.byte	$00
	.byte	$09
	.byte	$40
	.byte	$08
	.byte	$00
	.byte	$3C
	.byte	$40
	.byte	$10
	.byte	$08
	.byte	$4B
	.byte	$40
	.byte	$08
	.byte	$08
	.byte	$4C
	.byte	$40
	.byte	$0C
	.byte	$F9
	.byte	$0B
	.byte	$42
	.byte	$00
	.byte	$08
	.byte	$4D
	.byte	$40
	.byte	$18
	.byte	$00
	.byte	$08
	.byte	$40
	.byte	$80
_animate_playerjumpleft_data:
	.byte	$08
	.byte	$F8
	.byte	$55
	.byte	$00
	.byte	$10
	.byte	$F8
	.byte	$56
	.byte	$00
	.byte	$08
	.byte	$00
	.byte	$65
	.byte	$00
	.byte	$10
	.byte	$00
	.byte	$66
	.byte	$00
	.byte	$08
	.byte	$08
	.byte	$75
	.byte	$00
	.byte	$10
	.byte	$08
	.byte	$76
	.byte	$00
	.byte	$0C
	.byte	$F9
	.byte	$0B
	.byte	$02
	.byte	$80
_animate_playerjumpleftshoot_data:
	.byte	$08
	.byte	$F8
	.byte	$00
	.byte	$00
	.byte	$10
	.byte	$F8
	.byte	$56
	.byte	$00
	.byte	$08
	.byte	$00
	.byte	$09
	.byte	$00
	.byte	$10
	.byte	$00
	.byte	$66
	.byte	$00
	.byte	$08
	.byte	$08
	.byte	$75
	.byte	$00
	.byte	$10
	.byte	$08
	.byte	$76
	.byte	$00
	.byte	$0C
	.byte	$F9
	.byte	$0B
	.byte	$02
	.byte	$00
	.byte	$00
	.byte	$08
	.byte	$00
	.byte	$80
_animate_playerjumpright_data:
	.byte	$10
	.byte	$F8
	.byte	$55
	.byte	$40
	.byte	$08
	.byte	$F8
	.byte	$56
	.byte	$40
	.byte	$10
	.byte	$00
	.byte	$65
	.byte	$40
	.byte	$08
	.byte	$00
	.byte	$66
	.byte	$40
	.byte	$10
	.byte	$08
	.byte	$75
	.byte	$40
	.byte	$08
	.byte	$08
	.byte	$76
	.byte	$40
	.byte	$0C
	.byte	$F9
	.byte	$0B
	.byte	$42
	.byte	$80
_animate_playerjumprightshoot_data:
	.byte	$10
	.byte	$F8
	.byte	$00
	.byte	$40
	.byte	$08
	.byte	$F8
	.byte	$56
	.byte	$40
	.byte	$10
	.byte	$00
	.byte	$09
	.byte	$40
	.byte	$08
	.byte	$00
	.byte	$66
	.byte	$40
	.byte	$10
	.byte	$08
	.byte	$75
	.byte	$40
	.byte	$08
	.byte	$08
	.byte	$76
	.byte	$40
	.byte	$0C
	.byte	$F9
	.byte	$0B
	.byte	$42
	.byte	$18
	.byte	$00
	.byte	$08
	.byte	$40
	.byte	$80
_animate_playerfallwiggle1left_data:
	.byte	$08
	.byte	$F8
	.byte	$55
	.byte	$00
	.byte	$10
	.byte	$F8
	.byte	$58
	.byte	$00
	.byte	$08
	.byte	$00
	.byte	$65
	.byte	$00
	.byte	$10
	.byte	$00
	.byte	$68
	.byte	$00
	.byte	$08
	.byte	$08
	.byte	$75
	.byte	$00
	.byte	$10
	.byte	$08
	.byte	$78
	.byte	$00
	.byte	$0C
	.byte	$F9
	.byte	$0B
	.byte	$02
	.byte	$80
_animate_payerfallwiggle2left_data:
	.byte	$08
	.byte	$F8
	.byte	$57
	.byte	$00
	.byte	$10
	.byte	$F8
	.byte	$56
	.byte	$00
	.byte	$08
	.byte	$00
	.byte	$67
	.byte	$00
	.byte	$10
	.byte	$00
	.byte	$66
	.byte	$00
	.byte	$08
	.byte	$08
	.byte	$77
	.byte	$00
	.byte	$10
	.byte	$08
	.byte	$76
	.byte	$00
	.byte	$0C
	.byte	$F9
	.byte	$0B
	.byte	$02
	.byte	$80
_animate_playerfallwiggle1leftshoot_data:
	.byte	$08
	.byte	$F8
	.byte	$00
	.byte	$00
	.byte	$10
	.byte	$F8
	.byte	$58
	.byte	$00
	.byte	$08
	.byte	$00
	.byte	$09
	.byte	$00
	.byte	$10
	.byte	$00
	.byte	$68
	.byte	$00
	.byte	$08
	.byte	$08
	.byte	$75
	.byte	$00
	.byte	$10
	.byte	$08
	.byte	$78
	.byte	$00
	.byte	$0C
	.byte	$F9
	.byte	$0B
	.byte	$02
	.byte	$00
	.byte	$00
	.byte	$08
	.byte	$00
	.byte	$80
_animate_playerfallwiggle2leftshoot_data:
	.byte	$08
	.byte	$F8
	.byte	$00
	.byte	$00
	.byte	$10
	.byte	$F8
	.byte	$56
	.byte	$00
	.byte	$08
	.byte	$00
	.byte	$09
	.byte	$00
	.byte	$10
	.byte	$00
	.byte	$66
	.byte	$00
	.byte	$08
	.byte	$08
	.byte	$77
	.byte	$00
	.byte	$10
	.byte	$08
	.byte	$76
	.byte	$00
	.byte	$0C
	.byte	$F9
	.byte	$0B
	.byte	$02
	.byte	$00
	.byte	$00
	.byte	$08
	.byte	$00
	.byte	$80
_animate_playerfallwiggle1right_data:
	.byte	$10
	.byte	$F8
	.byte	$55
	.byte	$40
	.byte	$08
	.byte	$F8
	.byte	$58
	.byte	$40
	.byte	$10
	.byte	$00
	.byte	$65
	.byte	$40
	.byte	$08
	.byte	$00
	.byte	$68
	.byte	$40
	.byte	$10
	.byte	$08
	.byte	$75
	.byte	$40
	.byte	$08
	.byte	$08
	.byte	$78
	.byte	$40
	.byte	$0C
	.byte	$F9
	.byte	$0B
	.byte	$42
	.byte	$80
_animate_playerfallwiggle2right_data:
	.byte	$10
	.byte	$F8
	.byte	$57
	.byte	$40
	.byte	$08
	.byte	$F8
	.byte	$56
	.byte	$40
	.byte	$10
	.byte	$00
	.byte	$67
	.byte	$40
	.byte	$08
	.byte	$00
	.byte	$66
	.byte	$40
	.byte	$10
	.byte	$08
	.byte	$77
	.byte	$40
	.byte	$08
	.byte	$08
	.byte	$76
	.byte	$40
	.byte	$0C
	.byte	$F9
	.byte	$0B
	.byte	$42
	.byte	$80
_animate_playerfallwiggle1rightshoot_data:
	.byte	$10
	.byte	$F8
	.byte	$00
	.byte	$40
	.byte	$08
	.byte	$F8
	.byte	$58
	.byte	$40
	.byte	$10
	.byte	$00
	.byte	$09
	.byte	$40
	.byte	$08
	.byte	$00
	.byte	$68
	.byte	$40
	.byte	$10
	.byte	$08
	.byte	$75
	.byte	$40
	.byte	$08
	.byte	$08
	.byte	$78
	.byte	$40
	.byte	$0C
	.byte	$F9
	.byte	$0B
	.byte	$42
	.byte	$18
	.byte	$00
	.byte	$08
	.byte	$40
	.byte	$80
_animate_playerfallwiggle2rightshoot_data:
	.byte	$08
	.byte	$F8
	.byte	$00
	.byte	$00
	.byte	$10
	.byte	$F8
	.byte	$56
	.byte	$00
	.byte	$08
	.byte	$00
	.byte	$09
	.byte	$00
	.byte	$10
	.byte	$00
	.byte	$66
	.byte	$00
	.byte	$08
	.byte	$08
	.byte	$77
	.byte	$00
	.byte	$10
	.byte	$08
	.byte	$76
	.byte	$00
	.byte	$0C
	.byte	$F9
	.byte	$0B
	.byte	$02
	.byte	$00
	.byte	$00
	.byte	$08
	.byte	$00
	.byte	$80
_animate_hootyowl1left_data:
	.byte	$00
	.byte	$00
	.byte	$E7
	.byte	$02
	.byte	$00
	.byte	$08
	.byte	$F7
	.byte	$02
	.byte	$08
	.byte	$00
	.byte	$E8
	.byte	$02
	.byte	$10
	.byte	$00
	.byte	$E9
	.byte	$02
	.byte	$08
	.byte	$08
	.byte	$F8
	.byte	$02
	.byte	$10
	.byte	$08
	.byte	$F9
	.byte	$02
	.byte	$80
_animate_hootyowl2left_data:
	.byte	$00
	.byte	$00
	.byte	$C7
	.byte	$02
	.byte	$00
	.byte	$08
	.byte	$F7
	.byte	$02
	.byte	$08
	.byte	$00
	.byte	$E8
	.byte	$02
	.byte	$10
	.byte	$00
	.byte	$C9
	.byte	$02
	.byte	$08
	.byte	$08
	.byte	$F8
	.byte	$02
	.byte	$10
	.byte	$08
	.byte	$F9
	.byte	$02
	.byte	$80
_animate_hootyowl3left_data:
	.byte	$00
	.byte	$00
	.byte	$A7
	.byte	$02
	.byte	$00
	.byte	$08
	.byte	$B7
	.byte	$02
	.byte	$08
	.byte	$00
	.byte	$E8
	.byte	$02
	.byte	$10
	.byte	$00
	.byte	$A9
	.byte	$02
	.byte	$08
	.byte	$08
	.byte	$F8
	.byte	$02
	.byte	$10
	.byte	$08
	.byte	$B9
	.byte	$02
	.byte	$80
_animate_hootyowl4left_data:
	.byte	$00
	.byte	$00
	.byte	$87
	.byte	$02
	.byte	$08
	.byte	$00
	.byte	$88
	.byte	$02
	.byte	$10
	.byte	$00
	.byte	$89
	.byte	$02
	.byte	$08
	.byte	$08
	.byte	$98
	.byte	$02
	.byte	$00
	.byte	$08
	.byte	$97
	.byte	$02
	.byte	$10
	.byte	$08
	.byte	$99
	.byte	$02
	.byte	$80
_animate_hootyowl5left_data:
	.byte	$00
	.byte	$08
	.byte	$87
	.byte	$82
	.byte	$08
	.byte	$08
	.byte	$88
	.byte	$82
	.byte	$10
	.byte	$08
	.byte	$89
	.byte	$82
	.byte	$08
	.byte	$00
	.byte	$98
	.byte	$82
	.byte	$00
	.byte	$00
	.byte	$97
	.byte	$82
	.byte	$10
	.byte	$00
	.byte	$99
	.byte	$82
	.byte	$80
_animate_hootyowl1right_data:
	.byte	$10
	.byte	$00
	.byte	$E7
	.byte	$42
	.byte	$10
	.byte	$08
	.byte	$F7
	.byte	$42
	.byte	$08
	.byte	$00
	.byte	$E8
	.byte	$42
	.byte	$00
	.byte	$00
	.byte	$E9
	.byte	$42
	.byte	$08
	.byte	$08
	.byte	$F8
	.byte	$42
	.byte	$00
	.byte	$08
	.byte	$F9
	.byte	$42
	.byte	$80
_animate_hootyowl2right_data:
	.byte	$10
	.byte	$00
	.byte	$C7
	.byte	$42
	.byte	$10
	.byte	$08
	.byte	$F7
	.byte	$42
	.byte	$08
	.byte	$00
	.byte	$E8
	.byte	$42
	.byte	$00
	.byte	$00
	.byte	$C9
	.byte	$42
	.byte	$08
	.byte	$08
	.byte	$F8
	.byte	$42
	.byte	$00
	.byte	$08
	.byte	$F9
	.byte	$42
	.byte	$80
_animate_hootyowl3right_data:
	.byte	$10
	.byte	$00
	.byte	$A7
	.byte	$42
	.byte	$10
	.byte	$08
	.byte	$B7
	.byte	$42
	.byte	$08
	.byte	$00
	.byte	$E8
	.byte	$42
	.byte	$00
	.byte	$00
	.byte	$A9
	.byte	$42
	.byte	$08
	.byte	$08
	.byte	$F8
	.byte	$42
	.byte	$00
	.byte	$08
	.byte	$B9
	.byte	$42
	.byte	$80
_animate_hootyowl4right_data:
	.byte	$10
	.byte	$00
	.byte	$87
	.byte	$42
	.byte	$08
	.byte	$00
	.byte	$88
	.byte	$42
	.byte	$00
	.byte	$00
	.byte	$89
	.byte	$42
	.byte	$08
	.byte	$08
	.byte	$98
	.byte	$42
	.byte	$10
	.byte	$08
	.byte	$97
	.byte	$42
	.byte	$00
	.byte	$08
	.byte	$99
	.byte	$42
	.byte	$80
_animate_hootyowl5right_data:
	.byte	$10
	.byte	$08
	.byte	$87
	.byte	$C2
	.byte	$08
	.byte	$08
	.byte	$88
	.byte	$C2
	.byte	$00
	.byte	$08
	.byte	$89
	.byte	$C2
	.byte	$08
	.byte	$00
	.byte	$98
	.byte	$C2
	.byte	$10
	.byte	$00
	.byte	$97
	.byte	$C2
	.byte	$00
	.byte	$00
	.byte	$99
	.byte	$C2
	.byte	$80
_animate_snail1left_data:
	.byte	$00
	.byte	$00
	.byte	$ED
	.byte	$01
	.byte	$00
	.byte	$08
	.byte	$FD
	.byte	$01
	.byte	$08
	.byte	$00
	.byte	$EE
	.byte	$01
	.byte	$08
	.byte	$08
	.byte	$FE
	.byte	$01
	.byte	$10
	.byte	$00
	.byte	$EF
	.byte	$01
	.byte	$10
	.byte	$08
	.byte	$FF
	.byte	$01
	.byte	$80
_animate_snail2left_data:
	.byte	$00
	.byte	$00
	.byte	$CD
	.byte	$01
	.byte	$00
	.byte	$08
	.byte	$DD
	.byte	$01
	.byte	$08
	.byte	$00
	.byte	$EE
	.byte	$01
	.byte	$08
	.byte	$08
	.byte	$FE
	.byte	$01
	.byte	$10
	.byte	$00
	.byte	$EF
	.byte	$01
	.byte	$10
	.byte	$08
	.byte	$DF
	.byte	$01
	.byte	$80
_animate_snail3left_data:
	.byte	$00
	.byte	$00
	.byte	$AD
	.byte	$01
	.byte	$00
	.byte	$08
	.byte	$BD
	.byte	$01
	.byte	$08
	.byte	$00
	.byte	$EE
	.byte	$01
	.byte	$08
	.byte	$08
	.byte	$FE
	.byte	$01
	.byte	$10
	.byte	$00
	.byte	$EF
	.byte	$01
	.byte	$10
	.byte	$08
	.byte	$BF
	.byte	$01
	.byte	$80
_animate_snail1right_data:
	.byte	$10
	.byte	$00
	.byte	$ED
	.byte	$41
	.byte	$10
	.byte	$08
	.byte	$FD
	.byte	$41
	.byte	$08
	.byte	$00
	.byte	$EE
	.byte	$41
	.byte	$08
	.byte	$08
	.byte	$FE
	.byte	$41
	.byte	$00
	.byte	$00
	.byte	$EF
	.byte	$41
	.byte	$00
	.byte	$08
	.byte	$FF
	.byte	$41
	.byte	$80
_animate_snail2right_data:
	.byte	$10
	.byte	$00
	.byte	$CD
	.byte	$41
	.byte	$10
	.byte	$08
	.byte	$DD
	.byte	$41
	.byte	$08
	.byte	$00
	.byte	$EE
	.byte	$41
	.byte	$08
	.byte	$08
	.byte	$FE
	.byte	$41
	.byte	$00
	.byte	$00
	.byte	$EF
	.byte	$41
	.byte	$00
	.byte	$08
	.byte	$DF
	.byte	$41
	.byte	$80
_animate_snail3right_data:
	.byte	$10
	.byte	$00
	.byte	$AD
	.byte	$41
	.byte	$10
	.byte	$08
	.byte	$BD
	.byte	$41
	.byte	$08
	.byte	$00
	.byte	$EE
	.byte	$41
	.byte	$08
	.byte	$08
	.byte	$FE
	.byte	$41
	.byte	$00
	.byte	$00
	.byte	$EF
	.byte	$41
	.byte	$00
	.byte	$08
	.byte	$BF
	.byte	$41
	.byte	$80
_animate_snake1left_data:
	.byte	$20
	.byte	$08
	.byte	$FA
	.byte	$C1
	.byte	$80
_animate_snake2left_data:
	.byte	$20
	.byte	$00
	.byte	$FA
	.byte	$C1
	.byte	$20
	.byte	$08
	.byte	$CC
	.byte	$01
	.byte	$80
_animate_snake3left_data:
	.byte	$20
	.byte	$00
	.byte	$EB
	.byte	$01
	.byte	$20
	.byte	$08
	.byte	$CC
	.byte	$01
	.byte	$18
	.byte	$00
	.byte	$CB
	.byte	$01
	.byte	$80
_animate_snake4left_data:
	.byte	$20
	.byte	$00
	.byte	$EB
	.byte	$01
	.byte	$20
	.byte	$08
	.byte	$CC
	.byte	$01
	.byte	$10
	.byte	$00
	.byte	$CB
	.byte	$01
	.byte	$18
	.byte	$00
	.byte	$DC
	.byte	$81
	.byte	$80
_animate_snake5left_data:
	.byte	$20
	.byte	$00
	.byte	$EB
	.byte	$01
	.byte	$20
	.byte	$08
	.byte	$CC
	.byte	$01
	.byte	$10
	.byte	$00
	.byte	$EA
	.byte	$01
	.byte	$18
	.byte	$00
	.byte	$DC
	.byte	$81
	.byte	$10
	.byte	$08
	.byte	$FA
	.byte	$01
	.byte	$80
_animate_snake6left_data:
	.byte	$20
	.byte	$00
	.byte	$EB
	.byte	$01
	.byte	$20
	.byte	$08
	.byte	$CC
	.byte	$01
	.byte	$10
	.byte	$00
	.byte	$EA
	.byte	$01
	.byte	$18
	.byte	$00
	.byte	$DC
	.byte	$81
	.byte	$10
	.byte	$08
	.byte	$CC
	.byte	$41
	.byte	$80
_animate_snake7left_data:
	.byte	$20
	.byte	$00
	.byte	$EB
	.byte	$01
	.byte	$20
	.byte	$08
	.byte	$EC
	.byte	$C1
	.byte	$10
	.byte	$00
	.byte	$EA
	.byte	$01
	.byte	$18
	.byte	$00
	.byte	$DC
	.byte	$81
	.byte	$10
	.byte	$08
	.byte	$CC
	.byte	$41
	.byte	$80
_animate_snake8left_data:
	.byte	$20
	.byte	$00
	.byte	$DB
	.byte	$41
	.byte	$10
	.byte	$00
	.byte	$EA
	.byte	$01
	.byte	$18
	.byte	$00
	.byte	$DC
	.byte	$81
	.byte	$10
	.byte	$08
	.byte	$CC
	.byte	$41
	.byte	$00
	.byte	$08
	.byte	$FA
	.byte	$C1
	.byte	$80
_animate_snake9left_data:
	.byte	$10
	.byte	$00
	.byte	$EA
	.byte	$01
	.byte	$18
	.byte	$00
	.byte	$DB
	.byte	$41
	.byte	$10
	.byte	$08
	.byte	$CC
	.byte	$41
	.byte	$00
	.byte	$08
	.byte	$CC
	.byte	$81
	.byte	$00
	.byte	$00
	.byte	$FA
	.byte	$C1
	.byte	$80
_animate_snake10left_data:
	.byte	$10
	.byte	$00
	.byte	$EC
	.byte	$01
	.byte	$10
	.byte	$08
	.byte	$CC
	.byte	$41
	.byte	$00
	.byte	$08
	.byte	$CC
	.byte	$81
	.byte	$00
	.byte	$00
	.byte	$EB
	.byte	$01
	.byte	$F8
	.byte	$00
	.byte	$CB
	.byte	$01
	.byte	$80
_animate_snake11left_data:
	.byte	$10
	.byte	$00
	.byte	$EC
	.byte	$41
	.byte	$10
	.byte	$08
	.byte	$CC
	.byte	$41
	.byte	$00
	.byte	$08
	.byte	$CC
	.byte	$81
	.byte	$00
	.byte	$00
	.byte	$EB
	.byte	$01
	.byte	$F8
	.byte	$00
	.byte	$FB
	.byte	$01
	.byte	$80
_animate_snake12left_data:
	.byte	$10
	.byte	$00
	.byte	$EC
	.byte	$01
	.byte	$10
	.byte	$08
	.byte	$CC
	.byte	$41
	.byte	$00
	.byte	$08
	.byte	$CC
	.byte	$81
	.byte	$00
	.byte	$00
	.byte	$EB
	.byte	$01
	.byte	$F8
	.byte	$00
	.byte	$FC
	.byte	$01
	.byte	$80
_animate_snake13left_data:
	.byte	$10
	.byte	$00
	.byte	$EC
	.byte	$41
	.byte	$10
	.byte	$08
	.byte	$CC
	.byte	$41
	.byte	$00
	.byte	$08
	.byte	$CC
	.byte	$81
	.byte	$00
	.byte	$00
	.byte	$EB
	.byte	$01
	.byte	$F8
	.byte	$00
	.byte	$FB
	.byte	$01
	.byte	$80
_animate_snake14left_data:
	.byte	$10
	.byte	$08
	.byte	$EC
	.byte	$01
	.byte	$00
	.byte	$08
	.byte	$CC
	.byte	$81
	.byte	$00
	.byte	$00
	.byte	$EB
	.byte	$01
	.byte	$F0
	.byte	$00
	.byte	$CB
	.byte	$01
	.byte	$F8
	.byte	$00
	.byte	$DC
	.byte	$81
	.byte	$80
_animate_snake15_data:
	.byte	$00
	.byte	$08
	.byte	$CC
	.byte	$81
	.byte	$00
	.byte	$00
	.byte	$EB
	.byte	$01
	.byte	$F0
	.byte	$00
	.byte	$EA
	.byte	$01
	.byte	$F8
	.byte	$00
	.byte	$DC
	.byte	$81
	.byte	$F0
	.byte	$08
	.byte	$FA
	.byte	$01
	.byte	$80
_animate_snake16_data:
	.byte	$00
	.byte	$08
	.byte	$CC
	.byte	$81
	.byte	$00
	.byte	$00
	.byte	$EB
	.byte	$01
	.byte	$F0
	.byte	$00
	.byte	$EA
	.byte	$01
	.byte	$F8
	.byte	$00
	.byte	$DC
	.byte	$81
	.byte	$F0
	.byte	$08
	.byte	$CC
	.byte	$41
	.byte	$80
_animate_snake17_data:
	.byte	$00
	.byte	$08
	.byte	$CC
	.byte	$81
	.byte	$00
	.byte	$00
	.byte	$EB
	.byte	$01
	.byte	$F0
	.byte	$00
	.byte	$EA
	.byte	$01
	.byte	$F8
	.byte	$00
	.byte	$DC
	.byte	$81
	.byte	$F0
	.byte	$08
	.byte	$CC
	.byte	$41
	.byte	$80
_animate_snake18_data:
	.byte	$00
	.byte	$08
	.byte	$EC
	.byte	$C1
	.byte	$00
	.byte	$00
	.byte	$EB
	.byte	$01
	.byte	$F0
	.byte	$00
	.byte	$EA
	.byte	$01
	.byte	$F8
	.byte	$00
	.byte	$DC
	.byte	$81
	.byte	$F0
	.byte	$08
	.byte	$CC
	.byte	$41
	.byte	$80
_animate_snake19_data:
	.byte	$00
	.byte	$00
	.byte	$DB
	.byte	$41
	.byte	$F0
	.byte	$00
	.byte	$EA
	.byte	$01
	.byte	$F8
	.byte	$00
	.byte	$DC
	.byte	$81
	.byte	$F0
	.byte	$08
	.byte	$CC
	.byte	$41
	.byte	$80
_animate_snake20_data:
	.byte	$F8
	.byte	$00
	.byte	$DB
	.byte	$41
	.byte	$F0
	.byte	$00
	.byte	$EA
	.byte	$01
	.byte	$F0
	.byte	$08
	.byte	$CC
	.byte	$41
	.byte	$80
_animate_snake21_data:
	.byte	$F0
	.byte	$00
	.byte	$EC
	.byte	$01
	.byte	$F0
	.byte	$08
	.byte	$CC
	.byte	$41
	.byte	$80
_animate_snake22_data:
	.byte	$F0
	.byte	$08
	.byte	$EC
	.byte	$01
	.byte	$80
_animate_mole1_data:
	.byte	$08
	.byte	$08
	.byte	$AF
	.byte	$01
	.byte	$00
	.byte	$08
	.byte	$AE
	.byte	$01
	.byte	$00
	.byte	$08
	.byte	$6E
	.byte	$03
	.byte	$08
	.byte	$08
	.byte	$6F
	.byte	$03
	.byte	$80
_animate_mole2_data:
	.byte	$08
	.byte	$08
	.byte	$AF
	.byte	$01
	.byte	$00
	.byte	$08
	.byte	$AE
	.byte	$01
	.byte	$00
	.byte	$08
	.byte	$6C
	.byte	$03
	.byte	$08
	.byte	$08
	.byte	$6D
	.byte	$03
	.byte	$08
	.byte	$00
	.byte	$5D
	.byte	$03
	.byte	$00
	.byte	$00
	.byte	$5C
	.byte	$03
	.byte	$80
_animate_mole3_data:
	.byte	$00
	.byte	$08
	.byte	$AE
	.byte	$01
	.byte	$08
	.byte	$08
	.byte	$AF
	.byte	$01
	.byte	$00
	.byte	$00
	.byte	$5A
	.byte	$03
	.byte	$00
	.byte	$08
	.byte	$6A
	.byte	$03
	.byte	$08
	.byte	$08
	.byte	$6B
	.byte	$03
	.byte	$08
	.byte	$00
	.byte	$5B
	.byte	$03
	.byte	$80
_animate_mole4_data:
	.byte	$08
	.byte	$08
	.byte	$AF
	.byte	$01
	.byte	$00
	.byte	$08
	.byte	$AE
	.byte	$01
	.byte	$00
	.byte	$08
	.byte	$6C
	.byte	$03
	.byte	$08
	.byte	$08
	.byte	$6D
	.byte	$03
	.byte	$08
	.byte	$00
	.byte	$5D
	.byte	$03
	.byte	$00
	.byte	$00
	.byte	$5C
	.byte	$03
	.byte	$80
_animate_mole5_data:
	.byte	$08
	.byte	$08
	.byte	$AF
	.byte	$01
	.byte	$00
	.byte	$08
	.byte	$AE
	.byte	$01
	.byte	$00
	.byte	$08
	.byte	$6E
	.byte	$03
	.byte	$08
	.byte	$08
	.byte	$6F
	.byte	$03
	.byte	$08
	.byte	$00
	.byte	$5F
	.byte	$03
	.byte	$00
	.byte	$00
	.byte	$5E
	.byte	$03
	.byte	$80
_animate_mole6_data:
	.byte	$08
	.byte	$08
	.byte	$AF
	.byte	$01
	.byte	$00
	.byte	$08
	.byte	$AE
	.byte	$01
	.byte	$00
	.byte	$08
	.byte	$8C
	.byte	$03
	.byte	$08
	.byte	$08
	.byte	$8D
	.byte	$03
	.byte	$08
	.byte	$00
	.byte	$7D
	.byte	$03
	.byte	$80
_animate_mole7_data:
	.byte	$08
	.byte	$08
	.byte	$AF
	.byte	$01
	.byte	$00
	.byte	$08
	.byte	$AE
	.byte	$01
	.byte	$00
	.byte	$08
	.byte	$8E
	.byte	$03
	.byte	$08
	.byte	$08
	.byte	$8F
	.byte	$03
	.byte	$08
	.byte	$00
	.byte	$7F
	.byte	$03
	.byte	$80
_animate_mole8_data:
	.byte	$08
	.byte	$08
	.byte	$AF
	.byte	$01
	.byte	$00
	.byte	$08
	.byte	$AE
	.byte	$01
	.byte	$00
	.byte	$08
	.byte	$8A
	.byte	$03
	.byte	$08
	.byte	$08
	.byte	$8B
	.byte	$03
	.byte	$08
	.byte	$00
	.byte	$7B
	.byte	$03
	.byte	$00
	.byte	$00
	.byte	$7A
	.byte	$03
	.byte	$80
_animate_spider_data:
	.byte	$00
	.byte	$00
	.byte	$9B
	.byte	$01
	.byte	$08
	.byte	$00
	.byte	$9C
	.byte	$01
	.byte	$00
	.byte	$08
	.byte	$AB
	.byte	$01
	.byte	$00
	.byte	$08
	.byte	$AB
	.byte	$01
	.byte	$08
	.byte	$08
	.byte	$AC
	.byte	$01
	.byte	$80
_animate_mouse_data:
	.byte	$00
	.byte	$08
	.byte	$A4
	.byte	$03
	.byte	$08
	.byte	$08
	.byte	$A5
	.byte	$03
	.byte	$08
	.byte	$00
	.byte	$95
	.byte	$03
	.byte	$80
_animate_list:
	.addr	_animate_implosion1_data
	.addr	_animate_implosion2_data
	.addr	_animate_implosion3_data
	.addr	_animate_orb0_data
	.addr	_animate_orb2_data
	.addr	_animate_orb3_data
	.addr	_animate_orb4_data
	.addr	_animate_orb5_data
	.addr	_animate_orb6_data
	.addr	_animate_orb7_data
	.addr	_animate_meter28_data
	.addr	_animate_meter27_data
	.addr	_animate_meter26_data
	.addr	_animate_meter25_data
	.addr	_animate_meter24_data
	.addr	_animate_meter23_data
	.addr	_animate_meter22_data
	.addr	_animate_meter21_data
	.addr	_animate_meter20_data
	.addr	_animate_meter19_data
	.addr	_animate_meter18_data
	.addr	_animate_meter17_data
	.addr	_animate_meter16_data
	.addr	_animate_meter15_data
	.addr	_animate_meter14_data
	.addr	_animate_meter13_data
	.addr	_animate_meter12_data
	.addr	_animate_meter11_data
	.addr	_animate_meter10_data
	.addr	_animate_meter9_data
	.addr	_animate_meter8_data
	.addr	_animate_meter7_data
	.addr	_animate_meter6_data
	.addr	_animate_meter5_data
	.addr	_animate_meter4_data
	.addr	_animate_meter3_data
	.addr	_animate_meter2_data
	.addr	_animate_meter1_data
	.addr	_animate_meter0_data
	.addr	_animate_playerclimb1_data
	.addr	_animate_playerclimb2_data
	.addr	_animate_playerclimb3_data
	.addr	_animate_recoilleft_data
	.addr	_animate_recoilright_data
	.addr	_animate_playerstandright_data
	.addr	_animate_playerstandleft_data
	.addr	_animate_playerstandshootleft_data
	.addr	_animate_playerstandshootright_data
	.addr	_animate_playerrun1left_data
	.addr	_animate_playerrun2left_data
	.addr	_animate_playerrun3left_data
	.addr	_animate_playerrun4left_data
	.addr	_animate_playerrun5left_data
	.addr	_animate_playerrun1right_data
	.addr	_animate_playerrun2right_data
	.addr	_animate_playerrun3right_data
	.addr	_animate_playerrun4right_data
	.addr	_animate_playerrun5right_data
	.addr	_animate_playerrunshoot1left_data
	.addr	_animate_playerrunshoot2left_data
	.addr	_animate_playerrunshoot3left_data
	.addr	_animate_playerrunshoot4left_data
	.addr	_animate_playerrunshoot5left_data
	.addr	_animate_playerrunshoot1right_data
	.addr	_animate_playerrunshoot2right_data
	.addr	_animate_playerrunshoot3right_data
	.addr	_animate_playerrunshoot4right_data
	.addr	_animate_playerrunshoot5right_data
	.addr	_animate_playerjumpleft_data
	.addr	_animate_playerjumpleftshoot_data
	.addr	_animate_playerjumpright_data
	.addr	_animate_playerjumprightshoot_data
	.addr	_animate_playerfallwiggle1left_data
	.addr	_animate_payerfallwiggle2left_data
	.addr	_animate_playerfallwiggle1leftshoot_data
	.addr	_animate_playerfallwiggle2leftshoot_data
	.addr	_animate_playerfallwiggle1right_data
	.addr	_animate_playerfallwiggle2right_data
	.addr	_animate_playerfallwiggle1rightshoot_data
	.addr	_animate_playerfallwiggle2rightshoot_data
	.addr	_animate_hootyowl1left_data
	.addr	_animate_hootyowl2left_data
	.addr	_animate_hootyowl3left_data
	.addr	_animate_hootyowl4left_data
	.addr	_animate_hootyowl5left_data
	.addr	_animate_hootyowl1right_data
	.addr	_animate_hootyowl2right_data
	.addr	_animate_hootyowl3right_data
	.addr	_animate_hootyowl4right_data
	.addr	_animate_hootyowl5right_data
	.addr	_animate_snail1left_data
	.addr	_animate_snail2left_data
	.addr	_animate_snail3left_data
	.addr	_animate_snail1right_data
	.addr	_animate_snail2right_data
	.addr	_animate_snail3right_data
	.addr	_animate_snake1left_data
	.addr	_animate_snake2left_data
	.addr	_animate_snake3left_data
	.addr	_animate_snake4left_data
	.addr	_animate_snake5left_data
	.addr	_animate_snake6left_data
	.addr	_animate_snake7left_data
	.addr	_animate_snake8left_data
	.addr	_animate_snake9left_data
	.addr	_animate_snake10left_data
	.addr	_animate_snake11left_data
	.addr	_animate_snake12left_data
	.addr	_animate_snake13left_data
	.addr	_animate_snake14left_data
	.addr	_animate_snake15_data
	.addr	_animate_snake16_data
	.addr	_animate_snake17_data
	.addr	_animate_snake18_data
	.addr	_animate_snake19_data
	.addr	_animate_snake20_data
	.addr	_animate_snake21_data
	.addr	_animate_snake22_data
	.addr	_animate_mole1_data
	.addr	_animate_mole2_data
	.addr	_animate_mole3_data
	.addr	_animate_mole4_data
	.addr	_animate_mole5_data
	.addr	_animate_mole6_data
	.addr	_animate_mole7_data
	.addr	_animate_mole8_data
	.addr	_animate_spider_data
	.addr	_animate_mouse_data
_shuffle_array:
	.byte	$00
	.byte	$01
	.byte	$02
	.byte	$03
	.byte	$04
	.byte	$05
	.byte	$06
	.byte	$07
	.byte	$08
	.byte	$09
	.byte	$0A
	.byte	$0B
	.byte	$0C
	.byte	$0D
	.byte	$0E
	.byte	$0F
	.byte	$0F
	.byte	$0E
	.byte	$0D
	.byte	$0C
	.byte	$0B
	.byte	$0A
	.byte	$09
	.byte	$08
	.byte	$07
	.byte	$06
	.byte	$05
	.byte	$04
	.byte	$03
	.byte	$02
	.byte	$01
	.byte	$00
	.byte	$00
	.byte	$02
	.byte	$04
	.byte	$06
	.byte	$08
	.byte	$0A
	.byte	$0C
	.byte	$0E
	.byte	$01
	.byte	$03
	.byte	$05
	.byte	$07
	.byte	$09
	.byte	$0B
	.byte	$0D
	.byte	$0F
	.byte	$0F
	.byte	$0D
	.byte	$0B
	.byte	$09
	.byte	$07
	.byte	$05
	.byte	$03
	.byte	$01
	.byte	$0E
	.byte	$0C
	.byte	$0A
	.byte	$08
	.byte	$06
	.byte	$04
	.byte	$02
	.byte	$00
_palette_sp:
	.byte	$21
	.byte	$17
	.byte	$24
	.byte	$36
	.byte	$21
	.byte	$06
	.byte	$28
	.byte	$37
	.byte	$21
	.byte	$0F
	.byte	$11
	.byte	$30
	.byte	$21
	.byte	$17
	.byte	$3D
	.byte	$38
_palette_bg:
	.byte	$21
	.byte	$0F
	.byte	$00
	.byte	$10
	.byte	$21
	.byte	$30
	.byte	$29
	.byte	$06
	.byte	$21
	.byte	$0F
	.byte	$16
	.byte	$06
	.byte	$21
	.byte	$0F
	.byte	$19
	.byte	$29
_metatile:
	.byte	$7B
	.byte	$7C
	.byte	$8B
	.byte	$8C
	.byte	$00
	.byte	$7D
	.byte	$7E
	.byte	$8D
	.byte	$8E
	.byte	$00
	.byte	$9B
	.byte	$9C
	.byte	$AB
	.byte	$AC
	.byte	$00
	.byte	$9D
	.byte	$9E
	.byte	$AD
	.byte	$AE
	.byte	$00
	.byte	$BE
	.byte	$AF
	.byte	$7B
	.byte	$7C
	.byte	$00
	.byte	$BE
	.byte	$BE
	.byte	$8B
	.byte	$8C
	.byte	$00
	.byte	$BE
	.byte	$BF
	.byte	$8D
	.byte	$8E
	.byte	$00
	.byte	$BE
	.byte	$BE
	.byte	$AD
	.byte	$AE
	.byte	$00
	.byte	$BE
	.byte	$B9
	.byte	$9B
	.byte	$9C
	.byte	$00
	.byte	$BE
	.byte	$BE
	.byte	$9D
	.byte	$9E
	.byte	$00
	.byte	$BE
	.byte	$BB
	.byte	$AB
	.byte	$AC
	.byte	$00
	.byte	$BE
	.byte	$AF
	.byte	$AD
	.byte	$AE
	.byte	$00
	.byte	$BE
	.byte	$BD
	.byte	$7B
	.byte	$7C
	.byte	$00
	.byte	$BE
	.byte	$BD
	.byte	$7D
	.byte	$7E
	.byte	$00
	.byte	$BA
	.byte	$BF
	.byte	$9B
	.byte	$9C
	.byte	$00
	.byte	$BA
	.byte	$B8
	.byte	$9D
	.byte	$9E
	.byte	$00
	.byte	$7B
	.byte	$AE
	.byte	$7C
	.byte	$7B
	.byte	$00
	.byte	$8B
	.byte	$8C
	.byte	$9B
	.byte	$9C
	.byte	$00
	.byte	$8D
	.byte	$8E
	.byte	$9D
	.byte	$9E
	.byte	$00
	.byte	$7B
	.byte	$7C
	.byte	$8B
	.byte	$01
	.byte	$00
	.byte	$AD
	.byte	$8E
	.byte	$AE
	.byte	$01
	.byte	$00
	.byte	$AD
	.byte	$01
	.byte	$01
	.byte	$01
	.byte	$00
	.byte	$7D
	.byte	$7E
	.byte	$01
	.byte	$01
	.byte	$00
	.byte	$9D
	.byte	$9E
	.byte	$01
	.byte	$01
	.byte	$00
	.byte	$AB
	.byte	$AC
	.byte	$01
	.byte	$01
	.byte	$00
	.byte	$01
	.byte	$7B
	.byte	$01
	.byte	$01
	.byte	$00
	.byte	$7B
	.byte	$AD
	.byte	$01
	.byte	$AE
	.byte	$00
	.byte	$7B
	.byte	$7C
	.byte	$01
	.byte	$7B
	.byte	$00
	.byte	$7A
	.byte	$7C
	.byte	$8B
	.byte	$8C
	.byte	$00
	.byte	$00
	.byte	$00
	.byte	$00
	.byte	$7A
	.byte	$00
	.byte	$7B
	.byte	$6A
	.byte	$7C
	.byte	$7B
	.byte	$00
	.byte	$00
	.byte	$00
	.byte	$6A
	.byte	$00
	.byte	$00
	.byte	$75
	.byte	$76
	.byte	$85
	.byte	$86
	.byte	$02
	.byte	$65
	.byte	$66
	.byte	$85
	.byte	$86
	.byte	$02
	.byte	$75
	.byte	$76
	.byte	$95
	.byte	$96
	.byte	$02
	.byte	$74
	.byte	$76
	.byte	$84
	.byte	$86
	.byte	$02
	.byte	$75
	.byte	$77
	.byte	$85
	.byte	$87
	.byte	$02
	.byte	$64
	.byte	$66
	.byte	$84
	.byte	$86
	.byte	$02
	.byte	$65
	.byte	$67
	.byte	$85
	.byte	$87
	.byte	$02
	.byte	$74
	.byte	$76
	.byte	$94
	.byte	$96
	.byte	$02
	.byte	$75
	.byte	$77
	.byte	$95
	.byte	$97
	.byte	$02
	.byte	$BB
	.byte	$CD
	.byte	$CB
	.byte	$CB
	.byte	$02
	.byte	$CD
	.byte	$BC
	.byte	$DD
	.byte	$DC
	.byte	$02
	.byte	$CC
	.byte	$CD
	.byte	$DC
	.byte	$CB
	.byte	$02
	.byte	$CD
	.byte	$AF
	.byte	$DC
	.byte	$CB
	.byte	$02
	.byte	$CC
	.byte	$CF
	.byte	$CB
	.byte	$DF
	.byte	$02
	.byte	$CE
	.byte	$CD
	.byte	$DE
	.byte	$DC
	.byte	$02
	.byte	$CE
	.byte	$CD
	.byte	$DE
	.byte	$CB
	.byte	$02
	.byte	$65
	.byte	$66
	.byte	$95
	.byte	$96
	.byte	$02
	.byte	$64
	.byte	$66
	.byte	$94
	.byte	$96
	.byte	$02
	.byte	$65
	.byte	$67
	.byte	$95
	.byte	$97
	.byte	$02
	.byte	$EB
	.byte	$EB
	.byte	$FB
	.byte	$FC
	.byte	$03
	.byte	$EB
	.byte	$EA
	.byte	$FC
	.byte	$FB
	.byte	$03
	.byte	$FA
	.byte	$EB
	.byte	$FC
	.byte	$FC
	.byte	$03
	.byte	$EB
	.byte	$EC
	.byte	$FB
	.byte	$FC
	.byte	$03
	.byte	$98
	.byte	$99
	.byte	$A8
	.byte	$A9
	.byte	$03
	.byte	$9A
	.byte	$98
	.byte	$AA
	.byte	$A8
	.byte	$03
	.byte	$01
	.byte	$01
	.byte	$9A
	.byte	$98
	.byte	$03
	.byte	$7B
	.byte	$8B
	.byte	$AD
	.byte	$9B
	.byte	$00
	.byte	$8E
	.byte	$7B
	.byte	$9C
	.byte	$AE
	.byte	$00
	.byte	$8B
	.byte	$7C
	.byte	$9B
	.byte	$AD
	.byte	$00
	.byte	$0A
	.byte	$0B
	.byte	$0A
	.byte	$0B
	.byte	$02
	.byte	$01
	.byte	$01
	.byte	$01
	.byte	$01
	.byte	$03
	.byte	$CA
	.byte	$CA
	.byte	$DA
	.byte	$DA
	.byte	$00
	.byte	$38
	.byte	$36
	.byte	$36
	.byte	$36
	.byte	$02
	.byte	$37
	.byte	$36
	.byte	$36
	.byte	$36
	.byte	$02
	.byte	$37
	.byte	$39
	.byte	$36
	.byte	$37
	.byte	$02
	.byte	$32
	.byte	$30
	.byte	$32
	.byte	$30
	.byte	$02
	.byte	$31
	.byte	$30
	.byte	$31
	.byte	$30
	.byte	$02
	.byte	$31
	.byte	$31
	.byte	$31
	.byte	$31
	.byte	$02
	.byte	$32
	.byte	$30
	.byte	$34
	.byte	$31
	.byte	$02
	.byte	$30
	.byte	$33
	.byte	$30
	.byte	$35
	.byte	$02
	.byte	$01
	.byte	$01
	.byte	$1F
	.byte	$02
	.byte	$02
	.byte	$30
	.byte	$33
	.byte	$30
	.byte	$33
	.byte	$02
	.byte	$02
	.byte	$0D
	.byte	$0E
	.byte	$02
	.byte	$03
	.byte	$01
	.byte	$01
	.byte	$02
	.byte	$02
	.byte	$03
	.byte	$1F
	.byte	$02
	.byte	$02
	.byte	$2F
	.byte	$03
	.byte	$1B
	.byte	$0C
	.byte	$02
	.byte	$01
	.byte	$03
	.byte	$05
	.byte	$01
	.byte	$04
	.byte	$01
	.byte	$02
	.byte	$0F
	.byte	$3F
	.byte	$01
	.byte	$02
	.byte	$03
	.byte	$00
	.byte	$00
	.byte	$00
	.byte	$00
	.byte	$00
	.byte	$01
	.byte	$01
	.byte	$01
	.byte	$01
	.byte	$00
	.byte	$01
	.byte	$01
	.byte	$2A
	.byte	$01
	.byte	$03
	.byte	$1A
	.byte	$01
	.byte	$01
	.byte	$2A
	.byte	$03
	.byte	$01
	.byte	$01
	.byte	$01
	.byte	$1A
	.byte	$03
	.byte	$F2
	.byte	$F2
	.byte	$01
	.byte	$01
	.byte	$02
	.byte	$01
	.byte	$F3
	.byte	$01
	.byte	$01
	.byte	$02
	.byte	$D4
	.byte	$01
	.byte	$01
	.byte	$01
	.byte	$02
	.byte	$00
	.byte	$00
	.byte	$80
	.byte	$81
	.byte	$03
	.byte	$00
	.byte	$00
	.byte	$82
	.byte	$82
	.byte	$03
	.byte	$01
	.byte	$2A
	.byte	$02
	.byte	$02
	.byte	$03
	.byte	$1A
	.byte	$01
	.byte	$02
	.byte	$02
	.byte	$03
	.byte	$03
	.byte	$AA
	.byte	$03
	.byte	$E8
	.byte	$03
	.byte	$A8
	.byte	$A9
	.byte	$68
	.byte	$FC
	.byte	$03
	.byte	$8A
	.byte	$03
	.byte	$F8
	.byte	$03
	.byte	$03
	.byte	$03
	.byte	$03
	.byte	$E9
	.byte	$03
	.byte	$03
	.byte	$08
	.byte	$19
	.byte	$09
	.byte	$18
	.byte	$02
	.byte	$08
	.byte	$19
	.byte	$08
	.byte	$18
	.byte	$02
	.byte	$B1
	.byte	$B2
	.byte	$08
	.byte	$18
	.byte	$02
	.byte	$D4
	.byte	$B0
	.byte	$F3
	.byte	$C0
	.byte	$02
	.byte	$08
	.byte	$19
	.byte	$C1
	.byte	$C2
	.byte	$02
	.byte	$B3
	.byte	$F3
	.byte	$C3
	.byte	$D4
	.byte	$02
	.byte	$00
	.byte	$00
	.byte	$00
	.byte	$F0
	.byte	$02
	.byte	$F1
	.byte	$00
	.byte	$00
	.byte	$00
	.byte	$02
	.byte	$14
	.byte	$04
	.byte	$15
	.byte	$04
	.byte	$02
	.byte	$15
	.byte	$04
	.byte	$15
	.byte	$05
	.byte	$02
	.byte	$E5
	.byte	$E6
	.byte	$14
	.byte	$04
	.byte	$02
	.byte	$D4
	.byte	$E4
	.byte	$F3
	.byte	$F4
	.byte	$02
	.byte	$14
	.byte	$04
	.byte	$F5
	.byte	$F6
	.byte	$02
	.byte	$E7
	.byte	$F3
	.byte	$F7
	.byte	$D4
	.byte	$02
	.byte	$00
	.byte	$E2
	.byte	$00
	.byte	$00
	.byte	$02
	.byte	$E3
	.byte	$00
	.byte	$00
	.byte	$00
	.byte	$02
	.byte	$06
	.byte	$17
	.byte	$06
	.byte	$17
	.byte	$02
	.byte	$07
	.byte	$16
	.byte	$07
	.byte	$17
	.byte	$02
	.byte	$06
	.byte	$17
	.byte	$07
	.byte	$17
	.byte	$02
	.byte	$E0
	.byte	$E1
	.byte	$06
	.byte	$16
	.byte	$02
	.byte	$D4
	.byte	$D0
	.byte	$F2
	.byte	$F2
	.byte	$02
	.byte	$D1
	.byte	$F3
	.byte	$F2
	.byte	$F2
	.byte	$02
	.byte	$00
	.byte	$00
	.byte	$00
	.byte	$D2
	.byte	$02
	.byte	$00
	.byte	$00
	.byte	$D3
	.byte	$00
	.byte	$02
	.byte	$03
	.byte	$03
	.byte	$AA
	.byte	$AA
	.byte	$03
	.byte	$04
	.byte	$E3
	.byte	$04
	.byte	$00
	.byte	$02
	.byte	$A9
	.byte	$A9
	.byte	$78
	.byte	$69
	.byte	$03
	.byte	$00
	.byte	$00
	.byte	$89
	.byte	$00
	.byte	$03
	.byte	$8A
	.byte	$00
	.byte	$8A
	.byte	$00
	.byte	$03
	.byte	$8A
	.byte	$00
	.byte	$79
	.byte	$00
	.byte	$03
	.byte	$03
	.byte	$03
	.byte	$03
	.byte	$F9
	.byte	$03
	.byte	$F9
	.byte	$E9
	.byte	$AA
	.byte	$AA
	.byte	$03
	.byte	$90
	.byte	$90
	.byte	$00
	.byte	$00
	.byte	$02
	.byte	$91
	.byte	$92
	.byte	$00
	.byte	$00
	.byte	$02
	.byte	$01
	.byte	$01
	.byte	$92
	.byte	$92
	.byte	$02
	.byte	$92
	.byte	$90
	.byte	$00
	.byte	$00
	.byte	$02
	.byte	$01
	.byte	$01
	.byte	$92
	.byte	$90
	.byte	$02
	.byte	$68
	.byte	$A8
	.byte	$01
	.byte	$69
	.byte	$03
	.byte	$68
	.byte	$69
	.byte	$EE
	.byte	$ED
	.byte	$03
	.byte	$68
	.byte	$68
	.byte	$EF
	.byte	$EE
	.byte	$03
	.byte	$69
	.byte	$68
	.byte	$EE
	.byte	$ED
	.byte	$03
	.byte	$68
	.byte	$EF
	.byte	$EF
	.byte	$FF
	.byte	$03
	.byte	$69
	.byte	$ED
	.byte	$EE
	.byte	$EE
	.byte	$03
	.byte	$A9
	.byte	$68
	.byte	$68
	.byte	$01
	.byte	$03
	.byte	$AA
	.byte	$A8
	.byte	$68
	.byte	$69
	.byte	$03
	.byte	$AA
	.byte	$A8
	.byte	$68
	.byte	$68
	.byte	$03
	.byte	$A9
	.byte	$8A
	.byte	$AA
	.byte	$8A
	.byte	$03
	.byte	$A8
	.byte	$8A
	.byte	$AA
	.byte	$8A
	.byte	$03
	.byte	$A8
	.byte	$A9
	.byte	$A9
	.byte	$AA
	.byte	$03
	.byte	$AA
	.byte	$A9
	.byte	$A8
	.byte	$A8
	.byte	$03
	.byte	$A9
	.byte	$AA
	.byte	$AA
	.byte	$A9
	.byte	$03
	.byte	$A8
	.byte	$A8
	.byte	$A9
	.byte	$A8
	.byte	$03
	.byte	$A9
	.byte	$A9
	.byte	$AA
	.byte	$A9
	.byte	$03
	.byte	$00
	.byte	$7A
	.byte	$88
	.byte	$AA
	.byte	$03
	.byte	$00
	.byte	$88
	.byte	$88
	.byte	$AA
	.byte	$03
	.byte	$6A
	.byte	$00
	.byte	$AA
	.byte	$6A
	.byte	$03
	.byte	$89
	.byte	$00
	.byte	$A8
	.byte	$89
	.byte	$03
	.byte	$A9
	.byte	$6A
	.byte	$AA
	.byte	$AA
	.byte	$03
	.byte	$01
	.byte	$FF
	.byte	$FF
	.byte	$00
	.byte	$03
	.byte	$FF
	.byte	$01
	.byte	$00
	.byte	$FE
	.byte	$03
	.byte	$EF
	.byte	$EF
	.byte	$FE
	.byte	$FD
	.byte	$03
	.byte	$ED
	.byte	$EE
	.byte	$FE
	.byte	$FF
	.byte	$03
	.byte	$FD
	.byte	$FE
	.byte	$00
	.byte	$00
	.byte	$03
	.byte	$A9
	.byte	$79
	.byte	$FF
	.byte	$00
	.byte	$03
	.byte	$05
	.byte	$03
	.byte	$05
	.byte	$03
	.byte	$03
	.byte	$3F
	.byte	$03
	.byte	$05
	.byte	$03
	.byte	$03
	.byte	$05
	.byte	$03
	.byte	$2F
	.byte	$03
	.byte	$03
	.byte	$01
	.byte	$1F
	.byte	$1F
	.byte	$02
	.byte	$03
	.byte	$0F
	.byte	$02
	.byte	$01
	.byte	$0F
	.byte	$03
	.byte	$02
	.byte	$2F
	.byte	$11
	.byte	$11
	.byte	$03
	.byte	$03
	.byte	$03
	.byte	$11
	.byte	$11
	.byte	$03
	.byte	$03
	.byte	$61
	.byte	$60
	.byte	$03
	.byte	$03
	.byte	$03
	.byte	$62
	.byte	$03
	.byte	$03
	.byte	$03
	.byte	$03
	.byte	$03
	.byte	$61
	.byte	$03
	.byte	$03
	.byte	$60
	.byte	$03
	.byte	$03
	.byte	$03
	.byte	$03
	.byte	$03
	.byte	$03
	.byte	$72
	.byte	$03
	.byte	$03
	.byte	$00
	.byte	$00
	.byte	$00
	.byte	$71
	.byte	$03
	.byte	$00
	.byte	$00
	.byte	$00
	.byte	$70
	.byte	$03
	.byte	$00
	.byte	$00
	.byte	$63
	.byte	$00
	.byte	$03
	.byte	$FF
	.byte	$FD
	.byte	$00
	.byte	$00
	.byte	$03
	.byte	$03
	.byte	$03
	.byte	$03
	.byte	$03
	.byte	$03
	.byte	$20
	.byte	$20
	.byte	$02
	.byte	$02
	.byte	$01
	.byte	$00
	.byte	$00
	.byte	$00
	.byte	$05
	.byte	$02
	.byte	$3F
	.byte	$03
	.byte	$02
	.byte	$3F
	.byte	$03
	.byte	$01
	.byte	$01
	.byte	$0D
	.byte	$01
	.byte	$03
	.byte	$03
	.byte	$0E
	.byte	$03
	.byte	$03
	.byte	$03
	.byte	$00
	.byte	$00
	.byte	$00
	.byte	$00
	.byte	$00
	.byte	$0E
	.byte	$02
	.byte	$03
	.byte	$0E
	.byte	$01
	.byte	$3F
	.byte	$03
	.byte	$02
	.byte	$3F
	.byte	$01
	.byte	$03
	.byte	$03
	.byte	$03
	.byte	$03
	.byte	$02
	.byte	$03
	.byte	$62
	.byte	$60
	.byte	$03
	.byte	$02
	.byte	$61
	.byte	$03
	.byte	$03
	.byte	$03
	.byte	$02
	.byte	$03
	.byte	$03
	.byte	$60
	.byte	$03
	.byte	$02
	.byte	$03
	.byte	$03
	.byte	$03
	.byte	$72
	.byte	$01
	.byte	$61
	.byte	$03
	.byte	$03
	.byte	$62
	.byte	$01
	.byte	$03
	.byte	$60
	.byte	$03
	.byte	$03
	.byte	$01
	.byte	$B5
	.byte	$B6
	.byte	$C5
	.byte	$C6
	.byte	$02
	.byte	$01
	.byte	$B4
	.byte	$01
	.byte	$C4
	.byte	$02
	.byte	$B7
	.byte	$01
	.byte	$C7
	.byte	$01
	.byte	$02
	.byte	$01
	.byte	$01
	.byte	$A5
	.byte	$A6
	.byte	$02
	.byte	$D5
	.byte	$D6
	.byte	$01
	.byte	$01
	.byte	$02
	.byte	$00
	.byte	$00
	.byte	$6B
	.byte	$6B
	.byte	$00
	.byte	$00
	.byte	$00
	.byte	$00
	.byte	$00
	.byte	$00
	.byte	$10
	.byte	$10
	.byte	$01
	.byte	$01
	.byte	$00
	.byte	$01
	.byte	$9F
	.byte	$01
	.byte	$01
	.byte	$00
	.byte	$C8
	.byte	$C9
	.byte	$D8
	.byte	$D9
	.byte	$02
	.byte	$01
	.byte	$01
	.byte	$D9
	.byte	$01
	.byte	$02
	.byte	$01
	.byte	$C8
	.byte	$01
	.byte	$01
	.byte	$02
	.byte	$01
	.byte	$C9
	.byte	$01
	.byte	$D9
	.byte	$02
	.byte	$D8
	.byte	$01
	.byte	$01
	.byte	$01
	.byte	$02
	.byte	$D8
	.byte	$01
	.byte	$01
	.byte	$C9
	.byte	$02
	.byte	$01
	.byte	$D8
	.byte	$C9
	.byte	$01
	.byte	$02
	.byte	$00
	.byte	$5E
	.byte	$6C
	.byte	$03
	.byte	$00
	.byte	$00
	.byte	$00
	.byte	$6B
	.byte	$6C
	.byte	$00
	.byte	$6B
	.byte	$5E
	.byte	$03
	.byte	$6D
	.byte	$00
	.byte	$6B
	.byte	$5E
	.byte	$6D
	.byte	$5D
	.byte	$00
	.byte	$6D
	.byte	$03
	.byte	$03
	.byte	$6D
	.byte	$00
	.byte	$6D
	.byte	$6D
	.byte	$03
	.byte	$03
	.byte	$00
	.byte	$6D
	.byte	$03
	.byte	$03
	.byte	$03
	.byte	$00
	.byte	$6D
	.byte	$20
	.byte	$6D
	.byte	$20
	.byte	$00
	.byte	$20
	.byte	$6E
	.byte	$6F
	.byte	$20
	.byte	$00
	.byte	$6D
	.byte	$14
	.byte	$03
	.byte	$6F
	.byte	$00
	.byte	$20
	.byte	$6E
	.byte	$20
	.byte	$20
	.byte	$00
	.byte	$6E
	.byte	$6E
	.byte	$20
	.byte	$6E
	.byte	$00
	.byte	$00
	.byte	$00
	.byte	$1E
	.byte	$1E
	.byte	$01
	.byte	$00
	.byte	$00
	.byte	$00
	.byte	$1C
	.byte	$01
	.byte	$00
	.byte	$00
	.byte	$1D
	.byte	$00
	.byte	$01
	.byte	$6D
	.byte	$6D
	.byte	$A3
	.byte	$A7
	.byte	$00
	.byte	$5D
	.byte	$5B
	.byte	$20
	.byte	$9F
	.byte	$00
	.byte	$5C
	.byte	$80
	.byte	$9F
	.byte	$01
	.byte	$00
	.byte	$00
	.byte	$00
	.byte	$5B
	.byte	$5C
	.byte	$00
	.byte	$5F
	.byte	$00
	.byte	$9F
	.byte	$5F
	.byte	$00
	.byte	$5B
	.byte	$5C
	.byte	$9F
	.byte	$01
	.byte	$00
	.byte	$6B
	.byte	$6C
	.byte	$01
	.byte	$A3
	.byte	$00
	.byte	$6D
	.byte	$03
	.byte	$A4
	.byte	$03
	.byte	$00
	.byte	$A3
	.byte	$A7
	.byte	$9F
	.byte	$9F
	.byte	$00
	.byte	$03
	.byte	$6D
	.byte	$A7
	.byte	$03
	.byte	$00
	.byte	$9F
	.byte	$9F
	.byte	$9F
	.byte	$9F
	.byte	$00
	.byte	$01
	.byte	$01
	.byte	$9F
	.byte	$9F
	.byte	$00
	.byte	$9F
	.byte	$01
	.byte	$9F
	.byte	$9F
	.byte	$00
	.byte	$6E
	.byte	$9F
	.byte	$6E
	.byte	$8F
	.byte	$00
	.byte	$8F
	.byte	$7F
	.byte	$6E
	.byte	$6E
	.byte	$00
	.byte	$9F
	.byte	$9F
	.byte	$8F
	.byte	$7F
	.byte	$00
	.byte	$7F
	.byte	$9F
	.byte	$6E
	.byte	$8F
	.byte	$00
_metatile_colision_map:
	.byte	$40
	.byte	$40
	.byte	$40
	.byte	$40
	.byte	$40
	.byte	$40
	.byte	$40
	.byte	$40
	.byte	$40
	.byte	$40
	.byte	$40
	.byte	$40
	.byte	$40
	.byte	$40
	.byte	$40
	.byte	$40
	.byte	$40
	.byte	$40
	.byte	$40
	.byte	$40
	.byte	$40
	.byte	$40
	.byte	$40
	.byte	$40
	.byte	$40
	.byte	$40
	.byte	$40
	.byte	$40
	.byte	$40
	.byte	$40
	.byte	$40
	.byte	$40
	.byte	$40
	.byte	$40
	.byte	$40
	.byte	$40
	.byte	$40
	.byte	$40
	.byte	$40
	.byte	$40
	.byte	$40
	.byte	$40
	.byte	$40
	.byte	$40
	.byte	$40
	.byte	$40
	.byte	$40
	.byte	$40
	.byte	$40
	.byte	$40
	.byte	$40
	.byte	$40
	.byte	$40
	.byte	$40
	.byte	$40
	.byte	$40
	.byte	$40
	.byte	$40
	.byte	$40
	.byte	$40
	.byte	$40
	.byte	$01
	.byte	$00
	.byte	$00
	.byte	$00
	.byte	$00
	.byte	$00
	.byte	$00
	.byte	$00
	.byte	$00
	.byte	$00
	.byte	$00
	.byte	$00
	.byte	$00
	.byte	$00
	.byte	$00
	.byte	$00
	.byte	$00
	.byte	$00
	.byte	$00
	.byte	$00
	.byte	$00
	.byte	$00
	.byte	$00
	.byte	$00
	.byte	$00
	.byte	$00
	.byte	$00
	.byte	$00
	.byte	$00
	.byte	$00
	.byte	$00
	.byte	$00
	.byte	$00
	.byte	$00
	.byte	$00
	.byte	$00
	.byte	$00
	.byte	$00
	.byte	$00
	.byte	$00
	.byte	$00
	.byte	$00
	.byte	$00
	.byte	$00
	.byte	$00
	.byte	$00
	.byte	$00
	.byte	$00
	.byte	$00
	.byte	$00
	.byte	$00
	.byte	$00
	.byte	$00
	.byte	$00
	.byte	$00
	.byte	$00
	.byte	$00
	.byte	$00
	.byte	$00
	.byte	$00
	.byte	$00
	.byte	$00
	.byte	$00
	.byte	$00
	.byte	$00
	.byte	$00
	.byte	$00
	.byte	$00
	.byte	$00
	.byte	$00
	.byte	$00
	.byte	$00
	.byte	$00
	.byte	$00
	.byte	$00
	.byte	$00
	.byte	$00
	.byte	$00
	.byte	$00
	.byte	$00
	.byte	$00
	.byte	$00
	.byte	$00
	.byte	$00
	.byte	$00
	.byte	$00
	.byte	$00
	.byte	$00
	.byte	$00
	.byte	$00
	.byte	$00
	.byte	$00
	.byte	$00
	.byte	$00
	.byte	$00
	.byte	$00
	.byte	$00
	.byte	$00
	.byte	$00
	.byte	$00
	.byte	$00
	.byte	$00
	.byte	$00
	.byte	$00
	.byte	$00
	.byte	$00
	.byte	$00
	.byte	$00
	.byte	$00
	.byte	$00
	.byte	$00
	.byte	$00
	.byte	$00
	.byte	$00
	.byte	$00
	.byte	$00
	.byte	$00
	.byte	$00
	.byte	$00
	.byte	$00
	.byte	$00
	.byte	$00
	.byte	$00
	.byte	$00
	.byte	$00
	.byte	$00
	.byte	$00
	.byte	$00
	.byte	$00
	.byte	$00
	.byte	$00
	.byte	$00
	.byte	$00
	.byte	$00
	.byte	$00
	.byte	$00
	.byte	$00
	.byte	$00
	.byte	$00
	.byte	$00
	.byte	$00
	.byte	$00
	.byte	$00
	.byte	$00
	.byte	$00
	.byte	$00
	.byte	$00
	.byte	$00
	.byte	$00
	.byte	$00
	.byte	$00
	.byte	$00
	.byte	$00
	.byte	$00
	.byte	$00
	.byte	$00
	.byte	$00
	.byte	$00
	.byte	$00
	.byte	$00
	.byte	$00
	.byte	$00
	.byte	$00
	.byte	$00
	.byte	$00
	.byte	$00
	.byte	$00
	.byte	$00
	.byte	$00
	.byte	$00
	.byte	$00
	.byte	$00
	.byte	$00
	.byte	$00
	.byte	$00
	.byte	$00
	.byte	$00
	.byte	$00
	.byte	$00
_LEVELTNG_0:
	.byte	$3C
	.byte	$1E
	.byte	$1F
	.byte	$50
	.byte	$95
	.byte	$94
	.byte	$91
	.byte	$8E
	.byte	$93
	.byte	$92
	.byte	$8E
	.byte	$92
	.byte	$92
	.byte	$94
	.byte	$92
	.byte	$91
	.byte	$00
	.byte	$01
	.byte	$1E
	.byte	$1F
	.byte	$92
	.byte	$94
	.byte	$91
	.byte	$90
	.byte	$8F
	.byte	$91
	.byte	$92
	.byte	$8E
	.byte	$92
	.byte	$91
	.byte	$92
	.byte	$92
	.byte	$02
	.byte	$03
	.byte	$00
	.byte	$1E
	.byte	$92
	.byte	$90
	.byte	$91
	.byte	$94
	.byte	$8F
	.byte	$91
	.byte	$90
	.byte	$8E
	.byte	$92
	.byte	$91
	.byte	$94
	.byte	$92
	.byte	$00
	.byte	$01
	.byte	$02
	.byte	$02
	.byte	$90
	.byte	$92
	.byte	$90
	.byte	$92
	.byte	$8E
	.byte	$90
	.byte	$91
	.byte	$8F
	.byte	$94
	.byte	$91
	.byte	$90
	.byte	$94
	.byte	$02
	.byte	$03
	.byte	$15
	.byte	$1B
	.byte	$92
	.byte	$92
	.byte	$90
	.byte	$90
	.byte	$8E
	.byte	$92
	.byte	$93
	.byte	$8F
	.byte	$92
	.byte	$91
	.byte	$93
	.byte	$90
	.byte	$00
	.byte	$15
	.byte	$51
	.byte	$51
	.byte	$85
	.byte	$92
	.byte	$90
	.byte	$91
	.byte	$8B
	.byte	$88
	.byte	$8C
	.byte	$8E
	.byte	$87
	.byte	$85
	.byte	$87
	.byte	$8B
	.byte	$02
	.byte	$51
	.byte	$51
	.byte	$51
	.byte	$9B
	.byte	$8C
	.byte	$8B
	.byte	$88
	.byte	$9C
	.byte	$73
	.byte	$9A
	.byte	$8B
	.byte	$6A
	.byte	$9A
	.byte	$83
	.byte	$9C
	.byte	$10
	.byte	$51
	.byte	$51
	.byte	$51
	.byte	$50
	.byte	$AF
	.byte	$62
	.byte	$AF
	.byte	$76
	.byte	$71
	.byte	$77
	.byte	$AF
	.byte	$69
	.byte	$DD
	.byte	$DC
	.byte	$DE
	.byte	$12
	.byte	$51
	.byte	$51
	.byte	$51
	.byte	$50
	.byte	$50
	.byte	$60
	.byte	$67
	.byte	$50
	.byte	$71
	.byte	$50
	.byte	$50
	.byte	$69
	.byte	$6F
	.byte	$50
	.byte	$50
	.byte	$01
	.byte	$51
	.byte	$51
	.byte	$51
	.byte	$58
	.byte	$59
	.byte	$61
	.byte	$58
	.byte	$59
	.byte	$72
	.byte	$58
	.byte	$59
	.byte	$68
	.byte	$58
	.byte	$59
	.byte	$58
	.byte	$03
	.byte	$51
	.byte	$51
	.byte	$51
	.byte	$51
	.byte	$63
	.byte	$64
	.byte	$65
	.byte	$74
	.byte	$55
	.byte	$75
	.byte	$51
	.byte	$69
	.byte	$52
	.byte	$51
	.byte	$74
	.byte	$00
	.byte	$0F
	.byte	$04
	.byte	$0C
	.byte	$54
	.byte	$51
	.byte	$55
	.byte	$54
	.byte	$56
	.byte	$55
	.byte	$51
	.byte	$6B
	.byte	$6C
	.byte	$6D
	.byte	$53
	.byte	$51
	.byte	$02
	.byte	$3A
	.byte	$3B
	.byte	$00
	.byte	$0F
	.byte	$06
	.byte	$08
	.byte	$0C
	.byte	$54
	.byte	$51
	.byte	$51
	.byte	$54
	.byte	$51
	.byte	$51
	.byte	$51
	.byte	$51
	.byte	$00
	.byte	$3C
	.byte	$10
	.byte	$02
	.byte	$00
	.byte	$03
	.byte	$00
	.byte	$01
	.byte	$0E
	.byte	$07
	.byte	$05
	.byte	$06
	.byte	$07
	.byte	$08
	.byte	$09
	.byte	$0A
	.byte	$37
	.byte	$37
	.byte	$37
	.byte	$38
	.byte	$38
	.byte	$37
	.byte	$37
	.byte	$38
	.byte	$38
	.byte	$37
	.byte	$38
	.byte	$38
	.byte	$37
	.byte	$37
	.byte	$38
	.byte	$37
_LEVELTNG_1:
	.byte	$92
	.byte	$8F
	.byte	$92
	.byte	$90
	.byte	$92
	.byte	$92
	.byte	$92
	.byte	$8E
	.byte	$92
	.byte	$92
	.byte	$92
	.byte	$92
	.byte	$99
	.byte	$7B
	.byte	$50
	.byte	$50
	.byte	$94
	.byte	$8F
	.byte	$94
	.byte	$92
	.byte	$94
	.byte	$94
	.byte	$93
	.byte	$92
	.byte	$8E
	.byte	$92
	.byte	$90
	.byte	$90
	.byte	$92
	.byte	$7C
	.byte	$50
	.byte	$50
	.byte	$90
	.byte	$8F
	.byte	$94
	.byte	$92
	.byte	$93
	.byte	$90
	.byte	$94
	.byte	$92
	.byte	$8E
	.byte	$92
	.byte	$90
	.byte	$90
	.byte	$92
	.byte	$7C
	.byte	$50
	.byte	$50
	.byte	$91
	.byte	$8F
	.byte	$93
	.byte	$93
	.byte	$92
	.byte	$91
	.byte	$91
	.byte	$93
	.byte	$8F
	.byte	$92
	.byte	$91
	.byte	$91
	.byte	$91
	.byte	$7D
	.byte	$50
	.byte	$50
	.byte	$8F
	.byte	$94
	.byte	$8E
	.byte	$91
	.byte	$92
	.byte	$91
	.byte	$94
	.byte	$94
	.byte	$8E
	.byte	$8D
	.byte	$85
	.byte	$92
	.byte	$8E
	.byte	$50
	.byte	$50
	.byte	$50
	.byte	$90
	.byte	$8C
	.byte	$8E
	.byte	$91
	.byte	$91
	.byte	$92
	.byte	$8D
	.byte	$8E
	.byte	$8B
	.byte	$62
	.byte	$9C
	.byte	$8B
	.byte	$9F
	.byte	$50
	.byte	$50
	.byte	$50
	.byte	$8B
	.byte	$62
	.byte	$88
	.byte	$8B
	.byte	$8D
	.byte	$8B
	.byte	$71
	.byte	$87
	.byte	$9A
	.byte	$61
	.byte	$67
	.byte	$9E
	.byte	$50
	.byte	$50
	.byte	$50
	.byte	$50
	.byte	$73
	.byte	$61
	.byte	$AF
	.byte	$AF
	.byte	$9B
	.byte	$6A
	.byte	$70
	.byte	$AF
	.byte	$DD
	.byte	$61
	.byte	$DC
	.byte	$DE
	.byte	$50
	.byte	$50
	.byte	$50
	.byte	$50
	.byte	$71
	.byte	$60
	.byte	$50
	.byte	$50
	.byte	$50
	.byte	$69
	.byte	$71
	.byte	$77
	.byte	$50
	.byte	$61
	.byte	$50
	.byte	$50
	.byte	$50
	.byte	$50
	.byte	$50
	.byte	$50
	.byte	$72
	.byte	$60
	.byte	$58
	.byte	$58
	.byte	$59
	.byte	$68
	.byte	$72
	.byte	$58
	.byte	$59
	.byte	$61
	.byte	$58
	.byte	$59
	.byte	$58
	.byte	$58
	.byte	$58
	.byte	$58
	.byte	$63
	.byte	$64
	.byte	$65
	.byte	$53
	.byte	$51
	.byte	$69
	.byte	$72
	.byte	$51
	.byte	$63
	.byte	$64
	.byte	$65
	.byte	$54
	.byte	$51
	.byte	$51
	.byte	$51
	.byte	$51
	.byte	$55
	.byte	$55
	.byte	$57
	.byte	$51
	.byte	$54
	.byte	$68
	.byte	$55
	.byte	$75
	.byte	$56
	.byte	$55
	.byte	$57
	.byte	$51
	.byte	$51
	.byte	$51
	.byte	$51
	.byte	$53
	.byte	$51
	.byte	$52
	.byte	$51
	.byte	$51
	.byte	$6B
	.byte	$6C
	.byte	$6D
	.byte	$57
	.byte	$51
	.byte	$53
	.byte	$51
	.byte	$51
	.byte	$54
	.byte	$0F
	.byte	$04
	.byte	$0C
	.byte	$0B
	.byte	$04
	.byte	$05
	.byte	$06
	.byte	$07
	.byte	$04
	.byte	$08
	.byte	$06
	.byte	$07
	.byte	$04
	.byte	$05
	.byte	$06
	.byte	$0D
	.byte	$00
	.byte	$10
	.byte	$11
	.byte	$37
	.byte	$38
	.byte	$38
	.byte	$37
	.byte	$38
	.byte	$37
	.byte	$37
	.byte	$38
	.byte	$37
	.byte	$38
	.byte	$37
	.byte	$37
	.byte	$37
	.byte	$37
	.byte	$37
	.byte	$38
_LEVELTNG_2:
	.byte	$50
	.byte	$50
	.byte	$50
	.byte	$50
	.byte	$50
	.byte	$50
	.byte	$50
	.byte	$50
	.byte	$50
	.byte	$50
	.byte	$50
	.byte	$50
	.byte	$50
	.byte	$50
	.byte	$50
	.byte	$50
	.byte	$50
	.byte	$50
	.byte	$50
	.byte	$50
	.byte	$50
	.byte	$50
	.byte	$50
	.byte	$50
	.byte	$50
	.byte	$50
	.byte	$50
	.byte	$50
	.byte	$50
	.byte	$50
	.byte	$DD
	.byte	$DE
	.byte	$DD
	.byte	$DC
	.byte	$DC
	.byte	$DE
	.byte	$50
	.byte	$50
	.byte	$50
	.byte	$50
	.byte	$50
	.byte	$50
	.byte	$50
	.byte	$50
	.byte	$50
	.byte	$50
	.byte	$50
	.byte	$50
	.byte	$50
	.byte	$50
	.byte	$50
	.byte	$50
	.byte	$50
	.byte	$50
	.byte	$50
	.byte	$50
	.byte	$50
	.byte	$50
	.byte	$50
	.byte	$50
	.byte	$50
	.byte	$50
	.byte	$50
	.byte	$50
	.byte	$50
	.byte	$50
	.byte	$50
	.byte	$50
	.byte	$50
	.byte	$50
	.byte	$50
	.byte	$50
	.byte	$50
	.byte	$50
	.byte	$50
	.byte	$50
	.byte	$50
	.byte	$50
	.byte	$50
	.byte	$50
	.byte	$50
	.byte	$50
	.byte	$50
	.byte	$50
	.byte	$50
	.byte	$50
	.byte	$DD
	.byte	$DC
	.byte	$DE
	.byte	$50
	.byte	$50
	.byte	$50
	.byte	$50
	.byte	$50
	.byte	$50
	.byte	$50
	.byte	$50
	.byte	$50
	.byte	$50
	.byte	$50
	.byte	$50
	.byte	$50
	.byte	$50
	.byte	$50
	.byte	$50
	.byte	$50
	.byte	$50
	.byte	$50
	.byte	$50
	.byte	$50
	.byte	$50
	.byte	$50
	.byte	$50
	.byte	$50
	.byte	$50
	.byte	$50
	.byte	$50
	.byte	$50
	.byte	$50
	.byte	$50
	.byte	$50
	.byte	$50
	.byte	$50
	.byte	$50
	.byte	$50
	.byte	$50
	.byte	$50
	.byte	$50
	.byte	$50
	.byte	$50
	.byte	$50
	.byte	$50
	.byte	$50
	.byte	$50
	.byte	$50
	.byte	$50
	.byte	$50
	.byte	$50
	.byte	$50
	.byte	$50
	.byte	$50
	.byte	$50
	.byte	$AC
	.byte	$50
	.byte	$50
	.byte	$50
	.byte	$50
	.byte	$50
	.byte	$50
	.byte	$50
	.byte	$AC
	.byte	$50
	.byte	$50
	.byte	$50
	.byte	$50
	.byte	$50
	.byte	$50
	.byte	$50
	.byte	$35
	.byte	$34
	.byte	$A4
	.byte	$A1
	.byte	$AB
	.byte	$A7
	.byte	$B0
	.byte	$A7
	.byte	$B0
	.byte	$B0
	.byte	$A8
	.byte	$AB
	.byte	$A8
	.byte	$B0
	.byte	$35
	.byte	$36
	.byte	$25
	.byte	$21
	.byte	$51
	.byte	$A0
	.byte	$B0
	.byte	$B0
	.byte	$A7
	.byte	$B0
	.byte	$AB
	.byte	$B0
	.byte	$B0
	.byte	$B0
	.byte	$B0
	.byte	$B0
	.byte	$25
	.byte	$21
	.byte	$20
	.byte	$20
	.byte	$A3
	.byte	$A2
	.byte	$A7
	.byte	$B0
	.byte	$B0
	.byte	$A7
	.byte	$B0
	.byte	$A8
	.byte	$B0
	.byte	$A7
	.byte	$35
	.byte	$36
	.byte	$23
	.byte	$20
	.byte	$20
	.byte	$20
	.byte	$A5
	.byte	$A6
	.byte	$A6
	.byte	$A6
	.byte	$A6
	.byte	$35
	.byte	$34
	.byte	$33
	.byte	$34
	.byte	$36
	.byte	$31
	.byte	$30
	.byte	$22
	.byte	$22
	.byte	$22
	.byte	$22
	.byte	$3E
	.byte	$3E
	.byte	$3E
	.byte	$3E
	.byte	$3E
	.byte	$37
	.byte	$37
	.byte	$37
	.byte	$38
	.byte	$38
	.byte	$37
	.byte	$37
	.byte	$38
	.byte	$38
	.byte	$37
	.byte	$38
_LEVELTNG_3:
	.byte	$50
	.byte	$50
	.byte	$50
	.byte	$50
	.byte	$50
	.byte	$50
	.byte	$50
	.byte	$50
	.byte	$50
	.byte	$96
	.byte	$90
	.byte	$91
	.byte	$90
	.byte	$98
	.byte	$50
	.byte	$50
	.byte	$50
	.byte	$50
	.byte	$50
	.byte	$50
	.byte	$50
	.byte	$50
	.byte	$50
	.byte	$50
	.byte	$95
	.byte	$90
	.byte	$91
	.byte	$90
	.byte	$90
	.byte	$90
	.byte	$99
	.byte	$50
	.byte	$50
	.byte	$50
	.byte	$50
	.byte	$50
	.byte	$50
	.byte	$50
	.byte	$50
	.byte	$50
	.byte	$92
	.byte	$91
	.byte	$91
	.byte	$91
	.byte	$90
	.byte	$90
	.byte	$8F
	.byte	$50
	.byte	$50
	.byte	$50
	.byte	$50
	.byte	$50
	.byte	$50
	.byte	$50
	.byte	$50
	.byte	$50
	.byte	$92
	.byte	$91
	.byte	$91
	.byte	$91
	.byte	$90
	.byte	$90
	.byte	$8E
	.byte	$50
	.byte	$50
	.byte	$50
	.byte	$50
	.byte	$50
	.byte	$50
	.byte	$50
	.byte	$50
	.byte	$50
	.byte	$85
	.byte	$92
	.byte	$91
	.byte	$90
	.byte	$91
	.byte	$8E
	.byte	$8C
	.byte	$50
	.byte	$50
	.byte	$50
	.byte	$DD
	.byte	$DC
	.byte	$DE
	.byte	$50
	.byte	$50
	.byte	$50
	.byte	$9B
	.byte	$85
	.byte	$8C
	.byte	$85
	.byte	$86
	.byte	$8C
	.byte	$9A
	.byte	$50
	.byte	$50
	.byte	$50
	.byte	$50
	.byte	$50
	.byte	$50
	.byte	$50
	.byte	$50
	.byte	$50
	.byte	$50
	.byte	$AF
	.byte	$9C
	.byte	$6A
	.byte	$9A
	.byte	$AF
	.byte	$50
	.byte	$50
	.byte	$50
	.byte	$50
	.byte	$50
	.byte	$50
	.byte	$50
	.byte	$50
	.byte	$50
	.byte	$50
	.byte	$50
	.byte	$50
	.byte	$6E
	.byte	$69
	.byte	$50
	.byte	$50
	.byte	$50
	.byte	$50
	.byte	$50
	.byte	$AD
	.byte	$50
	.byte	$50
	.byte	$50
	.byte	$50
	.byte	$50
	.byte	$50
	.byte	$50
	.byte	$50
	.byte	$50
	.byte	$68
	.byte	$50
	.byte	$50
	.byte	$50
	.byte	$50
	.byte	$33
	.byte	$36
	.byte	$AC
	.byte	$50
	.byte	$50
	.byte	$50
	.byte	$AD
	.byte	$50
	.byte	$50
	.byte	$50
	.byte	$50
	.byte	$69
	.byte	$50
	.byte	$50
	.byte	$50
	.byte	$AD
	.byte	$21
	.byte	$26
	.byte	$35
	.byte	$36
	.byte	$A8
	.byte	$B0
	.byte	$B0
	.byte	$AA
	.byte	$A7
	.byte	$4D
	.byte	$6B
	.byte	$6C
	.byte	$6D
	.byte	$53
	.byte	$4F
	.byte	$A7
	.byte	$20
	.byte	$20
	.byte	$21
	.byte	$26
	.byte	$B0
	.byte	$A7
	.byte	$A7
	.byte	$B0
	.byte	$B0
	.byte	$4A
	.byte	$4B
	.byte	$5A
	.byte	$4B
	.byte	$5B
	.byte	$4C
	.byte	$B0
	.byte	$20
	.byte	$20
	.byte	$20
	.byte	$24
	.byte	$35
	.byte	$34
	.byte	$36
	.byte	$B0
	.byte	$A7
	.byte	$B0
	.byte	$A8
	.byte	$B0
	.byte	$B0
	.byte	$A8
	.byte	$B0
	.byte	$A8
	.byte	$22
	.byte	$22
	.byte	$22
	.byte	$22
	.byte	$30
	.byte	$30
	.byte	$32
	.byte	$35
	.byte	$33
	.byte	$34
	.byte	$33
	.byte	$34
	.byte	$33
	.byte	$34
	.byte	$33
	.byte	$36
	.byte	$38
	.byte	$37
	.byte	$37
	.byte	$38
	.byte	$37
	.byte	$37
	.byte	$38
	.byte	$38
	.byte	$37
	.byte	$38
	.byte	$37
	.byte	$37
	.byte	$37
	.byte	$37
	.byte	$37
	.byte	$38
_LEVELTNG_4:
	.byte	$50
	.byte	$50
	.byte	$50
	.byte	$50
	.byte	$50
	.byte	$50
	.byte	$50
	.byte	$50
	.byte	$50
	.byte	$50
	.byte	$50
	.byte	$50
	.byte	$50
	.byte	$50
	.byte	$50
	.byte	$50
	.byte	$50
	.byte	$50
	.byte	$50
	.byte	$50
	.byte	$DD
	.byte	$DC
	.byte	$DE
	.byte	$50
	.byte	$50
	.byte	$50
	.byte	$50
	.byte	$50
	.byte	$50
	.byte	$50
	.byte	$50
	.byte	$50
	.byte	$50
	.byte	$50
	.byte	$50
	.byte	$50
	.byte	$50
	.byte	$50
	.byte	$50
	.byte	$50
	.byte	$50
	.byte	$50
	.byte	$50
	.byte	$50
	.byte	$50
	.byte	$50
	.byte	$50
	.byte	$50
	.byte	$50
	.byte	$50
	.byte	$50
	.byte	$50
	.byte	$50
	.byte	$50
	.byte	$50
	.byte	$50
	.byte	$50
	.byte	$50
	.byte	$50
	.byte	$50
	.byte	$50
	.byte	$DD
	.byte	$DC
	.byte	$DC
	.byte	$50
	.byte	$50
	.byte	$50
	.byte	$50
	.byte	$50
	.byte	$50
	.byte	$50
	.byte	$50
	.byte	$50
	.byte	$50
	.byte	$50
	.byte	$50
	.byte	$50
	.byte	$50
	.byte	$50
	.byte	$50
	.byte	$50
	.byte	$DD
	.byte	$DC
	.byte	$DE
	.byte	$50
	.byte	$50
	.byte	$50
	.byte	$50
	.byte	$50
	.byte	$50
	.byte	$50
	.byte	$50
	.byte	$50
	.byte	$50
	.byte	$50
	.byte	$50
	.byte	$50
	.byte	$50
	.byte	$50
	.byte	$50
	.byte	$50
	.byte	$50
	.byte	$50
	.byte	$50
	.byte	$50
	.byte	$50
	.byte	$50
	.byte	$50
	.byte	$50
	.byte	$50
	.byte	$50
	.byte	$50
	.byte	$50
	.byte	$50
	.byte	$50
	.byte	$50
	.byte	$50
	.byte	$50
	.byte	$50
	.byte	$50
	.byte	$50
	.byte	$50
	.byte	$50
	.byte	$50
	.byte	$40
	.byte	$41
	.byte	$41
	.byte	$41
	.byte	$50
	.byte	$50
	.byte	$50
	.byte	$95
	.byte	$99
	.byte	$7B
	.byte	$50
	.byte	$50
	.byte	$50
	.byte	$50
	.byte	$50
	.byte	$50
	.byte	$43
	.byte	$44
	.byte	$44
	.byte	$44
	.byte	$50
	.byte	$50
	.byte	$50
	.byte	$7A
	.byte	$8D
	.byte	$7D
	.byte	$50
	.byte	$AD
	.byte	$50
	.byte	$50
	.byte	$AC
	.byte	$50
	.byte	$43
	.byte	$51
	.byte	$45
	.byte	$51
	.byte	$B0
	.byte	$A8
	.byte	$B0
	.byte	$B0
	.byte	$A9
	.byte	$B0
	.byte	$A8
	.byte	$7E
	.byte	$78
	.byte	$5F
	.byte	$B0
	.byte	$AB
	.byte	$46
	.byte	$48
	.byte	$44
	.byte	$44
	.byte	$B0
	.byte	$A8
	.byte	$35
	.byte	$34
	.byte	$36
	.byte	$B0
	.byte	$A8
	.byte	$5C
	.byte	$5D
	.byte	$5E
	.byte	$A7
	.byte	$B0
	.byte	$B0
	.byte	$B1
	.byte	$A8
	.byte	$B0
	.byte	$35
	.byte	$36
	.byte	$25
	.byte	$21
	.byte	$26
	.byte	$35
	.byte	$36
	.byte	$AA
	.byte	$B0
	.byte	$A9
	.byte	$B0
	.byte	$A8
	.byte	$A7
	.byte	$35
	.byte	$34
	.byte	$34
	.byte	$31
	.byte	$30
	.byte	$22
	.byte	$22
	.byte	$22
	.byte	$30
	.byte	$32
	.byte	$35
	.byte	$34
	.byte	$34
	.byte	$34
	.byte	$33
	.byte	$36
	.byte	$31
	.byte	$30
	.byte	$30
	.byte	$38
	.byte	$37
	.byte	$37
	.byte	$38
	.byte	$38
	.byte	$37
	.byte	$38
	.byte	$38
	.byte	$37
	.byte	$37
	.byte	$38
	.byte	$37
	.byte	$37
	.byte	$38
	.byte	$38
	.byte	$37
_LEVELTNG_5:
	.byte	$50
	.byte	$50
	.byte	$50
	.byte	$50
	.byte	$50
	.byte	$50
	.byte	$50
	.byte	$50
	.byte	$50
	.byte	$50
	.byte	$50
	.byte	$50
	.byte	$50
	.byte	$50
	.byte	$50
	.byte	$50
	.byte	$50
	.byte	$50
	.byte	$50
	.byte	$50
	.byte	$50
	.byte	$50
	.byte	$50
	.byte	$50
	.byte	$50
	.byte	$50
	.byte	$DD
	.byte	$DC
	.byte	$DE
	.byte	$50
	.byte	$50
	.byte	$50
	.byte	$50
	.byte	$50
	.byte	$50
	.byte	$50
	.byte	$50
	.byte	$50
	.byte	$50
	.byte	$50
	.byte	$50
	.byte	$50
	.byte	$50
	.byte	$50
	.byte	$50
	.byte	$50
	.byte	$50
	.byte	$50
	.byte	$DE
	.byte	$50
	.byte	$50
	.byte	$50
	.byte	$50
	.byte	$50
	.byte	$50
	.byte	$50
	.byte	$50
	.byte	$50
	.byte	$50
	.byte	$50
	.byte	$50
	.byte	$50
	.byte	$50
	.byte	$50
	.byte	$50
	.byte	$50
	.byte	$50
	.byte	$50
	.byte	$50
	.byte	$50
	.byte	$50
	.byte	$50
	.byte	$50
	.byte	$50
	.byte	$50
	.byte	$50
	.byte	$50
	.byte	$50
	.byte	$50
	.byte	$50
	.byte	$50
	.byte	$50
	.byte	$50
	.byte	$50
	.byte	$50
	.byte	$50
	.byte	$50
	.byte	$50
	.byte	$50
	.byte	$50
	.byte	$50
	.byte	$50
	.byte	$50
	.byte	$50
	.byte	$DD
	.byte	$DE
	.byte	$50
	.byte	$B2
	.byte	$50
	.byte	$50
	.byte	$50
	.byte	$50
	.byte	$95
	.byte	$99
	.byte	$7B
	.byte	$50
	.byte	$50
	.byte	$50
	.byte	$50
	.byte	$50
	.byte	$50
	.byte	$50
	.byte	$41
	.byte	$41
	.byte	$42
	.byte	$50
	.byte	$50
	.byte	$50
	.byte	$90
	.byte	$92
	.byte	$7C
	.byte	$50
	.byte	$50
	.byte	$50
	.byte	$50
	.byte	$B2
	.byte	$50
	.byte	$50
	.byte	$44
	.byte	$44
	.byte	$49
	.byte	$50
	.byte	$50
	.byte	$50
	.byte	$7A
	.byte	$8D
	.byte	$7D
	.byte	$50
	.byte	$40
	.byte	$41
	.byte	$41
	.byte	$41
	.byte	$42
	.byte	$50
	.byte	$44
	.byte	$51
	.byte	$49
	.byte	$50
	.byte	$AC
	.byte	$50
	.byte	$6E
	.byte	$79
	.byte	$50
	.byte	$50
	.byte	$43
	.byte	$44
	.byte	$44
	.byte	$44
	.byte	$49
	.byte	$AC
	.byte	$44
	.byte	$45
	.byte	$47
	.byte	$51
	.byte	$4F
	.byte	$A8
	.byte	$4D
	.byte	$4E
	.byte	$4F
	.byte	$A9
	.byte	$43
	.byte	$51
	.byte	$44
	.byte	$51
	.byte	$49
	.byte	$B0
	.byte	$AA
	.byte	$B0
	.byte	$A7
	.byte	$B0
	.byte	$B0
	.byte	$A8
	.byte	$4A
	.byte	$4B
	.byte	$4C
	.byte	$B0
	.byte	$46
	.byte	$48
	.byte	$44
	.byte	$44
	.byte	$49
	.byte	$51
	.byte	$34
	.byte	$36
	.byte	$B0
	.byte	$AB
	.byte	$A8
	.byte	$B0
	.byte	$B0
	.byte	$A8
	.byte	$A7
	.byte	$B0
	.byte	$A7
	.byte	$B1
	.byte	$A8
	.byte	$B0
	.byte	$B0
	.byte	$A8
	.byte	$30
	.byte	$32
	.byte	$34
	.byte	$33
	.byte	$34
	.byte	$33
	.byte	$34
	.byte	$33
	.byte	$34
	.byte	$33
	.byte	$34
	.byte	$33
	.byte	$34
	.byte	$33
	.byte	$34
	.byte	$33
	.byte	$37
	.byte	$37
	.byte	$37
	.byte	$38
	.byte	$38
	.byte	$37
	.byte	$37
	.byte	$38
	.byte	$38
	.byte	$37
	.byte	$38
	.byte	$38
	.byte	$37
	.byte	$37
	.byte	$38
	.byte	$37
_LEVELTNG_6:
	.byte	$50
	.byte	$50
	.byte	$50
	.byte	$50
	.byte	$50
	.byte	$50
	.byte	$50
	.byte	$50
	.byte	$50
	.byte	$50
	.byte	$50
	.byte	$50
	.byte	$50
	.byte	$50
	.byte	$50
	.byte	$50
	.byte	$50
	.byte	$50
	.byte	$50
	.byte	$50
	.byte	$50
	.byte	$50
	.byte	$50
	.byte	$50
	.byte	$50
	.byte	$50
	.byte	$50
	.byte	$50
	.byte	$50
	.byte	$50
	.byte	$50
	.byte	$50
	.byte	$50
	.byte	$50
	.byte	$50
	.byte	$50
	.byte	$50
	.byte	$50
	.byte	$50
	.byte	$50
	.byte	$50
	.byte	$50
	.byte	$50
	.byte	$50
	.byte	$50
	.byte	$50
	.byte	$50
	.byte	$50
	.byte	$50
	.byte	$50
	.byte	$50
	.byte	$B2
	.byte	$50
	.byte	$B2
	.byte	$50
	.byte	$50
	.byte	$50
	.byte	$50
	.byte	$50
	.byte	$50
	.byte	$50
	.byte	$50
	.byte	$50
	.byte	$50
	.byte	$50
	.byte	$50
	.byte	$40
	.byte	$41
	.byte	$41
	.byte	$41
	.byte	$42
	.byte	$50
	.byte	$50
	.byte	$50
	.byte	$50
	.byte	$50
	.byte	$50
	.byte	$50
	.byte	$50
	.byte	$50
	.byte	$50
	.byte	$50
	.byte	$43
	.byte	$44
	.byte	$44
	.byte	$45
	.byte	$49
	.byte	$50
	.byte	$50
	.byte	$50
	.byte	$50
	.byte	$50
	.byte	$50
	.byte	$50
	.byte	$50
	.byte	$50
	.byte	$50
	.byte	$50
	.byte	$43
	.byte	$51
	.byte	$45
	.byte	$51
	.byte	$49
	.byte	$50
	.byte	$50
	.byte	$50
	.byte	$50
	.byte	$50
	.byte	$50
	.byte	$50
	.byte	$50
	.byte	$50
	.byte	$50
	.byte	$50
	.byte	$43
	.byte	$44
	.byte	$44
	.byte	$45
	.byte	$49
	.byte	$50
	.byte	$DD
	.byte	$DC
	.byte	$DE
	.byte	$50
	.byte	$50
	.byte	$50
	.byte	$50
	.byte	$50
	.byte	$50
	.byte	$50
	.byte	$43
	.byte	$44
	.byte	$44
	.byte	$44
	.byte	$49
	.byte	$50
	.byte	$50
	.byte	$50
	.byte	$50
	.byte	$50
	.byte	$50
	.byte	$50
	.byte	$50
	.byte	$50
	.byte	$50
	.byte	$50
	.byte	$43
	.byte	$51
	.byte	$44
	.byte	$51
	.byte	$49
	.byte	$AD
	.byte	$50
	.byte	$50
	.byte	$50
	.byte	$50
	.byte	$50
	.byte	$AC
	.byte	$50
	.byte	$50
	.byte	$B0
	.byte	$A7
	.byte	$46
	.byte	$44
	.byte	$44
	.byte	$48
	.byte	$47
	.byte	$51
	.byte	$51
	.byte	$51
	.byte	$4F
	.byte	$7E
	.byte	$7F
	.byte	$5F
	.byte	$B0
	.byte	$A7
	.byte	$4F
	.byte	$B0
	.byte	$B0
	.byte	$B0
	.byte	$B0
	.byte	$B1
	.byte	$A8
	.byte	$A8
	.byte	$B0
	.byte	$AB
	.byte	$B0
	.byte	$5C
	.byte	$5D
	.byte	$5E
	.byte	$AA
	.byte	$B0
	.byte	$B0
	.byte	$A8
	.byte	$A7
	.byte	$AA
	.byte	$B1
	.byte	$A8
	.byte	$A8
	.byte	$B0
	.byte	$A7
	.byte	$B0
	.byte	$B0
	.byte	$AA
	.byte	$B0
	.byte	$B0
	.byte	$AA
	.byte	$B0
	.byte	$34
	.byte	$33
	.byte	$34
	.byte	$33
	.byte	$34
	.byte	$33
	.byte	$34
	.byte	$34
	.byte	$34
	.byte	$33
	.byte	$34
	.byte	$33
	.byte	$34
	.byte	$34
	.byte	$33
	.byte	$36
	.byte	$37
	.byte	$37
	.byte	$38
	.byte	$38
	.byte	$37
	.byte	$37
	.byte	$38
	.byte	$38
	.byte	$37
	.byte	$38
	.byte	$38
	.byte	$37
	.byte	$37
	.byte	$38
	.byte	$37
	.byte	$37
_LEVELTNG_7:
	.byte	$50
	.byte	$50
	.byte	$50
	.byte	$50
	.byte	$50
	.byte	$50
	.byte	$50
	.byte	$50
	.byte	$50
	.byte	$50
	.byte	$50
	.byte	$50
	.byte	$50
	.byte	$50
	.byte	$50
	.byte	$50
	.byte	$50
	.byte	$50
	.byte	$50
	.byte	$50
	.byte	$50
	.byte	$50
	.byte	$50
	.byte	$50
	.byte	$50
	.byte	$50
	.byte	$50
	.byte	$50
	.byte	$50
	.byte	$DD
	.byte	$DC
	.byte	$DE
	.byte	$50
	.byte	$50
	.byte	$50
	.byte	$50
	.byte	$50
	.byte	$50
	.byte	$50
	.byte	$50
	.byte	$50
	.byte	$50
	.byte	$50
	.byte	$50
	.byte	$50
	.byte	$50
	.byte	$50
	.byte	$50
	.byte	$50
	.byte	$DD
	.byte	$DC
	.byte	$DC
	.byte	$DE
	.byte	$50
	.byte	$50
	.byte	$50
	.byte	$50
	.byte	$50
	.byte	$50
	.byte	$50
	.byte	$50
	.byte	$50
	.byte	$50
	.byte	$50
	.byte	$50
	.byte	$50
	.byte	$50
	.byte	$50
	.byte	$50
	.byte	$50
	.byte	$50
	.byte	$50
	.byte	$50
	.byte	$50
	.byte	$50
	.byte	$50
	.byte	$50
	.byte	$50
	.byte	$50
	.byte	$50
	.byte	$50
	.byte	$50
	.byte	$50
	.byte	$50
	.byte	$50
	.byte	$50
	.byte	$50
	.byte	$50
	.byte	$50
	.byte	$50
	.byte	$50
	.byte	$50
	.byte	$50
	.byte	$50
	.byte	$50
	.byte	$50
	.byte	$50
	.byte	$50
	.byte	$50
	.byte	$50
	.byte	$50
	.byte	$50
	.byte	$50
	.byte	$50
	.byte	$50
	.byte	$DD
	.byte	$DE
	.byte	$50
	.byte	$50
	.byte	$50
	.byte	$50
	.byte	$50
	.byte	$50
	.byte	$50
	.byte	$50
	.byte	$50
	.byte	$50
	.byte	$50
	.byte	$50
	.byte	$50
	.byte	$50
	.byte	$50
	.byte	$50
	.byte	$50
	.byte	$50
	.byte	$50
	.byte	$50
	.byte	$D1
	.byte	$50
	.byte	$50
	.byte	$50
	.byte	$50
	.byte	$50
	.byte	$50
	.byte	$50
	.byte	$50
	.byte	$50
	.byte	$50
	.byte	$50
	.byte	$50
	.byte	$50
	.byte	$D1
	.byte	$D2
	.byte	$D6
	.byte	$50
	.byte	$50
	.byte	$50
	.byte	$AD
	.byte	$50
	.byte	$50
	.byte	$50
	.byte	$50
	.byte	$50
	.byte	$50
	.byte	$50
	.byte	$50
	.byte	$D0
	.byte	$D5
	.byte	$D4
	.byte	$D4
	.byte	$AA
	.byte	$B0
	.byte	$B0
	.byte	$B0
	.byte	$B0
	.byte	$AA
	.byte	$B0
	.byte	$B0
	.byte	$AA
	.byte	$B0
	.byte	$A8
	.byte	$B0
	.byte	$B0
	.byte	$B0
	.byte	$A7
	.byte	$B0
	.byte	$B0
	.byte	$B0
	.byte	$A8
	.byte	$A7
	.byte	$B0
	.byte	$A8
	.byte	$B0
	.byte	$B0
	.byte	$B0
	.byte	$B0
	.byte	$A9
	.byte	$B0
	.byte	$AB
	.byte	$B0
	.byte	$0E
	.byte	$0D
	.byte	$B0
	.byte	$A7
	.byte	$B0
	.byte	$B0
	.byte	$B0
	.byte	$B0
	.byte	$B0
	.byte	$A7
	.byte	$AA
	.byte	$B0
	.byte	$A9
	.byte	$B0
	.byte	$0E
	.byte	$0D
	.byte	$00
	.byte	$3C
	.byte	$A6
	.byte	$A6
	.byte	$A6
	.byte	$A6
	.byte	$A6
	.byte	$0E
	.byte	$09
	.byte	$04
	.byte	$05
	.byte	$06
	.byte	$07
	.byte	$08
	.byte	$00
	.byte	$12
	.byte	$02
	.byte	$01
	.byte	$3E
	.byte	$3E
	.byte	$3E
	.byte	$3E
	.byte	$3E
	.byte	$38
	.byte	$37
	.byte	$37
	.byte	$38
	.byte	$38
	.byte	$37
	.byte	$38
	.byte	$38
	.byte	$37
	.byte	$37
	.byte	$38
_LEVELTNG_8:
	.byte	$50
	.byte	$50
	.byte	$50
	.byte	$50
	.byte	$50
	.byte	$50
	.byte	$50
	.byte	$50
	.byte	$50
	.byte	$50
	.byte	$50
	.byte	$50
	.byte	$50
	.byte	$50
	.byte	$50
	.byte	$50
	.byte	$50
	.byte	$50
	.byte	$50
	.byte	$50
	.byte	$50
	.byte	$50
	.byte	$50
	.byte	$50
	.byte	$50
	.byte	$50
	.byte	$50
	.byte	$50
	.byte	$50
	.byte	$50
	.byte	$50
	.byte	$50
	.byte	$50
	.byte	$50
	.byte	$50
	.byte	$50
	.byte	$50
	.byte	$50
	.byte	$50
	.byte	$50
	.byte	$50
	.byte	$50
	.byte	$50
	.byte	$50
	.byte	$50
	.byte	$50
	.byte	$50
	.byte	$50
	.byte	$50
	.byte	$50
	.byte	$50
	.byte	$50
	.byte	$50
	.byte	$50
	.byte	$50
	.byte	$50
	.byte	$50
	.byte	$50
	.byte	$DD
	.byte	$DC
	.byte	$DE
	.byte	$50
	.byte	$50
	.byte	$50
	.byte	$50
	.byte	$50
	.byte	$50
	.byte	$50
	.byte	$50
	.byte	$50
	.byte	$50
	.byte	$50
	.byte	$50
	.byte	$50
	.byte	$50
	.byte	$50
	.byte	$50
	.byte	$50
	.byte	$D1
	.byte	$D3
	.byte	$50
	.byte	$50
	.byte	$C5
	.byte	$D1
	.byte	$D3
	.byte	$E0
	.byte	$E1
	.byte	$E2
	.byte	$50
	.byte	$50
	.byte	$50
	.byte	$50
	.byte	$D1
	.byte	$D2
	.byte	$D5
	.byte	$0E
	.byte	$50
	.byte	$D0
	.byte	$D4
	.byte	$D6
	.byte	$D7
	.byte	$EC
	.byte	$EB
	.byte	$EA
	.byte	$E3
	.byte	$50
	.byte	$50
	.byte	$D0
	.byte	$D5
	.byte	$D4
	.byte	$D4
	.byte	$00
	.byte	$D2
	.byte	$D4
	.byte	$D4
	.byte	$D6
	.byte	$D9
	.byte	$DA
	.byte	$EE
	.byte	$E9
	.byte	$E9
	.byte	$E4
	.byte	$E5
	.byte	$E6
	.byte	$D4
	.byte	$0F
	.byte	$0C
	.byte	$02
	.byte	$D6
	.byte	$D4
	.byte	$D6
	.byte	$D6
	.byte	$D6
	.byte	$D8
	.byte	$DA
	.byte	$EF
	.byte	$E9
	.byte	$E9
	.byte	$EB
	.byte	$EA
	.byte	$E7
	.byte	$3C
	.byte	$12
	.byte	$3A
	.byte	$0E
	.byte	$07
	.byte	$04
	.byte	$06
	.byte	$04
	.byte	$0C
	.byte	$D8
	.byte	$DB
	.byte	$EE
	.byte	$0E
	.byte	$0C
	.byte	$E9
	.byte	$EB
	.byte	$12
	.byte	$10
	.byte	$12
	.byte	$00
	.byte	$3C
	.byte	$12
	.byte	$02
	.byte	$10
	.byte	$01
	.byte	$AA
	.byte	$B0
	.byte	$B0
	.byte	$00
	.byte	$01
	.byte	$AA
	.byte	$B0
	.byte	$00
	.byte	$01
	.byte	$3C
	.byte	$02
	.byte	$3A
	.byte	$3B
	.byte	$10
	.byte	$12
	.byte	$11
	.byte	$B0
	.byte	$B0
	.byte	$A9
	.byte	$02
	.byte	$03
	.byte	$B0
	.byte	$A7
	.byte	$02
	.byte	$02
	.byte	$10
	.byte	$00
	.byte	$01
	.byte	$3C
	.byte	$3A
	.byte	$3B
	.byte	$01
	.byte	$B0
	.byte	$AA
	.byte	$B0
	.byte	$00
	.byte	$01
	.byte	$B0
	.byte	$B0
	.byte	$00
	.byte	$3C
	.byte	$00
	.byte	$02
	.byte	$03
	.byte	$10
	.byte	$3C
	.byte	$10
	.byte	$03
	.byte	$A6
	.byte	$A6
	.byte	$A6
	.byte	$02
	.byte	$03
	.byte	$A6
	.byte	$A6
	.byte	$02
	.byte	$01
	.byte	$02
	.byte	$38
	.byte	$37
	.byte	$37
	.byte	$38
	.byte	$37
	.byte	$38
	.byte	$3E
	.byte	$3E
	.byte	$3E
	.byte	$38
	.byte	$38
	.byte	$3E
	.byte	$3E
	.byte	$38
	.byte	$38
	.byte	$37
_LEVELTNG_9:
	.byte	$50
	.byte	$50
	.byte	$50
	.byte	$50
	.byte	$50
	.byte	$50
	.byte	$50
	.byte	$50
	.byte	$50
	.byte	$DD
	.byte	$DC
	.byte	$DC
	.byte	$DE
	.byte	$50
	.byte	$50
	.byte	$50
	.byte	$50
	.byte	$50
	.byte	$50
	.byte	$50
	.byte	$50
	.byte	$50
	.byte	$50
	.byte	$50
	.byte	$50
	.byte	$50
	.byte	$50
	.byte	$50
	.byte	$50
	.byte	$50
	.byte	$50
	.byte	$50
	.byte	$50
	.byte	$50
	.byte	$50
	.byte	$50
	.byte	$50
	.byte	$50
	.byte	$50
	.byte	$50
	.byte	$50
	.byte	$50
	.byte	$50
	.byte	$50
	.byte	$50
	.byte	$50
	.byte	$50
	.byte	$50
	.byte	$50
	.byte	$50
	.byte	$50
	.byte	$50
	.byte	$50
	.byte	$50
	.byte	$50
	.byte	$50
	.byte	$50
	.byte	$50
	.byte	$50
	.byte	$50
	.byte	$50
	.byte	$50
	.byte	$50
	.byte	$50
	.byte	$E3
	.byte	$AC
	.byte	$50
	.byte	$50
	.byte	$50
	.byte	$50
	.byte	$50
	.byte	$DD
	.byte	$DC
	.byte	$DE
	.byte	$50
	.byte	$50
	.byte	$50
	.byte	$50
	.byte	$50
	.byte	$50
	.byte	$0A
	.byte	$06
	.byte	$0C
	.byte	$50
	.byte	$50
	.byte	$50
	.byte	$50
	.byte	$50
	.byte	$50
	.byte	$50
	.byte	$50
	.byte	$50
	.byte	$50
	.byte	$D1
	.byte	$D3
	.byte	$E0
	.byte	$01
	.byte	$02
	.byte	$03
	.byte	$E4
	.byte	$E2
	.byte	$50
	.byte	$AC
	.byte	$50
	.byte	$50
	.byte	$50
	.byte	$50
	.byte	$C5
	.byte	$D0
	.byte	$D4
	.byte	$D9
	.byte	$EC
	.byte	$02
	.byte	$00
	.byte	$01
	.byte	$0E
	.byte	$0A
	.byte	$06
	.byte	$0D
	.byte	$50
	.byte	$50
	.byte	$D1
	.byte	$D2
	.byte	$D4
	.byte	$D6
	.byte	$D4
	.byte	$D6
	.byte	$DB
	.byte	$3B
	.byte	$02
	.byte	$03
	.byte	$00
	.byte	$01
	.byte	$02
	.byte	$11
	.byte	$E4
	.byte	$E5
	.byte	$E8
	.byte	$D6
	.byte	$D6
	.byte	$D4
	.byte	$D6
	.byte	$D4
	.byte	$D8
	.byte	$12
	.byte	$3C
	.byte	$01
	.byte	$02
	.byte	$03
	.byte	$00
	.byte	$3C
	.byte	$E9
	.byte	$EB
	.byte	$EB
	.byte	$E7
	.byte	$DF
	.byte	$D6
	.byte	$D4
	.byte	$D6
	.byte	$D9
	.byte	$01
	.byte	$3A
	.byte	$3B
	.byte	$00
	.byte	$3C
	.byte	$02
	.byte	$01
	.byte	$0E
	.byte	$0A
	.byte	$0C
	.byte	$A7
	.byte	$B0
	.byte	$B0
	.byte	$B0
	.byte	$AA
	.byte	$A9
	.byte	$03
	.byte	$00
	.byte	$10
	.byte	$02
	.byte	$10
	.byte	$01
	.byte	$02
	.byte	$3A
	.byte	$10
	.byte	$3C
	.byte	$B0
	.byte	$B0
	.byte	$B0
	.byte	$AB
	.byte	$B0
	.byte	$B0
	.byte	$01
	.byte	$02
	.byte	$10
	.byte	$3C
	.byte	$3C
	.byte	$03
	.byte	$00
	.byte	$3C
	.byte	$10
	.byte	$10
	.byte	$B0
	.byte	$AB
	.byte	$AA
	.byte	$B0
	.byte	$B0
	.byte	$AA
	.byte	$03
	.byte	$01
	.byte	$00
	.byte	$01
	.byte	$3A
	.byte	$3B
	.byte	$02
	.byte	$10
	.byte	$3C
	.byte	$12
	.byte	$A6
	.byte	$A6
	.byte	$A6
	.byte	$A6
	.byte	$0E
	.byte	$09
	.byte	$37
	.byte	$38
	.byte	$38
	.byte	$37
	.byte	$38
	.byte	$38
	.byte	$37
	.byte	$37
	.byte	$38
	.byte	$37
	.byte	$3E
	.byte	$3E
	.byte	$3E
	.byte	$3E
	.byte	$10
	.byte	$00
_LEVELTNG_10:
	.byte	$50
	.byte	$50
	.byte	$50
	.byte	$50
	.byte	$50
	.byte	$50
	.byte	$50
	.byte	$50
	.byte	$50
	.byte	$50
	.byte	$3D
	.byte	$00
	.byte	$3C
	.byte	$02
	.byte	$03
	.byte	$02
	.byte	$50
	.byte	$50
	.byte	$50
	.byte	$50
	.byte	$50
	.byte	$50
	.byte	$50
	.byte	$50
	.byte	$50
	.byte	$50
	.byte	$3D
	.byte	$02
	.byte	$10
	.byte	$10
	.byte	$01
	.byte	$00
	.byte	$50
	.byte	$50
	.byte	$50
	.byte	$50
	.byte	$50
	.byte	$50
	.byte	$50
	.byte	$50
	.byte	$50
	.byte	$50
	.byte	$3D
	.byte	$00
	.byte	$3A
	.byte	$3B
	.byte	$03
	.byte	$02
	.byte	$50
	.byte	$50
	.byte	$50
	.byte	$50
	.byte	$DD
	.byte	$DE
	.byte	$50
	.byte	$50
	.byte	$50
	.byte	$50
	.byte	$3D
	.byte	$02
	.byte	$3C
	.byte	$00
	.byte	$01
	.byte	$00
	.byte	$50
	.byte	$50
	.byte	$50
	.byte	$50
	.byte	$50
	.byte	$50
	.byte	$50
	.byte	$50
	.byte	$AD
	.byte	$50
	.byte	$3D
	.byte	$00
	.byte	$10
	.byte	$03
	.byte	$02
	.byte	$02
	.byte	$E1
	.byte	$E2
	.byte	$50
	.byte	$50
	.byte	$50
	.byte	$50
	.byte	$3D
	.byte	$0E
	.byte	$05
	.byte	$07
	.byte	$0D
	.byte	$02
	.byte	$01
	.byte	$00
	.byte	$3A
	.byte	$3B
	.byte	$E9
	.byte	$EB
	.byte	$E3
	.byte	$50
	.byte	$50
	.byte	$50
	.byte	$3D
	.byte	$3C
	.byte	$03
	.byte	$00
	.byte	$01
	.byte	$10
	.byte	$12
	.byte	$02
	.byte	$3C
	.byte	$00
	.byte	$ED
	.byte	$EF
	.byte	$EB
	.byte	$E3
	.byte	$50
	.byte	$50
	.byte	$3D
	.byte	$00
	.byte	$01
	.byte	$02
	.byte	$03
	.byte	$00
	.byte	$01
	.byte	$11
	.byte	$10
	.byte	$02
	.byte	$DB
	.byte	$DB
	.byte	$EB
	.byte	$EB
	.byte	$E3
	.byte	$AC
	.byte	$3D
	.byte	$02
	.byte	$03
	.byte	$3C
	.byte	$01
	.byte	$02
	.byte	$03
	.byte	$3A
	.byte	$3B
	.byte	$00
	.byte	$DA
	.byte	$DB
	.byte	$EF
	.byte	$EB
	.byte	$0F
	.byte	$07
	.byte	$0D
	.byte	$00
	.byte	$01
	.byte	$10
	.byte	$02
	.byte	$00
	.byte	$01
	.byte	$3C
	.byte	$01
	.byte	$02
	.byte	$A7
	.byte	$B0
	.byte	$AA
	.byte	$AB
	.byte	$3C
	.byte	$10
	.byte	$10
	.byte	$02
	.byte	$03
	.byte	$3C
	.byte	$10
	.byte	$02
	.byte	$03
	.byte	$00
	.byte	$02
	.byte	$25
	.byte	$B0
	.byte	$0F
	.byte	$08
	.byte	$0C
	.byte	$00
	.byte	$12
	.byte	$3C
	.byte	$00
	.byte	$01
	.byte	$10
	.byte	$00
	.byte	$3C
	.byte	$01
	.byte	$02
	.byte	$25
	.byte	$20
	.byte	$B0
	.byte	$00
	.byte	$03
	.byte	$00
	.byte	$02
	.byte	$10
	.byte	$3C
	.byte	$02
	.byte	$03
	.byte	$00
	.byte	$02
	.byte	$10
	.byte	$02
	.byte	$25
	.byte	$20
	.byte	$20
	.byte	$0D
	.byte	$02
	.byte	$01
	.byte	$02
	.byte	$11
	.byte	$3C
	.byte	$10
	.byte	$00
	.byte	$10
	.byte	$02
	.byte	$25
	.byte	$21
	.byte	$21
	.byte	$20
	.byte	$20
	.byte	$20
	.byte	$01
	.byte	$10
	.byte	$01
	.byte	$3A
	.byte	$3B
	.byte	$10
	.byte	$01
	.byte	$02
	.byte	$25
	.byte	$21
	.byte	$20
	.byte	$20
	.byte	$20
	.byte	$20
	.byte	$20
	.byte	$20
_Leveltng2_0:
	.byte	$50
	.byte	$50
	.byte	$50
	.byte	$50
	.byte	$50
	.byte	$50
	.byte	$50
	.byte	$50
	.byte	$50
	.byte	$50
	.byte	$50
	.byte	$50
	.byte	$50
	.byte	$3D
	.byte	$3A
	.byte	$3B
	.byte	$50
	.byte	$50
	.byte	$DD
	.byte	$DC
	.byte	$DC
	.byte	$DE
	.byte	$50
	.byte	$50
	.byte	$50
	.byte	$50
	.byte	$50
	.byte	$50
	.byte	$50
	.byte	$3D
	.byte	$3C
	.byte	$11
	.byte	$50
	.byte	$50
	.byte	$50
	.byte	$50
	.byte	$50
	.byte	$50
	.byte	$50
	.byte	$50
	.byte	$50
	.byte	$50
	.byte	$50
	.byte	$50
	.byte	$50
	.byte	$3D
	.byte	$00
	.byte	$01
	.byte	$50
	.byte	$50
	.byte	$50
	.byte	$50
	.byte	$50
	.byte	$50
	.byte	$50
	.byte	$50
	.byte	$AC
	.byte	$50
	.byte	$50
	.byte	$50
	.byte	$50
	.byte	$50
	.byte	$02
	.byte	$03
	.byte	$50
	.byte	$50
	.byte	$50
	.byte	$50
	.byte	$50
	.byte	$50
	.byte	$0E
	.byte	$06
	.byte	$07
	.byte	$08
	.byte	$0C
	.byte	$50
	.byte	$50
	.byte	$58
	.byte	$00
	.byte	$01
	.byte	$50
	.byte	$50
	.byte	$0E
	.byte	$07
	.byte	$3D
	.byte	$0C
	.byte	$00
	.byte	$02
	.byte	$00
	.byte	$01
	.byte	$03
	.byte	$0E
	.byte	$06
	.byte	$0D
	.byte	$02
	.byte	$03
	.byte	$50
	.byte	$50
	.byte	$9B
	.byte	$10
	.byte	$3D
	.byte	$14
	.byte	$02
	.byte	$3C
	.byte	$02
	.byte	$03
	.byte	$01
	.byte	$3C
	.byte	$02
	.byte	$3C
	.byte	$3A
	.byte	$3B
	.byte	$50
	.byte	$50
	.byte	$50
	.byte	$9E
	.byte	$3D
	.byte	$9E
	.byte	$9B
	.byte	$82
	.byte	$84
	.byte	$51
	.byte	$C8
	.byte	$1A
	.byte	$3C
	.byte	$01
	.byte	$00
	.byte	$01
	.byte	$50
	.byte	$50
	.byte	$50
	.byte	$50
	.byte	$3D
	.byte	$50
	.byte	$50
	.byte	$50
	.byte	$50
	.byte	$9E
	.byte	$9B
	.byte	$51
	.byte	$C8
	.byte	$1A
	.byte	$02
	.byte	$03
	.byte	$50
	.byte	$50
	.byte	$50
	.byte	$50
	.byte	$3D
	.byte	$50
	.byte	$50
	.byte	$50
	.byte	$DD
	.byte	$DC
	.byte	$DE
	.byte	$9E
	.byte	$82
	.byte	$51
	.byte	$10
	.byte	$01
	.byte	$50
	.byte	$50
	.byte	$50
	.byte	$50
	.byte	$3D
	.byte	$50
	.byte	$50
	.byte	$50
	.byte	$50
	.byte	$50
	.byte	$50
	.byte	$50
	.byte	$50
	.byte	$9E
	.byte	$10
	.byte	$03
	.byte	$50
	.byte	$50
	.byte	$AD
	.byte	$50
	.byte	$3D
	.byte	$50
	.byte	$50
	.byte	$50
	.byte	$50
	.byte	$50
	.byte	$50
	.byte	$50
	.byte	$58
	.byte	$59
	.byte	$00
	.byte	$01
	.byte	$50
	.byte	$50
	.byte	$0E
	.byte	$04
	.byte	$05
	.byte	$07
	.byte	$08
	.byte	$0C
	.byte	$50
	.byte	$50
	.byte	$50
	.byte	$3D
	.byte	$08
	.byte	$0D
	.byte	$02
	.byte	$03
	.byte	$50
	.byte	$50
	.byte	$9B
	.byte	$10
	.byte	$02
	.byte	$3C
	.byte	$11
	.byte	$10
	.byte	$50
	.byte	$50
	.byte	$50
	.byte	$3D
	.byte	$3C
	.byte	$10
	.byte	$00
	.byte	$01
	.byte	$50
	.byte	$50
	.byte	$50
	.byte	$9E
	.byte	$81
	.byte	$81
	.byte	$9E
	.byte	$83
	.byte	$50
	.byte	$50
	.byte	$50
	.byte	$3D
	.byte	$11
	.byte	$3C
	.byte	$02
	.byte	$03
_Leveltng3_0:
	.byte	$50
	.byte	$50
	.byte	$50
	.byte	$50
	.byte	$50
	.byte	$50
	.byte	$50
	.byte	$50
	.byte	$50
	.byte	$50
	.byte	$50
	.byte	$50
	.byte	$50
	.byte	$50
	.byte	$50
	.byte	$50
	.byte	$50
	.byte	$DD
	.byte	$DC
	.byte	$DC
	.byte	$DE
	.byte	$50
	.byte	$50
	.byte	$50
	.byte	$50
	.byte	$50
	.byte	$50
	.byte	$50
	.byte	$50
	.byte	$50
	.byte	$50
	.byte	$50
	.byte	$50
	.byte	$50
	.byte	$50
	.byte	$50
	.byte	$50
	.byte	$50
	.byte	$50
	.byte	$50
	.byte	$50
	.byte	$50
	.byte	$50
	.byte	$50
	.byte	$50
	.byte	$50
	.byte	$50
	.byte	$50
	.byte	$50
	.byte	$50
	.byte	$50
	.byte	$50
	.byte	$50
	.byte	$50
	.byte	$50
	.byte	$50
	.byte	$50
	.byte	$50
	.byte	$50
	.byte	$50
	.byte	$50
	.byte	$DD
	.byte	$DC
	.byte	$DC
	.byte	$50
	.byte	$50
	.byte	$50
	.byte	$50
	.byte	$50
	.byte	$50
	.byte	$50
	.byte	$50
	.byte	$50
	.byte	$50
	.byte	$50
	.byte	$50
	.byte	$50
	.byte	$50
	.byte	$50
	.byte	$50
	.byte	$50
	.byte	$50
	.byte	$50
	.byte	$50
	.byte	$50
	.byte	$50
	.byte	$50
	.byte	$50
	.byte	$50
	.byte	$50
	.byte	$50
	.byte	$50
	.byte	$50
	.byte	$50
	.byte	$50
	.byte	$50
	.byte	$50
	.byte	$50
	.byte	$50
	.byte	$50
	.byte	$50
	.byte	$DD
	.byte	$DC
	.byte	$DC
	.byte	$DC
	.byte	$DC
	.byte	$DE
	.byte	$50
	.byte	$50
	.byte	$50
	.byte	$50
	.byte	$50
	.byte	$50
	.byte	$50
	.byte	$50
	.byte	$50
	.byte	$50
	.byte	$50
	.byte	$50
	.byte	$50
	.byte	$50
	.byte	$50
	.byte	$50
	.byte	$50
	.byte	$50
	.byte	$50
	.byte	$50
	.byte	$50
	.byte	$50
	.byte	$50
	.byte	$50
	.byte	$50
	.byte	$50
	.byte	$50
	.byte	$50
	.byte	$50
	.byte	$50
	.byte	$50
	.byte	$50
	.byte	$50
	.byte	$50
	.byte	$50
	.byte	$50
	.byte	$50
	.byte	$50
	.byte	$50
	.byte	$50
	.byte	$50
	.byte	$50
	.byte	$50
	.byte	$50
	.byte	$50
	.byte	$50
	.byte	$50
	.byte	$50
	.byte	$50
	.byte	$50
	.byte	$50
	.byte	$50
	.byte	$50
	.byte	$50
	.byte	$50
	.byte	$50
	.byte	$50
	.byte	$50
	.byte	$50
	.byte	$50
	.byte	$50
	.byte	$50
	.byte	$50
	.byte	$50
	.byte	$50
	.byte	$50
	.byte	$50
	.byte	$50
	.byte	$50
	.byte	$50
	.byte	$DD
	.byte	$DC
	.byte	$DC
	.byte	$DE
	.byte	$50
	.byte	$50
	.byte	$50
	.byte	$AC
	.byte	$50
	.byte	$50
	.byte	$50
	.byte	$50
	.byte	$AD
	.byte	$50
	.byte	$59
	.byte	$50
	.byte	$50
	.byte	$50
	.byte	$50
	.byte	$50
	.byte	$50
	.byte	$0E
	.byte	$09
	.byte	$0A
	.byte	$07
	.byte	$04
	.byte	$06
	.byte	$04
	.byte	$3D
	.byte	$09
	.byte	$0C
	.byte	$50
	.byte	$50
	.byte	$50
	.byte	$50
	.byte	$50
	.byte	$50
	.byte	$9B
	.byte	$3A
	.byte	$3B
	.byte	$3A
	.byte	$3B
	.byte	$03
	.byte	$01
	.byte	$3D
	.byte	$10
	.byte	$03
	.byte	$50
	.byte	$50
	.byte	$50
	.byte	$50
	.byte	$50
	.byte	$50
	.byte	$50
	.byte	$9E
	.byte	$9B
	.byte	$10
	.byte	$3C
	.byte	$3C
	.byte	$03
	.byte	$3D
	.byte	$00
	.byte	$01
_Leveltng3_1:
	.byte	$50
	.byte	$50
	.byte	$50
	.byte	$50
	.byte	$50
	.byte	$50
	.byte	$50
	.byte	$50
	.byte	$50
	.byte	$50
	.byte	$50
	.byte	$50
	.byte	$50
	.byte	$50
	.byte	$50
	.byte	$50
	.byte	$50
	.byte	$50
	.byte	$50
	.byte	$50
	.byte	$50
	.byte	$50
	.byte	$50
	.byte	$50
	.byte	$50
	.byte	$50
	.byte	$50
	.byte	$50
	.byte	$50
	.byte	$50
	.byte	$50
	.byte	$50
	.byte	$50
	.byte	$50
	.byte	$50
	.byte	$50
	.byte	$50
	.byte	$50
	.byte	$DD
	.byte	$DC
	.byte	$DC
	.byte	$DC
	.byte	$DC
	.byte	$DC
	.byte	$DE
	.byte	$50
	.byte	$50
	.byte	$50
	.byte	$DE
	.byte	$50
	.byte	$50
	.byte	$50
	.byte	$50
	.byte	$50
	.byte	$50
	.byte	$50
	.byte	$50
	.byte	$50
	.byte	$50
	.byte	$50
	.byte	$50
	.byte	$50
	.byte	$50
	.byte	$50
	.byte	$50
	.byte	$50
	.byte	$50
	.byte	$50
	.byte	$50
	.byte	$50
	.byte	$50
	.byte	$50
	.byte	$50
	.byte	$50
	.byte	$50
	.byte	$50
	.byte	$50
	.byte	$50
	.byte	$50
	.byte	$50
	.byte	$50
	.byte	$50
	.byte	$50
	.byte	$50
	.byte	$50
	.byte	$50
	.byte	$50
	.byte	$50
	.byte	$50
	.byte	$50
	.byte	$50
	.byte	$50
	.byte	$50
	.byte	$50
	.byte	$50
	.byte	$50
	.byte	$50
	.byte	$50
	.byte	$50
	.byte	$50
	.byte	$50
	.byte	$50
	.byte	$50
	.byte	$50
	.byte	$50
	.byte	$50
	.byte	$50
	.byte	$50
	.byte	$50
	.byte	$50
	.byte	$50
	.byte	$50
	.byte	$50
	.byte	$DD
	.byte	$DC
	.byte	$DC
	.byte	$DC
	.byte	$DC
	.byte	$DE
	.byte	$50
	.byte	$50
	.byte	$50
	.byte	$50
	.byte	$50
	.byte	$50
	.byte	$DD
	.byte	$DC
	.byte	$DE
	.byte	$50
	.byte	$50
	.byte	$50
	.byte	$50
	.byte	$50
	.byte	$50
	.byte	$50
	.byte	$50
	.byte	$50
	.byte	$50
	.byte	$50
	.byte	$50
	.byte	$50
	.byte	$50
	.byte	$50
	.byte	$50
	.byte	$50
	.byte	$50
	.byte	$50
	.byte	$50
	.byte	$50
	.byte	$50
	.byte	$50
	.byte	$50
	.byte	$50
	.byte	$AC
	.byte	$50
	.byte	$50
	.byte	$50
	.byte	$50
	.byte	$50
	.byte	$50
	.byte	$50
	.byte	$50
	.byte	$50
	.byte	$58
	.byte	$50
	.byte	$50
	.byte	$50
	.byte	$50
	.byte	$50
	.byte	$0E
	.byte	$0D
	.byte	$50
	.byte	$50
	.byte	$0F
	.byte	$0C
	.byte	$50
	.byte	$0F
	.byte	$06
	.byte	$09
	.byte	$06
	.byte	$05
	.byte	$05
	.byte	$0C
	.byte	$50
	.byte	$50
	.byte	$11
	.byte	$10
	.byte	$50
	.byte	$50
	.byte	$3C
	.byte	$12
	.byte	$50
	.byte	$10
	.byte	$02
	.byte	$00
	.byte	$01
	.byte	$02
	.byte	$00
	.byte	$3C
	.byte	$50
	.byte	$50
	.byte	$83
	.byte	$9E
	.byte	$50
	.byte	$50
	.byte	$81
	.byte	$AF
	.byte	$50
	.byte	$00
	.byte	$01
	.byte	$02
	.byte	$03
	.byte	$00
	.byte	$3C
	.byte	$00
	.byte	$C7
	.byte	$C7
	.byte	$C7
	.byte	$C7
	.byte	$C7
	.byte	$C7
	.byte	$C7
	.byte	$C7
	.byte	$C7
	.byte	$02
	.byte	$03
	.byte	$3C
	.byte	$10
	.byte	$02
	.byte	$10
	.byte	$02
	.byte	$3F
	.byte	$3F
	.byte	$3F
	.byte	$3F
	.byte	$3F
	.byte	$3F
	.byte	$3F
	.byte	$3F
	.byte	$3F
_Leveltng3_2:
	.byte	$50
	.byte	$50
	.byte	$50
	.byte	$50
	.byte	$50
	.byte	$50
	.byte	$50
	.byte	$50
	.byte	$50
	.byte	$50
	.byte	$50
	.byte	$50
	.byte	$50
	.byte	$50
	.byte	$50
	.byte	$50
	.byte	$50
	.byte	$50
	.byte	$50
	.byte	$50
	.byte	$50
	.byte	$50
	.byte	$DD
	.byte	$DC
	.byte	$DE
	.byte	$50
	.byte	$50
	.byte	$50
	.byte	$50
	.byte	$50
	.byte	$50
	.byte	$50
	.byte	$50
	.byte	$50
	.byte	$50
	.byte	$50
	.byte	$50
	.byte	$50
	.byte	$50
	.byte	$50
	.byte	$50
	.byte	$50
	.byte	$50
	.byte	$50
	.byte	$50
	.byte	$50
	.byte	$50
	.byte	$50
	.byte	$50
	.byte	$50
	.byte	$50
	.byte	$50
	.byte	$50
	.byte	$50
	.byte	$50
	.byte	$50
	.byte	$50
	.byte	$50
	.byte	$50
	.byte	$50
	.byte	$DD
	.byte	$DE
	.byte	$50
	.byte	$50
	.byte	$50
	.byte	$50
	.byte	$DD
	.byte	$DC
	.byte	$DC
	.byte	$DE
	.byte	$50
	.byte	$50
	.byte	$50
	.byte	$50
	.byte	$50
	.byte	$50
	.byte	$50
	.byte	$50
	.byte	$50
	.byte	$50
	.byte	$50
	.byte	$50
	.byte	$50
	.byte	$50
	.byte	$50
	.byte	$50
	.byte	$95
	.byte	$99
	.byte	$7B
	.byte	$50
	.byte	$50
	.byte	$50
	.byte	$50
	.byte	$50
	.byte	$50
	.byte	$50
	.byte	$50
	.byte	$50
	.byte	$50
	.byte	$50
	.byte	$AC
	.byte	$50
	.byte	$7A
	.byte	$8D
	.byte	$7D
	.byte	$50
	.byte	$50
	.byte	$50
	.byte	$50
	.byte	$50
	.byte	$50
	.byte	$50
	.byte	$50
	.byte	$50
	.byte	$50
	.byte	$0E
	.byte	$06
	.byte	$07
	.byte	$08
	.byte	$09
	.byte	$0D
	.byte	$50
	.byte	$50
	.byte	$50
	.byte	$50
	.byte	$50
	.byte	$50
	.byte	$DD
	.byte	$50
	.byte	$50
	.byte	$58
	.byte	$10
	.byte	$02
	.byte	$00
	.byte	$01
	.byte	$3C
	.byte	$11
	.byte	$50
	.byte	$50
	.byte	$50
	.byte	$50
	.byte	$50
	.byte	$50
	.byte	$50
	.byte	$50
	.byte	$0E
	.byte	$0C
	.byte	$10
	.byte	$3C
	.byte	$02
	.byte	$01
	.byte	$00
	.byte	$01
	.byte	$50
	.byte	$50
	.byte	$50
	.byte	$50
	.byte	$AC
	.byte	$50
	.byte	$50
	.byte	$50
	.byte	$AF
	.byte	$84
	.byte	$51
	.byte	$10
	.byte	$10
	.byte	$03
	.byte	$00
	.byte	$10
	.byte	$50
	.byte	$50
	.byte	$50
	.byte	$0E
	.byte	$05
	.byte	$08
	.byte	$0C
	.byte	$50
	.byte	$50
	.byte	$50
	.byte	$AF
	.byte	$03
	.byte	$3A
	.byte	$3B
	.byte	$02
	.byte	$3C
	.byte	$50
	.byte	$50
	.byte	$50
	.byte	$11
	.byte	$02
	.byte	$10
	.byte	$12
	.byte	$50
	.byte	$59
	.byte	$58
	.byte	$59
	.byte	$01
	.byte	$10
	.byte	$3C
	.byte	$00
	.byte	$01
	.byte	$50
	.byte	$50
	.byte	$50
	.byte	$81
	.byte	$83
	.byte	$83
	.byte	$83
	.byte	$C7
	.byte	$0E
	.byte	$05
	.byte	$0C
	.byte	$03
	.byte	$00
	.byte	$01
	.byte	$02
	.byte	$03
	.byte	$C7
	.byte	$C7
	.byte	$C7
	.byte	$C7
	.byte	$C7
	.byte	$C7
	.byte	$C7
	.byte	$3F
	.byte	$10
	.byte	$03
	.byte	$00
	.byte	$01
	.byte	$02
	.byte	$3A
	.byte	$3B
	.byte	$01
	.byte	$3F
	.byte	$3F
	.byte	$3F
	.byte	$3F
	.byte	$3F
	.byte	$3F
	.byte	$3F
_Leveltng3_3:
	.byte	$50
	.byte	$50
	.byte	$50
	.byte	$50
	.byte	$50
	.byte	$50
	.byte	$50
	.byte	$50
	.byte	$50
	.byte	$50
	.byte	$50
	.byte	$50
	.byte	$50
	.byte	$50
	.byte	$50
	.byte	$50
	.byte	$50
	.byte	$50
	.byte	$50
	.byte	$50
	.byte	$50
	.byte	$50
	.byte	$50
	.byte	$50
	.byte	$50
	.byte	$50
	.byte	$50
	.byte	$50
	.byte	$50
	.byte	$50
	.byte	$50
	.byte	$50
	.byte	$50
	.byte	$50
	.byte	$50
	.byte	$DD
	.byte	$DC
	.byte	$DC
	.byte	$DC
	.byte	$DE
	.byte	$50
	.byte	$50
	.byte	$50
	.byte	$50
	.byte	$50
	.byte	$50
	.byte	$50
	.byte	$50
	.byte	$50
	.byte	$50
	.byte	$50
	.byte	$50
	.byte	$50
	.byte	$50
	.byte	$50
	.byte	$50
	.byte	$50
	.byte	$50
	.byte	$50
	.byte	$50
	.byte	$50
	.byte	$50
	.byte	$50
	.byte	$50
	.byte	$50
	.byte	$50
	.byte	$50
	.byte	$50
	.byte	$50
	.byte	$50
	.byte	$50
	.byte	$50
	.byte	$50
	.byte	$50
	.byte	$50
	.byte	$50
	.byte	$50
	.byte	$50
	.byte	$50
	.byte	$50
	.byte	$50
	.byte	$50
	.byte	$50
	.byte	$50
	.byte	$50
	.byte	$50
	.byte	$50
	.byte	$50
	.byte	$DD
	.byte	$DC
	.byte	$DC
	.byte	$DE
	.byte	$50
	.byte	$50
	.byte	$50
	.byte	$50
	.byte	$50
	.byte	$50
	.byte	$50
	.byte	$50
	.byte	$50
	.byte	$50
	.byte	$50
	.byte	$50
	.byte	$50
	.byte	$50
	.byte	$50
	.byte	$50
	.byte	$50
	.byte	$50
	.byte	$50
	.byte	$50
	.byte	$DC
	.byte	$DC
	.byte	$DC
	.byte	$DE
	.byte	$50
	.byte	$50
	.byte	$50
	.byte	$50
	.byte	$50
	.byte	$50
	.byte	$50
	.byte	$50
	.byte	$50
	.byte	$50
	.byte	$50
	.byte	$50
	.byte	$50
	.byte	$50
	.byte	$50
	.byte	$50
	.byte	$50
	.byte	$50
	.byte	$50
	.byte	$50
	.byte	$50
	.byte	$50
	.byte	$50
	.byte	$50
	.byte	$50
	.byte	$50
	.byte	$50
	.byte	$50
	.byte	$50
	.byte	$50
	.byte	$50
	.byte	$50
	.byte	$50
	.byte	$50
	.byte	$50
	.byte	$50
	.byte	$50
	.byte	$50
	.byte	$50
	.byte	$DD
	.byte	$DC
	.byte	$DC
	.byte	$DE
	.byte	$50
	.byte	$50
	.byte	$50
	.byte	$50
	.byte	$50
	.byte	$50
	.byte	$50
	.byte	$50
	.byte	$50
	.byte	$50
	.byte	$50
	.byte	$50
	.byte	$50
	.byte	$50
	.byte	$50
	.byte	$50
	.byte	$50
	.byte	$50
	.byte	$50
	.byte	$50
	.byte	$50
	.byte	$50
	.byte	$50
	.byte	$50
	.byte	$50
	.byte	$50
	.byte	$50
	.byte	$50
	.byte	$50
	.byte	$50
	.byte	$50
	.byte	$50
	.byte	$50
	.byte	$50
	.byte	$50
	.byte	$50
	.byte	$50
	.byte	$50
	.byte	$AC
	.byte	$AD
	.byte	$50
	.byte	$50
	.byte	$50
	.byte	$50
	.byte	$3D
	.byte	$50
	.byte	$50
	.byte	$50
	.byte	$50
	.byte	$C7
	.byte	$C7
	.byte	$C7
	.byte	$0F
	.byte	$06
	.byte	$07
	.byte	$06
	.byte	$08
	.byte	$0C
	.byte	$58
	.byte	$59
	.byte	$3D
	.byte	$50
	.byte	$50
	.byte	$50
	.byte	$50
	.byte	$3F
	.byte	$3F
	.byte	$3F
	.byte	$10
	.byte	$03
	.byte	$10
	.byte	$03
	.byte	$3A
	.byte	$3B
	.byte	$0E
	.byte	$08
	.byte	$3D
	.byte	$50
	.byte	$50
	.byte	$50
	.byte	$50
_Leveltng4_0:
	.byte	$10
	.byte	$3C
	.byte	$01
	.byte	$00
	.byte	$01
	.byte	$3C
	.byte	$10
	.byte	$00
	.byte	$01
	.byte	$00
	.byte	$01
	.byte	$3D
	.byte	$E3
	.byte	$50
	.byte	$50
	.byte	$50
	.byte	$3A
	.byte	$3B
	.byte	$03
	.byte	$02
	.byte	$03
	.byte	$3A
	.byte	$3B
	.byte	$02
	.byte	$03
	.byte	$02
	.byte	$03
	.byte	$3D
	.byte	$C8
	.byte	$E3
	.byte	$50
	.byte	$50
	.byte	$00
	.byte	$12
	.byte	$00
	.byte	$12
	.byte	$3C
	.byte	$12
	.byte	$11
	.byte	$01
	.byte	$10
	.byte	$00
	.byte	$01
	.byte	$3D
	.byte	$CE
	.byte	$C8
	.byte	$0E
	.byte	$0D
	.byte	$00
	.byte	$01
	.byte	$13
	.byte	$16
	.byte	$15
	.byte	$51
	.byte	$51
	.byte	$CB
	.byte	$1B
	.byte	$02
	.byte	$13
	.byte	$3D
	.byte	$51
	.byte	$51
	.byte	$10
	.byte	$3C
	.byte	$02
	.byte	$03
	.byte	$15
	.byte	$51
	.byte	$51
	.byte	$CE
	.byte	$51
	.byte	$51
	.byte	$51
	.byte	$51
	.byte	$CA
	.byte	$51
	.byte	$51
	.byte	$CF
	.byte	$3A
	.byte	$3B
	.byte	$00
	.byte	$11
	.byte	$CF
	.byte	$51
	.byte	$51
	.byte	$51
	.byte	$51
	.byte	$51
	.byte	$51
	.byte	$51
	.byte	$51
	.byte	$51
	.byte	$CE
	.byte	$51
	.byte	$10
	.byte	$12
	.byte	$02
	.byte	$3C
	.byte	$51
	.byte	$51
	.byte	$CA
	.byte	$51
	.byte	$CD
	.byte	$51
	.byte	$CE
	.byte	$51
	.byte	$51
	.byte	$51
	.byte	$51
	.byte	$51
	.byte	$00
	.byte	$01
	.byte	$00
	.byte	$01
	.byte	$51
	.byte	$51
	.byte	$51
	.byte	$51
	.byte	$51
	.byte	$51
	.byte	$51
	.byte	$CD
	.byte	$51
	.byte	$51
	.byte	$0E
	.byte	$0C
	.byte	$02
	.byte	$03
	.byte	$02
	.byte	$03
	.byte	$51
	.byte	$51
	.byte	$51
	.byte	$CA
	.byte	$51
	.byte	$51
	.byte	$51
	.byte	$51
	.byte	$51
	.byte	$CD
	.byte	$3A
	.byte	$3B
	.byte	$01
	.byte	$10
	.byte	$3C
	.byte	$01
	.byte	$51
	.byte	$3D
	.byte	$0E
	.byte	$06
	.byte	$06
	.byte	$07
	.byte	$08
	.byte	$09
	.byte	$0A
	.byte	$0D
	.byte	$10
	.byte	$01
	.byte	$02
	.byte	$01
	.byte	$10
	.byte	$03
	.byte	$51
	.byte	$3D
	.byte	$10
	.byte	$03
	.byte	$02
	.byte	$3C
	.byte	$01
	.byte	$3C
	.byte	$10
	.byte	$3A
	.byte	$3B
	.byte	$03
	.byte	$00
	.byte	$03
	.byte	$01
	.byte	$14
	.byte	$51
	.byte	$3D
	.byte	$51
	.byte	$51
	.byte	$19
	.byte	$16
	.byte	$17
	.byte	$11
	.byte	$10
	.byte	$12
	.byte	$11
	.byte	$01
	.byte	$17
	.byte	$19
	.byte	$03
	.byte	$15
	.byte	$51
	.byte	$3D
	.byte	$51
	.byte	$C9
	.byte	$51
	.byte	$51
	.byte	$51
	.byte	$CA
	.byte	$1A
	.byte	$14
	.byte	$CF
	.byte	$51
	.byte	$51
	.byte	$51
	.byte	$10
	.byte	$CF
	.byte	$51
	.byte	$3D
	.byte	$51
	.byte	$CC
	.byte	$CD
	.byte	$51
	.byte	$51
	.byte	$51
	.byte	$51
	.byte	$51
	.byte	$51
	.byte	$51
	.byte	$51
	.byte	$CE
	.byte	$3C
	.byte	$51
	.byte	$51
	.byte	$3D
	.byte	$51
	.byte	$51
	.byte	$51
	.byte	$CF
	.byte	$51
	.byte	$51
	.byte	$51
	.byte	$CA
	.byte	$51
	.byte	$CB
	.byte	$51
	.byte	$51
_Leveltng5_0:
	.byte	$3C
	.byte	$CE
	.byte	$51
	.byte	$3D
	.byte	$CB
	.byte	$CE
	.byte	$51
	.byte	$51
	.byte	$CB
	.byte	$C9
	.byte	$CA
	.byte	$10
	.byte	$00
	.byte	$01
	.byte	$10
	.byte	$12
	.byte	$10
	.byte	$51
	.byte	$51
	.byte	$3D
	.byte	$51
	.byte	$51
	.byte	$51
	.byte	$CD
	.byte	$51
	.byte	$51
	.byte	$CE
	.byte	$19
	.byte	$02
	.byte	$03
	.byte	$11
	.byte	$10
	.byte	$01
	.byte	$CA
	.byte	$51
	.byte	$3D
	.byte	$51
	.byte	$C9
	.byte	$CE
	.byte	$51
	.byte	$CE
	.byte	$51
	.byte	$51
	.byte	$51
	.byte	$16
	.byte	$10
	.byte	$10
	.byte	$3A
	.byte	$02
	.byte	$0F
	.byte	$0D
	.byte	$3D
	.byte	$51
	.byte	$51
	.byte	$51
	.byte	$51
	.byte	$51
	.byte	$51
	.byte	$CB
	.byte	$C9
	.byte	$CE
	.byte	$19
	.byte	$18
	.byte	$10
	.byte	$12
	.byte	$10
	.byte	$3C
	.byte	$3D
	.byte	$51
	.byte	$CE
	.byte	$CA
	.byte	$51
	.byte	$CF
	.byte	$51
	.byte	$51
	.byte	$51
	.byte	$CE
	.byte	$51
	.byte	$51
	.byte	$1A
	.byte	$00
	.byte	$01
	.byte	$11
	.byte	$3D
	.byte	$51
	.byte	$CF
	.byte	$51
	.byte	$51
	.byte	$51
	.byte	$CE
	.byte	$CD
	.byte	$CA
	.byte	$51
	.byte	$51
	.byte	$CD
	.byte	$51
	.byte	$02
	.byte	$03
	.byte	$00
	.byte	$0E
	.byte	$0B
	.byte	$06
	.byte	$05
	.byte	$0D
	.byte	$51
	.byte	$51
	.byte	$CA
	.byte	$51
	.byte	$CD
	.byte	$51
	.byte	$51
	.byte	$51
	.byte	$00
	.byte	$01
	.byte	$02
	.byte	$03
	.byte	$10
	.byte	$02
	.byte	$02
	.byte	$10
	.byte	$51
	.byte	$C9
	.byte	$CE
	.byte	$51
	.byte	$51
	.byte	$51
	.byte	$51
	.byte	$51
	.byte	$02
	.byte	$03
	.byte	$00
	.byte	$01
	.byte	$00
	.byte	$10
	.byte	$10
	.byte	$11
	.byte	$CC
	.byte	$CD
	.byte	$51
	.byte	$51
	.byte	$51
	.byte	$C9
	.byte	$CA
	.byte	$51
	.byte	$00
	.byte	$01
	.byte	$02
	.byte	$03
	.byte	$02
	.byte	$00
	.byte	$01
	.byte	$01
	.byte	$0E
	.byte	$07
	.byte	$08
	.byte	$09
	.byte	$0A
	.byte	$0B
	.byte	$0C
	.byte	$CA
	.byte	$26
	.byte	$03
	.byte	$00
	.byte	$01
	.byte	$10
	.byte	$02
	.byte	$03
	.byte	$02
	.byte	$3A
	.byte	$3B
	.byte	$01
	.byte	$00
	.byte	$12
	.byte	$01
	.byte	$11
	.byte	$CF
	.byte	$20
	.byte	$26
	.byte	$02
	.byte	$03
	.byte	$12
	.byte	$10
	.byte	$00
	.byte	$3A
	.byte	$3B
	.byte	$10
	.byte	$03
	.byte	$02
	.byte	$10
	.byte	$03
	.byte	$3C
	.byte	$51
	.byte	$20
	.byte	$20
	.byte	$21
	.byte	$26
	.byte	$10
	.byte	$11
	.byte	$10
	.byte	$12
	.byte	$11
	.byte	$10
	.byte	$11
	.byte	$01
	.byte	$10
	.byte	$3C
	.byte	$01
	.byte	$51
	.byte	$20
	.byte	$20
	.byte	$20
	.byte	$20
	.byte	$21
	.byte	$26
	.byte	$11
	.byte	$10
	.byte	$00
	.byte	$01
	.byte	$10
	.byte	$10
	.byte	$00
	.byte	$01
	.byte	$10
	.byte	$0E
	.byte	$20
	.byte	$20
	.byte	$20
	.byte	$20
	.byte	$20
	.byte	$20
	.byte	$21
	.byte	$21
	.byte	$21
	.byte	$21
	.byte	$26
	.byte	$01
	.byte	$02
	.byte	$03
	.byte	$00
	.byte	$01
_Leveltng5_1:
	.byte	$10
	.byte	$11
	.byte	$1E
	.byte	$1F
	.byte	$50
	.byte	$50
	.byte	$50
	.byte	$50
	.byte	$50
	.byte	$50
	.byte	$50
	.byte	$50
	.byte	$50
	.byte	$50
	.byte	$50
	.byte	$50
	.byte	$3C
	.byte	$00
	.byte	$01
	.byte	$1E
	.byte	$50
	.byte	$50
	.byte	$50
	.byte	$50
	.byte	$50
	.byte	$50
	.byte	$50
	.byte	$50
	.byte	$50
	.byte	$50
	.byte	$50
	.byte	$50
	.byte	$3B
	.byte	$02
	.byte	$03
	.byte	$10
	.byte	$50
	.byte	$50
	.byte	$DD
	.byte	$DC
	.byte	$DC
	.byte	$DE
	.byte	$50
	.byte	$50
	.byte	$50
	.byte	$50
	.byte	$50
	.byte	$50
	.byte	$00
	.byte	$01
	.byte	$00
	.byte	$01
	.byte	$1F
	.byte	$50
	.byte	$50
	.byte	$50
	.byte	$50
	.byte	$50
	.byte	$50
	.byte	$50
	.byte	$50
	.byte	$50
	.byte	$50
	.byte	$50
	.byte	$02
	.byte	$03
	.byte	$02
	.byte	$03
	.byte	$1E
	.byte	$1F
	.byte	$50
	.byte	$50
	.byte	$50
	.byte	$50
	.byte	$50
	.byte	$50
	.byte	$50
	.byte	$50
	.byte	$50
	.byte	$50
	.byte	$1A
	.byte	$10
	.byte	$10
	.byte	$00
	.byte	$01
	.byte	$1E
	.byte	$50
	.byte	$50
	.byte	$50
	.byte	$50
	.byte	$50
	.byte	$50
	.byte	$C5
	.byte	$D1
	.byte	$D3
	.byte	$E1
	.byte	$CE
	.byte	$51
	.byte	$1A
	.byte	$02
	.byte	$03
	.byte	$11
	.byte	$50
	.byte	$50
	.byte	$50
	.byte	$50
	.byte	$50
	.byte	$D0
	.byte	$D5
	.byte	$D4
	.byte	$D7
	.byte	$ED
	.byte	$51
	.byte	$51
	.byte	$51
	.byte	$1A
	.byte	$11
	.byte	$14
	.byte	$E3
	.byte	$50
	.byte	$50
	.byte	$D1
	.byte	$D2
	.byte	$D5
	.byte	$D6
	.byte	$D4
	.byte	$D9
	.byte	$DB
	.byte	$51
	.byte	$CE
	.byte	$51
	.byte	$51
	.byte	$51
	.byte	$CB
	.byte	$C8
	.byte	$E4
	.byte	$E5
	.byte	$D4
	.byte	$D4
	.byte	$D6
	.byte	$D6
	.byte	$D6
	.byte	$D4
	.byte	$DA
	.byte	$51
	.byte	$51
	.byte	$51
	.byte	$C9
	.byte	$CE
	.byte	$C8
	.byte	$51
	.byte	$EB
	.byte	$C8
	.byte	$E7
	.byte	$DF
	.byte	$D6
	.byte	$D6
	.byte	$D6
	.byte	$D6
	.byte	$D8
	.byte	$CA
	.byte	$CA
	.byte	$51
	.byte	$CB
	.byte	$CE
	.byte	$51
	.byte	$CE
	.byte	$51
	.byte	$C8
	.byte	$CF
	.byte	$C8
	.byte	$A4
	.byte	$B3
	.byte	$AA
	.byte	$A9
	.byte	$AA
	.byte	$51
	.byte	$51
	.byte	$51
	.byte	$51
	.byte	$51
	.byte	$51
	.byte	$51
	.byte	$51
	.byte	$51
	.byte	$51
	.byte	$CF
	.byte	$EB
	.byte	$A4
	.byte	$A1
	.byte	$B0
	.byte	$7E
	.byte	$CE
	.byte	$51
	.byte	$51
	.byte	$CF
	.byte	$51
	.byte	$51
	.byte	$CF
	.byte	$51
	.byte	$51
	.byte	$CA
	.byte	$51
	.byte	$54
	.byte	$A3
	.byte	$A2
	.byte	$A7
	.byte	$5C
	.byte	$05
	.byte	$04
	.byte	$05
	.byte	$0B
	.byte	$07
	.byte	$05
	.byte	$04
	.byte	$05
	.byte	$07
	.byte	$09
	.byte	$05
	.byte	$0D
	.byte	$35
	.byte	$33
	.byte	$33
	.byte	$34
	.byte	$02
	.byte	$3C
	.byte	$02
	.byte	$01
	.byte	$10
	.byte	$02
	.byte	$00
	.byte	$02
	.byte	$10
	.byte	$00
	.byte	$14
	.byte	$39
	.byte	$37
	.byte	$37
	.byte	$37
	.byte	$37
_Leveltng5_2:
	.byte	$50
	.byte	$50
	.byte	$50
	.byte	$50
	.byte	$50
	.byte	$50
	.byte	$50
	.byte	$50
	.byte	$50
	.byte	$50
	.byte	$50
	.byte	$50
	.byte	$50
	.byte	$50
	.byte	$50
	.byte	$96
	.byte	$DD
	.byte	$DC
	.byte	$DE
	.byte	$50
	.byte	$50
	.byte	$50
	.byte	$50
	.byte	$50
	.byte	$50
	.byte	$50
	.byte	$50
	.byte	$50
	.byte	$50
	.byte	$50
	.byte	$95
	.byte	$93
	.byte	$50
	.byte	$50
	.byte	$50
	.byte	$50
	.byte	$50
	.byte	$50
	.byte	$50
	.byte	$50
	.byte	$50
	.byte	$50
	.byte	$DD
	.byte	$DC
	.byte	$DC
	.byte	$DE
	.byte	$92
	.byte	$92
	.byte	$50
	.byte	$50
	.byte	$50
	.byte	$50
	.byte	$50
	.byte	$50
	.byte	$50
	.byte	$50
	.byte	$50
	.byte	$50
	.byte	$50
	.byte	$50
	.byte	$50
	.byte	$50
	.byte	$90
	.byte	$92
	.byte	$50
	.byte	$50
	.byte	$50
	.byte	$50
	.byte	$50
	.byte	$50
	.byte	$50
	.byte	$50
	.byte	$50
	.byte	$50
	.byte	$50
	.byte	$50
	.byte	$50
	.byte	$50
	.byte	$92
	.byte	$92
	.byte	$E2
	.byte	$50
	.byte	$50
	.byte	$DD
	.byte	$DC
	.byte	$DE
	.byte	$50
	.byte	$50
	.byte	$50
	.byte	$50
	.byte	$50
	.byte	$50
	.byte	$50
	.byte	$50
	.byte	$85
	.byte	$93
	.byte	$EB
	.byte	$E3
	.byte	$50
	.byte	$50
	.byte	$50
	.byte	$50
	.byte	$50
	.byte	$50
	.byte	$50
	.byte	$50
	.byte	$50
	.byte	$50
	.byte	$50
	.byte	$50
	.byte	$9B
	.byte	$85
	.byte	$EF
	.byte	$EB
	.byte	$E3
	.byte	$50
	.byte	$50
	.byte	$D1
	.byte	$D3
	.byte	$E3
	.byte	$50
	.byte	$50
	.byte	$50
	.byte	$50
	.byte	$50
	.byte	$50
	.byte	$50
	.byte	$9B
	.byte	$DB
	.byte	$ED
	.byte	$EB
	.byte	$E4
	.byte	$E5
	.byte	$D5
	.byte	$D9
	.byte	$EF
	.byte	$E3
	.byte	$D1
	.byte	$D3
	.byte	$E4
	.byte	$E2
	.byte	$50
	.byte	$50
	.byte	$66
	.byte	$DB
	.byte	$DB
	.byte	$EF
	.byte	$E9
	.byte	$EB
	.byte	$E7
	.byte	$E6
	.byte	$D8
	.byte	$EC
	.byte	$E7
	.byte	$E8
	.byte	$EF
	.byte	$EE
	.byte	$E4
	.byte	$E2
	.byte	$58
	.byte	$AA
	.byte	$B0
	.byte	$A7
	.byte	$B0
	.byte	$AB
	.byte	$A7
	.byte	$7E
	.byte	$78
	.byte	$5F
	.byte	$AA
	.byte	$B0
	.byte	$B0
	.byte	$A7
	.byte	$A8
	.byte	$4D
	.byte	$63
	.byte	$7F
	.byte	$5F
	.byte	$B0
	.byte	$AA
	.byte	$B0
	.byte	$B0
	.byte	$5C
	.byte	$8C
	.byte	$5E
	.byte	$B0
	.byte	$A7
	.byte	$B0
	.byte	$B0
	.byte	$AB
	.byte	$4A
	.byte	$B4
	.byte	$8C
	.byte	$5E
	.byte	$AB
	.byte	$A7
	.byte	$B0
	.byte	$AA
	.byte	$AA
	.byte	$B0
	.byte	$A7
	.byte	$B0
	.byte	$AB
	.byte	$B0
	.byte	$AA
	.byte	$A7
	.byte	$B5
	.byte	$4A
	.byte	$34
	.byte	$33
	.byte	$33
	.byte	$34
	.byte	$34
	.byte	$34
	.byte	$34
	.byte	$34
	.byte	$34
	.byte	$34
	.byte	$34
	.byte	$33
	.byte	$34
	.byte	$33
	.byte	$33
	.byte	$34
	.byte	$37
	.byte	$37
	.byte	$37
	.byte	$37
	.byte	$37
	.byte	$37
	.byte	$37
	.byte	$37
	.byte	$37
	.byte	$37
	.byte	$37
	.byte	$37
	.byte	$37
	.byte	$37
	.byte	$37
	.byte	$37
_Leveltng5_3:
	.byte	$92
	.byte	$92
	.byte	$8E
	.byte	$91
	.byte	$99
	.byte	$7B
	.byte	$50
	.byte	$50
	.byte	$1D
	.byte	$1C
	.byte	$10
	.byte	$11
	.byte	$10
	.byte	$11
	.byte	$10
	.byte	$3A
	.byte	$92
	.byte	$93
	.byte	$92
	.byte	$8F
	.byte	$91
	.byte	$99
	.byte	$50
	.byte	$1D
	.byte	$1C
	.byte	$12
	.byte	$3A
	.byte	$3B
	.byte	$01
	.byte	$10
	.byte	$11
	.byte	$10
	.byte	$91
	.byte	$91
	.byte	$92
	.byte	$8E
	.byte	$93
	.byte	$8E
	.byte	$50
	.byte	$1C
	.byte	$02
	.byte	$11
	.byte	$10
	.byte	$10
	.byte	$03
	.byte	$00
	.byte	$01
	.byte	$10
	.byte	$93
	.byte	$92
	.byte	$92
	.byte	$8F
	.byte	$91
	.byte	$8F
	.byte	$1D
	.byte	$02
	.byte	$10
	.byte	$00
	.byte	$01
	.byte	$10
	.byte	$10
	.byte	$02
	.byte	$03
	.byte	$10
	.byte	$92
	.byte	$91
	.byte	$90
	.byte	$8F
	.byte	$93
	.byte	$8E
	.byte	$1C
	.byte	$10
	.byte	$10
	.byte	$02
	.byte	$03
	.byte	$00
	.byte	$01
	.byte	$10
	.byte	$10
	.byte	$3C
	.byte	$92
	.byte	$91
	.byte	$8E
	.byte	$93
	.byte	$91
	.byte	$8F
	.byte	$02
	.byte	$00
	.byte	$01
	.byte	$3A
	.byte	$3B
	.byte	$02
	.byte	$03
	.byte	$11
	.byte	$10
	.byte	$10
	.byte	$8B
	.byte	$8B
	.byte	$88
	.byte	$88
	.byte	$8C
	.byte	$8B
	.byte	$10
	.byte	$02
	.byte	$03
	.byte	$12
	.byte	$11
	.byte	$10
	.byte	$10
	.byte	$10
	.byte	$14
	.byte	$51
	.byte	$62
	.byte	$9C
	.byte	$6A
	.byte	$73
	.byte	$9C
	.byte	$9B
	.byte	$1B
	.byte	$3A
	.byte	$3B
	.byte	$3A
	.byte	$3B
	.byte	$10
	.byte	$13
	.byte	$16
	.byte	$CF
	.byte	$51
	.byte	$61
	.byte	$67
	.byte	$68
	.byte	$70
	.byte	$77
	.byte	$50
	.byte	$9B
	.byte	$18
	.byte	$10
	.byte	$16
	.byte	$10
	.byte	$14
	.byte	$51
	.byte	$51
	.byte	$51
	.byte	$51
	.byte	$61
	.byte	$58
	.byte	$68
	.byte	$70
	.byte	$58
	.byte	$58
	.byte	$58
	.byte	$EB
	.byte	$CE
	.byte	$51
	.byte	$CE
	.byte	$51
	.byte	$CB
	.byte	$51
	.byte	$51
	.byte	$C3
	.byte	$64
	.byte	$65
	.byte	$68
	.byte	$55
	.byte	$75
	.byte	$51
	.byte	$53
	.byte	$C8
	.byte	$51
	.byte	$51
	.byte	$51
	.byte	$51
	.byte	$51
	.byte	$51
	.byte	$C1
	.byte	$C0
	.byte	$55
	.byte	$6B
	.byte	$6C
	.byte	$6D
	.byte	$57
	.byte	$51
	.byte	$57
	.byte	$C8
	.byte	$C8
	.byte	$51
	.byte	$51
	.byte	$CE
	.byte	$CF
	.byte	$51
	.byte	$51
	.byte	$C4
	.byte	$B4
	.byte	$55
	.byte	$51
	.byte	$53
	.byte	$57
	.byte	$57
	.byte	$53
	.byte	$51
	.byte	$53
	.byte	$C8
	.byte	$CB
	.byte	$51
	.byte	$51
	.byte	$51
	.byte	$51
	.byte	$51
	.byte	$33
	.byte	$36
	.byte	$0E
	.byte	$04
	.byte	$07
	.byte	$06
	.byte	$07
	.byte	$08
	.byte	$09
	.byte	$0A
	.byte	$0B
	.byte	$04
	.byte	$09
	.byte	$06
	.byte	$07
	.byte	$08
	.byte	$37
	.byte	$37
	.byte	$39
	.byte	$1A
	.byte	$10
	.byte	$03
	.byte	$12
	.byte	$13
	.byte	$12
	.byte	$13
	.byte	$11
	.byte	$12
	.byte	$10
	.byte	$03
	.byte	$10
	.byte	$11
_Leveltng5_4:
	.byte	$3B
	.byte	$00
	.byte	$3A
	.byte	$3B
	.byte	$01
	.byte	$00
	.byte	$01
	.byte	$10
	.byte	$00
	.byte	$01
	.byte	$00
	.byte	$3D
	.byte	$00
	.byte	$3A
	.byte	$3B
	.byte	$01
	.byte	$11
	.byte	$02
	.byte	$10
	.byte	$13
	.byte	$03
	.byte	$02
	.byte	$03
	.byte	$18
	.byte	$02
	.byte	$03
	.byte	$02
	.byte	$3D
	.byte	$02
	.byte	$10
	.byte	$3C
	.byte	$03
	.byte	$3C
	.byte	$01
	.byte	$14
	.byte	$CF
	.byte	$19
	.byte	$51
	.byte	$51
	.byte	$51
	.byte	$CB
	.byte	$51
	.byte	$1A
	.byte	$3D
	.byte	$14
	.byte	$1A
	.byte	$00
	.byte	$01
	.byte	$10
	.byte	$10
	.byte	$51
	.byte	$51
	.byte	$51
	.byte	$CF
	.byte	$51
	.byte	$C3
	.byte	$51
	.byte	$51
	.byte	$CB
	.byte	$3D
	.byte	$CA
	.byte	$51
	.byte	$02
	.byte	$10
	.byte	$10
	.byte	$51
	.byte	$CA
	.byte	$51
	.byte	$51
	.byte	$51
	.byte	$C1
	.byte	$C0
	.byte	$C2
	.byte	$51
	.byte	$51
	.byte	$3D
	.byte	$51
	.byte	$CF
	.byte	$00
	.byte	$01
	.byte	$18
	.byte	$51
	.byte	$CC
	.byte	$51
	.byte	$CE
	.byte	$51
	.byte	$51
	.byte	$C4
	.byte	$51
	.byte	$CF
	.byte	$51
	.byte	$3D
	.byte	$51
	.byte	$51
	.byte	$02
	.byte	$03
	.byte	$51
	.byte	$51
	.byte	$51
	.byte	$51
	.byte	$51
	.byte	$51
	.byte	$CA
	.byte	$51
	.byte	$51
	.byte	$51
	.byte	$51
	.byte	$3D
	.byte	$CE
	.byte	$12
	.byte	$00
	.byte	$01
	.byte	$51
	.byte	$CE
	.byte	$51
	.byte	$51
	.byte	$3D
	.byte	$0E
	.byte	$07
	.byte	$04
	.byte	$08
	.byte	$04
	.byte	$07
	.byte	$04
	.byte	$0D
	.byte	$00
	.byte	$02
	.byte	$01
	.byte	$51
	.byte	$CB
	.byte	$CE
	.byte	$51
	.byte	$3D
	.byte	$12
	.byte	$10
	.byte	$3C
	.byte	$01
	.byte	$10
	.byte	$3C
	.byte	$11
	.byte	$10
	.byte	$02
	.byte	$00
	.byte	$03
	.byte	$51
	.byte	$51
	.byte	$51
	.byte	$51
	.byte	$3D
	.byte	$14
	.byte	$CE
	.byte	$51
	.byte	$51
	.byte	$CE
	.byte	$1A
	.byte	$00
	.byte	$00
	.byte	$01
	.byte	$00
	.byte	$25
	.byte	$C2
	.byte	$51
	.byte	$51
	.byte	$51
	.byte	$3D
	.byte	$CA
	.byte	$51
	.byte	$51
	.byte	$51
	.byte	$51
	.byte	$51
	.byte	$1A
	.byte	$02
	.byte	$03
	.byte	$25
	.byte	$20
	.byte	$51
	.byte	$CF
	.byte	$51
	.byte	$51
	.byte	$3D
	.byte	$51
	.byte	$51
	.byte	$51
	.byte	$CF
	.byte	$51
	.byte	$51
	.byte	$10
	.byte	$00
	.byte	$00
	.byte	$23
	.byte	$20
	.byte	$51
	.byte	$51
	.byte	$51
	.byte	$CB
	.byte	$3D
	.byte	$51
	.byte	$CA
	.byte	$51
	.byte	$51
	.byte	$51
	.byte	$10
	.byte	$00
	.byte	$02
	.byte	$25
	.byte	$20
	.byte	$20
	.byte	$09
	.byte	$05
	.byte	$09
	.byte	$07
	.byte	$04
	.byte	$04
	.byte	$06
	.byte	$08
	.byte	$0D
	.byte	$3C
	.byte	$00
	.byte	$25
	.byte	$21
	.byte	$20
	.byte	$20
	.byte	$20
	.byte	$10
	.byte	$03
	.byte	$12
	.byte	$10
	.byte	$11
	.byte	$12
	.byte	$03
	.byte	$10
	.byte	$11
	.byte	$10
	.byte	$25
	.byte	$20
	.byte	$20
	.byte	$20
	.byte	$20
	.byte	$20
_Leveltng6_0:
	.byte	$00
	.byte	$00
	.byte	$10
	.byte	$11
	.byte	$12
	.byte	$00
	.byte	$3C
	.byte	$00
	.byte	$3C
	.byte	$01
	.byte	$51
	.byte	$3D
	.byte	$3C
	.byte	$00
	.byte	$01
	.byte	$10
	.byte	$10
	.byte	$02
	.byte	$00
	.byte	$10
	.byte	$00
	.byte	$02
	.byte	$3C
	.byte	$02
	.byte	$10
	.byte	$01
	.byte	$51
	.byte	$3D
	.byte	$10
	.byte	$02
	.byte	$03
	.byte	$01
	.byte	$02
	.byte	$10
	.byte	$02
	.byte	$3C
	.byte	$02
	.byte	$10
	.byte	$3C
	.byte	$3A
	.byte	$3B
	.byte	$03
	.byte	$51
	.byte	$3D
	.byte	$11
	.byte	$3A
	.byte	$3B
	.byte	$03
	.byte	$00
	.byte	$01
	.byte	$01
	.byte	$00
	.byte	$10
	.byte	$00
	.byte	$01
	.byte	$01
	.byte	$10
	.byte	$14
	.byte	$51
	.byte	$3D
	.byte	$00
	.byte	$10
	.byte	$3C
	.byte	$00
	.byte	$02
	.byte	$3A
	.byte	$3B
	.byte	$02
	.byte	$10
	.byte	$02
	.byte	$03
	.byte	$03
	.byte	$18
	.byte	$51
	.byte	$51
	.byte	$3D
	.byte	$02
	.byte	$3A
	.byte	$3B
	.byte	$02
	.byte	$10
	.byte	$00
	.byte	$01
	.byte	$00
	.byte	$00
	.byte	$00
	.byte	$14
	.byte	$51
	.byte	$C3
	.byte	$51
	.byte	$51
	.byte	$3D
	.byte	$00
	.byte	$01
	.byte	$00
	.byte	$01
	.byte	$12
	.byte	$02
	.byte	$03
	.byte	$10
	.byte	$03
	.byte	$02
	.byte	$51
	.byte	$C1
	.byte	$C0
	.byte	$C2
	.byte	$51
	.byte	$3D
	.byte	$02
	.byte	$03
	.byte	$02
	.byte	$03
	.byte	$00
	.byte	$01
	.byte	$00
	.byte	$10
	.byte	$01
	.byte	$00
	.byte	$51
	.byte	$51
	.byte	$C4
	.byte	$51
	.byte	$51
	.byte	$3D
	.byte	$3A
	.byte	$3B
	.byte	$10
	.byte	$01
	.byte	$02
	.byte	$10
	.byte	$02
	.byte	$10
	.byte	$03
	.byte	$02
	.byte	$10
	.byte	$51
	.byte	$51
	.byte	$51
	.byte	$51
	.byte	$3D
	.byte	$3C
	.byte	$10
	.byte	$10
	.byte	$03
	.byte	$10
	.byte	$01
	.byte	$10
	.byte	$01
	.byte	$3C
	.byte	$3B
	.byte	$00
	.byte	$01
	.byte	$11
	.byte	$51
	.byte	$51
	.byte	$3D
	.byte	$00
	.byte	$01
	.byte	$00
	.byte	$01
	.byte	$02
	.byte	$03
	.byte	$10
	.byte	$03
	.byte	$10
	.byte	$10
	.byte	$02
	.byte	$02
	.byte	$11
	.byte	$10
	.byte	$51
	.byte	$3D
	.byte	$02
	.byte	$03
	.byte	$02
	.byte	$10
	.byte	$10
	.byte	$3C
	.byte	$00
	.byte	$01
	.byte	$00
	.byte	$01
	.byte	$00
	.byte	$10
	.byte	$00
	.byte	$01
	.byte	$51
	.byte	$3D
	.byte	$00
	.byte	$01
	.byte	$00
	.byte	$01
	.byte	$3C
	.byte	$10
	.byte	$02
	.byte	$03
	.byte	$02
	.byte	$03
	.byte	$10
	.byte	$03
	.byte	$02
	.byte	$03
	.byte	$51
	.byte	$3D
	.byte	$02
	.byte	$3A
	.byte	$3B
	.byte	$03
	.byte	$10
	.byte	$10
	.byte	$12
	.byte	$01
	.byte	$3C
	.byte	$10
	.byte	$10
	.byte	$01
	.byte	$10
	.byte	$01
	.byte	$51
	.byte	$3D
	.byte	$00
	.byte	$01
	.byte	$00
	.byte	$01
	.byte	$11
	.byte	$3C
	.byte	$10
	.byte	$03
	.byte	$3C
	.byte	$10
	.byte	$03
	.byte	$03
	.byte	$10
	.byte	$03
	.byte	$51
	.byte	$3D
	.byte	$02
	.byte	$03
	.byte	$02
	.byte	$03
_Leveltng7_0:
	.byte	$02
	.byte	$02
	.byte	$3C
	.byte	$03
	.byte	$02
	.byte	$3A
	.byte	$3B
	.byte	$03
	.byte	$02
	.byte	$3C
	.byte	$10
	.byte	$02
	.byte	$03
	.byte	$3C
	.byte	$10
	.byte	$02
	.byte	$00
	.byte	$14
	.byte	$CF
	.byte	$CD
	.byte	$51
	.byte	$CE
	.byte	$51
	.byte	$51
	.byte	$51
	.byte	$CE
	.byte	$51
	.byte	$CD
	.byte	$51
	.byte	$CF
	.byte	$1A
	.byte	$00
	.byte	$02
	.byte	$CA
	.byte	$51
	.byte	$CB
	.byte	$51
	.byte	$51
	.byte	$51
	.byte	$CD
	.byte	$51
	.byte	$51
	.byte	$51
	.byte	$51
	.byte	$CB
	.byte	$51
	.byte	$CE
	.byte	$02
	.byte	$10
	.byte	$51
	.byte	$51
	.byte	$51
	.byte	$C3
	.byte	$51
	.byte	$CE
	.byte	$51
	.byte	$51
	.byte	$CB
	.byte	$51
	.byte	$C3
	.byte	$51
	.byte	$51
	.byte	$51
	.byte	$00
	.byte	$11
	.byte	$51
	.byte	$CC
	.byte	$C1
	.byte	$C0
	.byte	$C2
	.byte	$51
	.byte	$51
	.byte	$CF
	.byte	$51
	.byte	$C1
	.byte	$C0
	.byte	$C2
	.byte	$C9
	.byte	$51
	.byte	$02
	.byte	$12
	.byte	$CD
	.byte	$51
	.byte	$51
	.byte	$C4
	.byte	$51
	.byte	$CA
	.byte	$51
	.byte	$51
	.byte	$51
	.byte	$51
	.byte	$C4
	.byte	$51
	.byte	$CD
	.byte	$51
	.byte	$00
	.byte	$3C
	.byte	$51
	.byte	$CD
	.byte	$CC
	.byte	$51
	.byte	$51
	.byte	$51
	.byte	$51
	.byte	$CE
	.byte	$51
	.byte	$51
	.byte	$CB
	.byte	$51
	.byte	$51
	.byte	$51
	.byte	$02
	.byte	$00
	.byte	$51
	.byte	$CD
	.byte	$51
	.byte	$51
	.byte	$CD
	.byte	$51
	.byte	$51
	.byte	$51
	.byte	$51
	.byte	$CD
	.byte	$51
	.byte	$CF
	.byte	$51
	.byte	$CC
	.byte	$10
	.byte	$02
	.byte	$51
	.byte	$51
	.byte	$CC
	.byte	$51
	.byte	$51
	.byte	$CE
	.byte	$51
	.byte	$51
	.byte	$51
	.byte	$51
	.byte	$C9
	.byte	$CA
	.byte	$51
	.byte	$51
	.byte	$10
	.byte	$10
	.byte	$CF
	.byte	$51
	.byte	$51
	.byte	$CD
	.byte	$CF
	.byte	$51
	.byte	$51
	.byte	$51
	.byte	$CE
	.byte	$51
	.byte	$51
	.byte	$51
	.byte	$51
	.byte	$51
	.byte	$3A
	.byte	$3B
	.byte	$51
	.byte	$51
	.byte	$51
	.byte	$51
	.byte	$51
	.byte	$51
	.byte	$51
	.byte	$CF
	.byte	$51
	.byte	$51
	.byte	$51
	.byte	$CD
	.byte	$51
	.byte	$CE
	.byte	$3C
	.byte	$12
	.byte	$51
	.byte	$C9
	.byte	$CD
	.byte	$CF
	.byte	$CD
	.byte	$51
	.byte	$CC
	.byte	$51
	.byte	$51
	.byte	$CF
	.byte	$51
	.byte	$51
	.byte	$51
	.byte	$51
	.byte	$00
	.byte	$11
	.byte	$51
	.byte	$CC
	.byte	$CD
	.byte	$CB
	.byte	$51
	.byte	$51
	.byte	$51
	.byte	$51
	.byte	$51
	.byte	$51
	.byte	$CF
	.byte	$51
	.byte	$51
	.byte	$CF
	.byte	$02
	.byte	$10
	.byte	$CE
	.byte	$51
	.byte	$51
	.byte	$51
	.byte	$51
	.byte	$CD
	.byte	$CD
	.byte	$51
	.byte	$CD
	.byte	$51
	.byte	$51
	.byte	$CA
	.byte	$51
	.byte	$51
	.byte	$00
	.byte	$3C
	.byte	$0E
	.byte	$05
	.byte	$06
	.byte	$04
	.byte	$09
	.byte	$0A
	.byte	$05
	.byte	$04
	.byte	$05
	.byte	$04
	.byte	$3D
	.byte	$04
	.byte	$08
	.byte	$0D
	.byte	$02
_stage1_levels_list:
	.addr	_LEVELTNG_0
	.addr	_LEVELTNG_1
	.addr	_LEVELTNG_2
	.addr	_LEVELTNG_3
	.addr	_LEVELTNG_4
	.addr	_LEVELTNG_5
	.addr	_LEVELTNG_6
	.addr	_LEVELTNG_7
	.addr	_LEVELTNG_8
	.addr	_LEVELTNG_9
	.addr	_LEVELTNG_10
	.addr	_Leveltng2_0
	.addr	_Leveltng3_0
	.addr	_Leveltng3_1
	.addr	_Leveltng3_2
	.addr	_Leveltng3_3
	.addr	_Leveltng4_0
	.addr	_Leveltng5_0
	.addr	_Leveltng5_1
	.addr	_Leveltng5_2
	.addr	_Leveltng5_3
	.addr	_Leveltng5_4
	.addr	_Leveltng6_0
	.addr	_Leveltng7_0
_Level_max_rooms:
	.byte	$0B
	.byte	$01
	.byte	$04
	.byte	$01
	.byte	$05
	.byte	$01
	.byte	$01
_Level_offsets:
	.byte	$00
	.byte	$0B
	.byte	$0C
	.byte	$10
	.byte	$11
	.byte	$16
	.byte	$17
	.byte	$18
_level_1_enemies:
	.byte	$C0
	.byte	$01
	.byte	$C0
	.byte	$02
	.byte	$00
	.byte	$80
	.byte	$02
	.byte	$E0
	.byte	$02
	.byte	$00
	.byte	$80
	.byte	$04
	.byte	$30
	.byte	$02
	.byte	$00
	.byte	$FF
_Enemy_list:
	.addr	_level_1_enemies
_stage_1_transitions:
	.byte	$C0
	.byte	$0B
	.byte	$C0
	.byte	$FF

.segment	"BSS"

.segment	"ZEROPAGE"
_debug:
	.res	1,$00
_pad1:
	.res	1,$00
_pad1_new:
	.res	1,$00
_short_jump_count:
	.res	1,$00
_map_loaded:
	.res	1,$00
_collision:
	.res	1,$00
_player_in_air:
	.res	1,$00
_player_on_ladder:
	.res	1,$00
_player_in_hitstun:
	.res	1,$00
_player_jumping:
	.res	1,$00
_collision_L:
	.res	1,$00
_collision_R:
	.res	1,$00
_collision_U:
	.res	1,$00
_collision_D:
	.res	1,$00
_coordinates:
	.res	1,$00
_temp1:
	.res	1,$00
_temp2:
	.res	1,$00
_temp3:
	.res	1,$00
_temp4:
	.res	1,$00
_temp5:
	.res	2,$00
_temp6:
	.res	2,$00
_tempint:
	.res	2,$00
_temp_playerlocation:
	.res	2,$00
_temp_cmap1:
	.res	1,$00
_temp_cmap2:
	.res	1,$00
_level:
	.res	1,$00
_offset:
	.res	1,$00
_level_up:
	.res	1,$00
_eject_L:
	.res	1,$00
_eject_R:
	.res	1,$00
_eject_D:
	.res	1,$00
_eject_U:
	.res	1,$00
_sprite_frame_counter:
	.res	1,$00
_frame_counter:
	.res	1,$00
_address:
	.res	2,$00
_x:
	.res	1,$00
_y:
	.res	1,$00
_nt:
	.res	1,$00
_index:
	.res	1,$00
_index2:
	.res	1,$00
_map:
	.res	1,$00
_scroll_x:
	.res	2,$00
_scroll_y:
	.res	2,$00
_scroll_count:
	.res	1,$00
_pseudo_scroll_x:
	.res	2,$00
_song:
	.res	1,$00
_game_mode:
	.res	1,$00
_pointer:
	.res	2,$00
_l_scroll_frames:
	.res	1,$00
_r_scroll_frames:
	.res	1,$00
_old_x:
	.res	2,$00
_old_y:
	.res	2,$00
_bright:
	.res	1,$00
_bright_count:
	.res	1,$00
_temp_x:
	.res	1,$00
_temp_y:
	.res	1,$00
_temp_room:
	.res	1,$00
_player_shooting:
	.res	1,$00
_death:
	.res	1,$00
_invul_frames:
	.res	1,$00
_projectile_cooldown:
	.res	1,$00
_projectile_count:
	.res	1,$00
_projectile_index:
	.res	1,$00
.segment	"BSS"
_c_map:
	.res	240,$00
_c_map2:
	.res	240,$00
_Generic:
	.res	4,$00
_Generic2:
	.res	4,$00
_max_rooms:
	.res	1,$00
_max_scroll:
	.res	2,$00
_enemy_x:
	.res	16,$00
_enemy_y:
	.res	16,$00
_enemy_active:
	.res	16,$00
_enemy_health:
	.res	16,$00
_enemy_room:
	.res	16,$00
_enemy_actual_x:
	.res	16,$00
_enemy_type:
	.res	16,$00
_enemy_anim:
	.res	32,$00
_enemy_frames:
	.res	1,$00

; ---------------------------------------------------------------
; void __near__ load_room (void)
; ---------------------------------------------------------------

.segment	"CODE"

.proc	_load_room: near

.segment	"CODE"

;
; offset = Level_offsets[level];
;
	ldy     _level
	lda     _Level_offsets,y
	sta     _offset
;
; offset += room;
;
	lda     _room
	clc
	adc     _offset
	sta     _offset
;
; set_data_pointer(stage1_levels_list[offset]);
;
	ldx     #$00
	lda     _offset
	asl     a
	bcc     L3313
	inx
	clc
L3313:	adc     #<(_stage1_levels_list)
	sta     ptr1
	txa
	adc     #>(_stage1_levels_list)
	sta     ptr1+1
	ldy     #$01
	lda     (ptr1),y
	tax
	dey
	lda     (ptr1),y
	jsr     _set_data_pointer
;
; set_mt_pointer(metatile);
;
	lda     #<(_metatile)
	ldx     #>(_metatile)
	jsr     _set_mt_pointer
;
; for (y = 0;; y += 0x20)
;
	lda     #$00
L3311:	sta     _y
;
; for (x = 0;; x += 0x20)
;
	lda     #$00
L3310:	sta     _x
;
; address = get_ppu_addr(0, x, y);
;
	jsr     decsp2
	lda     #$00
	ldy     #$01
	sta     (sp),y
	lda     _x
	dey
	sta     (sp),y
	lda     _y
	jsr     _get_ppu_addr
	sta     _address
	stx     _address+1
;
; index = (y & 0xf0) + (x >> 4);
;
	lda     _y
	and     #$F0
	sta     ptr1
	lda     _x
	lsr     a
	lsr     a
	lsr     a
	lsr     a
	clc
	adc     ptr1
	sta     _index
;
; buffer_4_mt(address, index); // ppu_address, index to the data
;
	lda     _address
	ldx     _address+1
	jsr     pushax
	lda     _index
	jsr     _buffer_4_mt
;
; flush_vram_update2();
;
	jsr     _flush_vram_update2
;
; if (x == 0xe0)
;
	ldx     #$00
	lda     _x
	cmp     #$E0
;
; break;
;
	beq     L3315
;
; for (x = 0;; x += 0x20)
;
	lda     #$20
	clc
	adc     _x
	jmp     L3310
;
; if (y == 0xe0)
;
L3315:	lda     _y
	cmp     #$E0
;
; break;
;
	beq     L3316
;
; for (y = 0;; y += 0x20)
;
	lda     #$20
	clc
	adc     _y
	jmp     L3311
;
; set_data_pointer(stage1_levels_list[offset + 1]);
;
L3316:	lda     _offset
	clc
	adc     #$01
	bcc     L2E75
	inx
L2E75:	stx     tmp1
	asl     a
	rol     tmp1
	clc
	adc     #<(_stage1_levels_list)
	sta     ptr1
	lda     tmp1
	adc     #>(_stage1_levels_list)
	sta     ptr1+1
	ldy     #$01
	lda     (ptr1),y
	tax
	dey
	lda     (ptr1),y
	jsr     _set_data_pointer
;
; for (y = 0;; y += 0x20)
;
	lda     #$00
L3312:	sta     _y
;
; x = 0;
;
	lda     #$00
	sta     _x
;
; address = get_ppu_addr(1, x, y);
;
	jsr     decsp2
	lda     #$01
	tay
	sta     (sp),y
	lda     _x
	dey
	sta     (sp),y
	lda     _y
	jsr     _get_ppu_addr
	sta     _address
	stx     _address+1
;
; index = (y & 0xf0);
;
	lda     _y
	and     #$F0
	sta     _index
;
; buffer_4_mt(address, index); // ppu_address, index to the data
;
	lda     _address
	ldx     _address+1
	jsr     pushax
	lda     _index
	jsr     _buffer_4_mt
;
; flush_vram_update2();
;
	jsr     _flush_vram_update2
;
; if (y == 0xe0)
;
	lda     _y
	cmp     #$E0
;
; break;
;
	beq     L2E77
;
; for (y = 0;; y += 0x20)
;
	lda     #$20
	clc
	adc     _y
	jmp     L3312
;
; memcpy(c_map, stage1_levels_list[offset], 240);
;
L2E77:	lda     #<(_c_map)
	ldx     #>(_c_map)
	jsr     pushax
	ldx     #$00
	lda     _offset
	asl     a
	bcc     L3314
	inx
	clc
L3314:	adc     #<(_stage1_levels_list)
	sta     ptr1
	txa
	adc     #>(_stage1_levels_list)
	sta     ptr1+1
	ldy     #$01
	lda     (ptr1),y
	tax
	dey
	lda     (ptr1),y
	jsr     pushax
	ldx     #$00
	lda     #$F0
	jsr     _memcpy
;
; temp_cmap1 = 0;
;
	lda     #$00
	sta     _temp_cmap1
;
; max_rooms = Level_max_rooms[level] - 1;
;
	ldy     _level
	lda     _Level_max_rooms,y
	sec
	sbc     #$01
	sta     _max_rooms
;
; max_scroll = (max_rooms * 0x100) - 1;
;
	tax
	lda     #$00
	sec
	sbc     #$01
	bcs     L2E9D
	dex
L2E9D:	sta     _max_scroll
	stx     _max_scroll+1
;
; sprite_obj_init();
;
	jmp     _sprite_obj_init

.endproc

; ---------------------------------------------------------------
; void __near__ draw_sprites (void)
; ---------------------------------------------------------------

.segment	"CODE"

.proc	_draw_sprites: near

.segment	"CODE"

;
; oam_clear();
;
	jsr     _oam_clear
;
; draw_player_sprites();
;
	jsr     _draw_player_sprites
;
; for (temp1 = 0; temp1 < MAX_PROJECTILES; ++temp1)
;
	lda     #$00
	sta     _temp1
L3319:	lda     _temp1
	cmp     #$03
	bcs     L2EA3
;
; if (projectiles_list[temp1] != OFF)
;
	ldy     _temp1
	lda     _projectiles_list,y
	cmp     #$FF
	beq     L331A
;
; temp6 = projectiles_y[temp1]; //+ sine_wave[frame_counter % 10];
;
	ldy     _temp1
	lda     #$00
	sta     _temp6+1
	lda     _projectiles_y,y
	sta     _temp6
;
; oam_meta_spr(projectiles_x[temp1], temp6, animate_orb0_data);
;
	jsr     decsp2
	ldy     _temp1
	lda     _projectiles_x,y
	ldy     #$01
	sta     (sp),y
	lda     _temp6
	dey
	sta     (sp),y
	lda     #<(_animate_orb0_data)
	ldx     #>(_animate_orb0_data)
	jsr     _oam_meta_spr
;
; for (temp1 = 0; temp1 < MAX_PROJECTILES; ++temp1)
;
L331A:	inc     _temp1
	jmp     L3319
;
; offset = get_frame_count() & 3;
;
L2EA3:	jsr     _get_frame_count
	and     #$03
	sta     _offset
;
; offset = offset << 4; // * 16, the size of the shuffle array
;
	asl     a
	asl     a
	asl     a
	asl     a
	sta     _offset
;
; for (index = 0; index < MAX_ENEMY; ++index)
;
	lda     #$00
	sta     _index
L331B:	lda     _index
	cmp     #$10
	jcs     L331E
;
; index2 = shuffle_array[offset];
;
	ldy     _offset
	lda     _shuffle_array,y
	sta     _index2
;
; ++offset;
;
	inc     _offset
;
; temp_y = enemy_y[index2];
;
	ldy     _index2
	lda     _enemy_y,y
	sta     _temp_y
;
; if (enemy_health[index2] == 0)
;
	ldy     _index2
	lda     _enemy_health,y
;
; continue;
;
	beq     L331D
;
; if (temp_y == TURN_OFF)
;
	lda     _temp_y
	cmp     #$FF
;
; continue;
;
	beq     L331D
;
; if (!enemy_active[index2])
;
	ldy     _index2
	lda     _enemy_active,y
;
; continue;
;
	beq     L331D
;
; temp_x = enemy_x[index2];
;
	ldy     _index2
	lda     _enemy_x,y
	sta     _temp_x
;
; if (temp_x == 0)
;
	lda     _temp_x
	bne     L331C
;
; temp_x = 1; // problems with x = 0
;
	lda     #$01
	sta     _temp_x
;
; if (temp_x > 0xf0)
;
L331C:	lda     _temp_x
	cmp     #$F1
;
; continue;
;
	bcs     L331D
;
; if (temp_y < 0xf0)
;
	lda     _temp_y
	cmp     #$F0
	bcs     L331D
;
; oam_meta_spr(temp_x, temp_y, enemy_anim[index2]);
;
	jsr     decsp2
	lda     _temp_x
	ldy     #$01
	sta     (sp),y
	lda     _temp_y
	dey
	sta     (sp),y
	ldx     #$00
	lda     _index2
	asl     a
	bcc     L3318
	inx
	clc
L3318:	adc     #<(_enemy_anim)
	sta     ptr1
	txa
	adc     #>(_enemy_anim)
	sta     ptr1+1
	iny
	lda     (ptr1),y
	tax
	dey
	lda     (ptr1),y
	jsr     _oam_meta_spr
;
; for (index = 0; index < MAX_ENEMY; ++index)
;
L331D:	inc     _index
	jmp     L331B
;
; debug = 1;
;
L331E:	lda     #$01
	sta     _debug
;
; if (debug)
;
	lda     _debug
	bne     L331F
;
; }
;
	rts
;
; oam_spr(20, 010, 0x58, 1); // 0xfe = X
;
L331F:	jsr     decsp3
	lda     #$14
	ldy     #$02
	sta     (sp),y
	lda     #$08
	dey
	sta     (sp),y
	lda     #$58
	dey
	sta     (sp),y
	lda     #$01
	jsr     _oam_spr
;
; temp1 = (scroll_x) >> 8;
;
	lda     _scroll_x+1
	sta     _temp1
;
; oam_spr(28, 010, temp1 + 0x30, 1);
;
	jsr     decsp3
	lda     #$1C
	ldy     #$02
	sta     (sp),y
	lda     #$08
	dey
	sta     (sp),y
	lda     _temp1
	clc
	adc     #$30
	dey
	sta     (sp),y
	lda     #$01
	jsr     _oam_spr
;
; temp1 = (scroll_x & 0xff) >> 4;
;
	lda     _scroll_x
	lsr     a
	lsr     a
	lsr     a
	lsr     a
	sta     _temp1
;
; oam_spr(36, 010, temp1 + 0x30, 1);
;
	jsr     decsp3
	lda     #$24
	ldy     #$02
	sta     (sp),y
	lda     #$08
	dey
	sta     (sp),y
	lda     _temp1
	clc
	adc     #$30
	dey
	sta     (sp),y
	lda     #$01
	jsr     _oam_spr
;
; temp1 = (scroll_x & 0x0f);
;
	lda     _scroll_x
	and     #$0F
	sta     _temp1
;
; oam_spr(44, 010, temp1 + 0x30, 1);
;
	jsr     decsp3
	lda     #$2C
	ldy     #$02
	sta     (sp),y
	lda     #$08
	dey
	sta     (sp),y
	lda     _temp1
	clc
	adc     #$30
	dey
	sta     (sp),y
	lda     #$01
	jsr     _oam_spr
;
; temp1 = room;
;
	lda     _room
	sta     _temp1
;
; oam_spr(58, 010, 0x52, 1); // 0xfd = R
;
	jsr     decsp3
	lda     #$3A
	ldy     #$02
	sta     (sp),y
	lda     #$08
	dey
	sta     (sp),y
	lda     #$52
	dey
	sta     (sp),y
	lda     #$01
	jsr     _oam_spr
;
; oam_spr(66, 010, temp1 + 0x30, 1);
;
	jsr     decsp3
	lda     #$42
	ldy     #$02
	sta     (sp),y
	lda     #$08
	dey
	sta     (sp),y
	lda     _temp1
	clc
	adc     #$30
	dey
	sta     (sp),y
	lda     #$01
	jsr     _oam_spr
;
; oam_spr(20, 20, 0x58, 2); // 0xfe = X
;
	jsr     decsp3
	lda     #$14
	ldy     #$02
	sta     (sp),y
	dey
	sta     (sp),y
	lda     #$58
	dey
	sta     (sp),y
	lda     #$02
	jsr     _oam_spr
;
; temp1 = (BoxGuy1.x >> 8 & 0xff) >> 4;
;
	lda     _BoxGuy1+1
	lsr     a
	lsr     a
	lsr     a
	lsr     a
	sta     _temp1
;
; oam_spr(28, 20, temp1 + 0x30, 2);
;
	jsr     decsp3
	lda     #$1C
	ldy     #$02
	sta     (sp),y
	lda     #$14
	dey
	sta     (sp),y
	lda     _temp1
	clc
	adc     #$30
	dey
	sta     (sp),y
	lda     #$02
	jsr     _oam_spr
;
; temp1 = (BoxGuy1.x >> 8 & 0x0f);
;
	lda     _BoxGuy1+1
	and     #$0F
	sta     _temp1
;
; oam_spr(36, 20, temp1 + 0x30, 2);
;
	jsr     decsp3
	lda     #$24
	ldy     #$02
	sta     (sp),y
	lda     #$14
	dey
	sta     (sp),y
	lda     _temp1
	clc
	adc     #$30
	dey
	sta     (sp),y
	lda     #$02
	jsr     _oam_spr
;
; oam_spr(50, 20, 0xff, 2); // 0xff = Y
;
	jsr     decsp3
	lda     #$32
	ldy     #$02
	sta     (sp),y
	lda     #$14
	dey
	sta     (sp),y
	lda     #$FF
	dey
	sta     (sp),y
	lda     #$02
	jsr     _oam_spr
;
; oam_spr(58, 20, temp_cmap1 + 0x30, 2);
;
	jsr     decsp3
	lda     #$3A
	ldy     #$02
	sta     (sp),y
	lda     #$14
	dey
	sta     (sp),y
	lda     _temp_cmap1
	clc
	adc     #$30
	dey
	sta     (sp),y
	lda     #$02
	jsr     _oam_spr
;
; oam_spr(80, 20, temp_cmap2 + 0x30, 2);
;
	jsr     decsp3
	lda     #$50
	ldy     #$02
	sta     (sp),y
	lda     #$14
	dey
	sta     (sp),y
	lda     _temp_cmap2
	clc
	adc     #$30
	dey
	sta     (sp),y
	lda     #$02
	jmp     _oam_spr

.endproc

; ---------------------------------------------------------------
; void __near__ movement (void)
; ---------------------------------------------------------------

.segment	"CODE"

.proc	_movement: near

.segment	"CODE"

;
; if (player_in_hitstun > 0)
;
	lda     _player_in_hitstun
	beq     L2F49
;
; if (direction == LEFT)
;
	lda     _direction
	bne     L2F44
;
; BoxGuy1.vel_x += DECEL;
;
	lda     #$32
	clc
	adc     _BoxGuy1+4
	sta     _BoxGuy1+4
	bcc     L2F49
	inc     _BoxGuy1+4+1
;
; else
;
	jmp     L2F49
;
; BoxGuy1.vel_x -= DECEL;
;
L2F44:	lda     _BoxGuy1+4
	sec
	sbc     #$32
	sta     _BoxGuy1+4
	bcs     L2F49
	dec     _BoxGuy1+4+1
;
; old_x = BoxGuy1.x;
;
L2F49:	lda     _BoxGuy1+1
	sta     _old_x+1
	lda     _BoxGuy1
	sta     _old_x
;
; if (pad1 & PAD_LEFT && !player_in_hitstun)
;
	lda     _pad1
	and     #$02
	beq     L332C
	lda     _player_in_hitstun
	bne     L332C
;
; direction = LEFT;
;
	sta     _direction
;
; if (BoxGuy1.vel_x >= DECEL)
;
	lda     _BoxGuy1+4
	cmp     #$32
	lda     _BoxGuy1+4+1
	sbc     #$00
	bvs     L2F57
	eor     #$80
L2F57:	bpl     L2F55
;
; BoxGuy1.vel_x -= DECEL;
;
	lda     _BoxGuy1+4
	sec
	sbc     #$32
	sta     _BoxGuy1+4
	jcs     L2F93
	dec     _BoxGuy1+4+1
;
; else if (BoxGuy1.vel_x > 0)
;
	jmp     L2F93
L2F55:	lda     _BoxGuy1+4
	cmp     #$01
	lda     _BoxGuy1+4+1
	sbc     #$00
	bvs     L2F5E
	eor     #$80
L2F5E:	bpl     L2F5C
;
; BoxGuy1.vel_x = 0;
;
	ldx     #$00
	txa
;
; else
;
	jmp     L3331
;
; BoxGuy1.vel_x -= ACCEL;
;
L2F5C:	lda     _BoxGuy1+4
	sec
	sbc     #$1E
	sta     _BoxGuy1+4
	bcs     L2F64
	dec     _BoxGuy1+4+1
;
; if (BoxGuy1.vel_x < -MAX_SPEED)
;
L2F64:	lda     _BoxGuy1+4
	cmp     #$80
	lda     _BoxGuy1+4+1
	sbc     #$FE
	bvc     L2F67
	eor     #$80
L2F67:	jpl     L2F93
;
; BoxGuy1.vel_x = -MAX_SPEED;
;
	ldx     #$FE
	lda     #$80
;
; else if (pad1 & PAD_RIGHT && !player_in_hitstun)
;
	jmp     L3331
L332C:	lda     _pad1
	and     #$01
	beq     L2F6B
	lda     _player_in_hitstun
	bne     L2F6B
;
; direction = RIGHT;
;
	lda     #$01
	sta     _direction
;
; if (BoxGuy1.vel_x <= DECEL)
;
	lda     _BoxGuy1+4
	cmp     #$33
	lda     _BoxGuy1+4+1
	sbc     #$00
	bvc     L2F73
	eor     #$80
L2F73:	bpl     L2F71
;
; BoxGuy1.vel_x += DECEL;
;
	lda     #$32
	clc
	adc     _BoxGuy1+4
	sta     _BoxGuy1+4
	jcc     L2F93
	inc     _BoxGuy1+4+1
;
; else if (BoxGuy1.vel_x < 0)
;
	jmp     L2F93
L2F71:	ldx     _BoxGuy1+4+1
	cpx     #$80
	bcc     L2F78
;
; BoxGuy1.vel_x = 0;
;
	ldx     #$00
	txa
;
; else
;
	jmp     L3331
;
; BoxGuy1.vel_x += ACCEL;
;
L2F78:	lda     #$1E
	clc
	adc     _BoxGuy1+4
	sta     _BoxGuy1+4
	bcc     L2F7F
	inc     _BoxGuy1+4+1
;
; if (BoxGuy1.vel_x >= MAX_SPEED)
;
L2F7F:	lda     _BoxGuy1+4
	cmp     #$80
	lda     _BoxGuy1+4+1
	sbc     #$01
	bvs     L2F82
	eor     #$80
L2F82:	bpl     L2F93
;
; BoxGuy1.vel_x = MAX_SPEED;
;
	ldx     #$01
	lda     #$80
;
; else
;
	jmp     L3331
;
; if (BoxGuy1.vel_x >= ACCEL)
;
L2F6B:	lda     _BoxGuy1+4
	cmp     #$1E
	lda     _BoxGuy1+4+1
	sbc     #$00
	bvs     L2F88
	eor     #$80
L2F88:	bpl     L2F86
;
; BoxGuy1.vel_x -= ACCEL;
;
	lda     _BoxGuy1+4
	sec
	sbc     #$1E
	sta     _BoxGuy1+4
	bcs     L2F93
	dec     _BoxGuy1+4+1
;
; else if (BoxGuy1.vel_x < -ACCEL)
;
	jmp     L2F93
L2F86:	lda     _BoxGuy1+4
	cmp     #$E2
	lda     _BoxGuy1+4+1
	sbc     #$FF
	bvc     L2F8F
	eor     #$80
L2F8F:	asl     a
	lda     #$00
	tax
	bcc     L3331
;
; BoxGuy1.vel_x += ACCEL;
;
	lda     #$1E
	clc
	adc     _BoxGuy1+4
	sta     _BoxGuy1+4
	bcc     L2F93
	inc     _BoxGuy1+4+1
;
; else
;
	jmp     L2F93
;
; BoxGuy1.vel_x = 0;
;
L3331:	sta     _BoxGuy1+4
	stx     _BoxGuy1+4+1
;
; BoxGuy1.x += BoxGuy1.vel_x;
;
L2F93:	lda     _BoxGuy1+4
	clc
	adc     _BoxGuy1
	sta     _BoxGuy1
	lda     _BoxGuy1+4+1
	adc     _BoxGuy1+1
	sta     _BoxGuy1+1
;
; if (BoxGuy1.x > 0xf000)
;
	lda     _BoxGuy1
	cmp     #$01
	lda     _BoxGuy1+1
	sbc     #$F0
	bcc     L3334
;
; if (old_x >= 0x8000)
;
	lda     _old_x
	cmp     #$00
	lda     _old_x+1
	sbc     #$80
	lda     #$00
	tax
	bcc     L3333
;
; BoxGuy1.x = 0xf000; // max right
;
	ldx     #$F0
;
; BoxGuy1.x = 0x0000; // max left
;
L3333:	sta     _BoxGuy1
	stx     _BoxGuy1+1
;
; BoxGuy1.vel_x = 0;
;
	sta     _BoxGuy1+4
	sta     _BoxGuy1+4+1
;
; Generic.x = high_byte(BoxGuy1.x); // this is much faster than passing a pointer to BoxGuy1
;
L3334:	lda     _BoxGuy1+1
	sta     _Generic
;
; Generic.y = high_byte(BoxGuy1.y);
;
	lda     _BoxGuy1+3
	sta     _Generic+1
;
; Generic.width = HERO_WIDTH;
;
	lda     #$13
	sta     _Generic+2
;
; Generic.height = HERO_HEIGHT;
;
	lda     #$0E
	sta     _Generic+3
;
; if (BoxGuy1.y > 0xf000)
;
	lda     _BoxGuy1+2
	cmp     #$01
	lda     _BoxGuy1+2+1
	sbc     #$F0
	bcc     L2FAE
;
; ++level_up;
;
	inc     _level_up
;
; if (BoxGuy1.vel_x < 0)
;
L2FAE:	ldx     _BoxGuy1+4+1
	cpx     #$80
	bcc     L2FB1
;
; if (bg_coll_L())
;
	jsr     _bg_coll_L
	tax
	beq     L2FCB
;
; high_byte(BoxGuy1.x) = high_byte(BoxGuy1.x) - eject_L;
;
	lda     _BoxGuy1+1
	sec
	sbc     _eject_L
	sta     _BoxGuy1+1
;
; BoxGuy1.vel_x = 0;
;
	lda     #$00
	sta     _BoxGuy1+4
	sta     _BoxGuy1+4+1
;
; if (BoxGuy1.x > 0xf000)
;
	lda     _BoxGuy1
	cmp     #$01
	lda     _BoxGuy1+1
	sbc     #$F0
	bcc     L2FCB
;
; BoxGuy1.x = 0xf000;
;
	ldx     #$F0
;
; else if (BoxGuy1.vel_x > 0)
;
	jmp     L3354
L2FB1:	lda     _BoxGuy1+4
	cmp     #$01
	lda     _BoxGuy1+4+1
	sbc     #$00
	bvs     L2FC2
	eor     #$80
L2FC2:	bpl     L2FCB
;
; if (bg_coll_R())
;
	jsr     _bg_coll_R
	tax
	beq     L2FCB
;
; high_byte(BoxGuy1.x) = high_byte(BoxGuy1.x) - eject_R;
;
	lda     _BoxGuy1+1
	sec
	sbc     _eject_R
	sta     _BoxGuy1+1
;
; BoxGuy1.vel_x = 0;
;
	lda     #$00
	sta     _BoxGuy1+4
	sta     _BoxGuy1+4+1
;
; if (BoxGuy1.x > 0xf000)
;
	lda     _BoxGuy1
	cmp     #$01
	lda     _BoxGuy1+1
	sbc     #$F0
	bcc     L2FCB
;
; BoxGuy1.x = 0x0000;
;
	ldx     #$00
L3354:	lda     #$00
	sta     _BoxGuy1
	stx     _BoxGuy1+1
;
; if (player_on_ladder && bg_coll_ladder())
;
L2FCB:	lda     _player_on_ladder
	beq     L3339
	jsr     _bg_coll_ladder
	tax
	beq     L3339
;
; if (pad1 & PAD_DOWN)
;
	lda     _pad1
	and     #$04
	beq     L3335
;
; BoxGuy1.vel_y += ACCEL;
;
	lda     #$1E
	clc
	adc     _BoxGuy1+6
	sta     _BoxGuy1+6
	bcc     L2FD7
	inc     _BoxGuy1+6+1
;
; if (BoxGuy1.vel_y > MAX_LADDER_SPEED)
;
L2FD7:	lda     _BoxGuy1+6
	cmp     #$21
	lda     _BoxGuy1+6+1
	sbc     #$01
	bvs     L2FDA
	eor     #$80
L2FDA:	bpl     L2FFB
;
; BoxGuy1.vel_y = MAX_LADDER_SPEED;
;
	ldx     #$01
	lda     #$20
;
; else if (pad1 & PAD_UP)
;
	jmp     L3351
L3335:	lda     _pad1
	and     #$08
	beq     L3337
;
; BoxGuy1.vel_y -= ACCEL;
;
	lda     _BoxGuy1+6
	sec
	sbc     #$1E
	sta     _BoxGuy1+6
	bcs     L2FE2
	dec     _BoxGuy1+6+1
;
; if (BoxGuy1.vel_y < -MAX_LADDER_SPEED)
;
L2FE2:	lda     _BoxGuy1+6
	cmp     #$E0
	lda     _BoxGuy1+6+1
	sbc     #$FE
	bvc     L2FE5
	eor     #$80
L2FE5:	bpl     L2FFB
;
; BoxGuy1.vel_y = -MAX_LADDER_SPEED;
;
	ldx     #$FE
	lda     #$E0
;
; else
;
	jmp     L3351
;
; BoxGuy1.vel_y = 0;
;
L3337:	sta     _BoxGuy1+6
	sta     _BoxGuy1+6+1
;
; else
;
	jmp     L2FFB
;
; player_on_ladder = 0;
;
L3339:	sta     _player_on_ladder
;
; if (BoxGuy1.vel_y < 0x300)
;
	lda     _BoxGuy1+6
	cmp     #$00
	lda     _BoxGuy1+6+1
	sbc     #$03
	bvc     L2FF0
	eor     #$80
L2FF0:	bpl     L2FEE
;
; if (BoxGuy1.vel_y < 0)
;
	ldx     _BoxGuy1+6+1
	cpx     #$80
	lda     #$00
	bcc     L3326
;
; player_jumping = 1;
;
	lda     #$01
;
; player_jumping = 0;
;
L3326:	sta     _player_jumping
;
; BoxGuy1.vel_y += GRAVITY;
;
	lda     #$3C
	clc
	adc     _BoxGuy1+6
	sta     _BoxGuy1+6
	bcc     L2FFB
	inc     _BoxGuy1+6+1
;
; else
;
	jmp     L2FFB
;
; BoxGuy1.vel_y = 0x300; // consistent
;
L2FEE:	ldx     #$03
	lda     #$00
L3351:	sta     _BoxGuy1+6
	stx     _BoxGuy1+6+1
;
; BoxGuy1.y += BoxGuy1.vel_y; // add gravity to y; (make him go up or down)
;
L2FFB:	lda     _BoxGuy1+6
	clc
	adc     _BoxGuy1+2
	sta     _BoxGuy1+2
	lda     _BoxGuy1+6+1
	adc     _BoxGuy1+2+1
	sta     _BoxGuy1+2+1
;
; Generic.x = high_byte(BoxGuy1.x);
;
	lda     _BoxGuy1+1
	sta     _Generic
;
; Generic.y = high_byte(BoxGuy1.y);
;
	lda     _BoxGuy1+3
	sta     _Generic+1
;
; if (BoxGuy1.vel_y > 0) // he's falling
;
	lda     _BoxGuy1+6
	cmp     #$01
	lda     _BoxGuy1+6+1
	sbc     #$00
	bvs     L3008
	eor     #$80
L3008:	bpl     L3006
;
; if (bg_coll_D()) // if he's collising below
;
	jsr     _bg_coll_D
	tax
	beq     L333B
;
; player_in_air = 0;
;
	lda     #$00
	sta     _player_in_air
;
; player_on_ladder = 0;
;
	sta     _player_on_ladder
;
; high_byte(BoxGuy1.y) = high_byte(BoxGuy1.y) - eject_D;
;
	lda     _BoxGuy1+3
	sec
	sbc     _eject_D
	sta     _BoxGuy1+3
;
; BoxGuy1.y &= 0xff00;
;
	ldx     _BoxGuy1+2+1
	lda     #$00
	sta     _BoxGuy1+2
	stx     _BoxGuy1+2+1
;
; if (BoxGuy1.vel_y > 0)
;
	lda     _BoxGuy1+6
	cmp     #$01
	lda     _BoxGuy1+6+1
	sbc     #$00
	bvs     L3017
	eor     #$80
L3017:	bpl     L333B
;
; else if (BoxGuy1.vel_y < 0)
;
	jmp     L3355
L3006:	ldx     _BoxGuy1+6+1
	cpx     #$80
	bcc     L333B
;
; if (bg_coll_U())
;
	jsr     _bg_coll_U
	tax
	beq     L333B
;
; high_byte(BoxGuy1.y) = high_byte(BoxGuy1.y) - eject_U;
;
	lda     _BoxGuy1+3
	sec
	sbc     _eject_U
	sta     _BoxGuy1+3
;
; BoxGuy1.vel_y = 0;
;
L3355:	lda     #$00
	sta     _BoxGuy1+6
	sta     _BoxGuy1+6+1
;
; Generic.y = high_byte(BoxGuy1.y); // the rest should be the same
;
L333B:	lda     _BoxGuy1+3
	sta     _Generic+1
;
; if (projectile_cooldown > 0)
;
	lda     _projectile_cooldown
	beq     L333C
;
; --projectile_cooldown;
;
	dec     _projectile_cooldown
;
; if (pad1_new & PAD_UP)
;
L333C:	lda     _pad1_new
	and     #$08
	beq     L333D
;
; if (bg_coll_ladder())
;
	jsr     _bg_coll_ladder
	tax
	beq     L333D
;
; player_on_ladder = 1;
;
	lda     #$01
	sta     _player_on_ladder
;
; BoxGuy1.vel_y = 0;
;
	lda     #$00
	sta     _BoxGuy1+6
	sta     _BoxGuy1+6+1
;
; BoxGuy1.vel_x = 0;
;
	sta     _BoxGuy1+4
	sta     _BoxGuy1+4+1
;
; if (pad1_new & PAD_A)
;
L333D:	lda     _pad1_new
	and     #$80
	beq     L333E
;
; if (bg_coll_D2())
;
	jsr     _bg_coll_D2
	tax
	beq     L333E
;
; BoxGuy1.vel_y = JUMP_VEL; // JUMP
;
	ldx     #$FA
	lda     #$00
	sta     _BoxGuy1+6
	stx     _BoxGuy1+6+1
;
; short_jump_count = 1;
;
	lda     #$01
	sta     _short_jump_count
;
; player_in_air = 1;
;
	sta     _player_in_air
;
; player_jumping = 1;
;
	sta     _player_jumping
;
; if (pad1_new & PAD_B && projectile_cooldown == 0) // shooting
;
L333E:	lda     _pad1_new
	ldx     #$00
	and     #$40
	jeq     L3053
	lda     _projectile_cooldown
	jne     L3053
;
; for (temp1 = 0; temp1 < MAX_PROJECTILES; ++temp1)
;
	sta     _temp1
L3342:	lda     _temp1
	cmp     #$03
	bcs     L3046
;
; if (projectiles_list[temp1] == OFF)
;
	ldy     _temp1
	lda     _projectiles_list,y
	cmp     #$FF
	bne     L3343
;
; temp2 = 1;
;
	lda     #$01
	sta     _temp2
;
; break;
;
	jmp     L3046
;
; for (temp1 = 0; temp1 < MAX_PROJECTILES; ++temp1)
;
L3343:	inc     _temp1
	jmp     L3342
;
; if (temp2)
;
L3046:	lda     _temp2
	beq     L3053
;
; projectile_cooldown = PROJECTILE_COOLDOWN_FRAMES;
;
	lda     #$0A
	sta     _projectile_cooldown
;
; player_shooting = 1;
;
	lda     #$01
	sta     _player_shooting
;
; projectile_index = temp1;
;
	lda     _temp1
	sta     _projectile_index
;
; if (direction == RIGHT)
;
	lda     _direction
	cmp     #$01
	bne     L305B
;
; projectiles_list[projectile_index] = RIGHT;
;
	ldy     _projectile_index
;
; else
;
	jmp     L3328
;
; projectiles_list[projectile_index] = LEFT;
;
L305B:	ldy     _projectile_index
	lda     #$00
L3328:	sta     _projectiles_list,y
;
; projectiles_x[projectile_index] = high_byte(BoxGuy1.x) + 10;
;
	lda     #<(_projectiles_x)
	ldx     #>(_projectiles_x)
	clc
	adc     _projectile_index
	bcc     L3068
	inx
L3068:	sta     ptr1
	stx     ptr1+1
	lda     _BoxGuy1+1
	clc
	adc     #$0A
	ldy     #$00
	sta     (ptr1),y
;
; projectiles_y[projectile_index] = high_byte(BoxGuy1.y) - 8;
;
	lda     #<(_projectiles_y)
	ldx     #>(_projectiles_y)
	clc
	adc     _projectile_index
	bcc     L306E
	inx
L306E:	sta     ptr1
	stx     ptr1+1
	lda     _BoxGuy1+3
	sec
	sbc     #$08
	ldx     #$00
	sta     (ptr1),y
;
; if (short_jump_count)
;
L3053:	lda     _short_jump_count
	beq     L3076
;
; ++short_jump_count;
;
	inc     _short_jump_count
;
; if (short_jump_count > 30)
;
	lda     _short_jump_count
	cmp     #$1F
	bcc     L3076
;
; short_jump_count = 0;
;
	lda     #$00
	sta     _short_jump_count
;
; if ((short_jump_count) && ((pad1 & PAD_A) == 0) && (BoxGuy1.vel_y < -0x200))
;
L3076:	lda     _short_jump_count
	beq     L3347
	lda     _pad1
	and     #$80
	bne     L3347
	lda     _BoxGuy1+6
	cmp     #$00
	lda     _BoxGuy1+6+1
	sbc     #$FE
	bvc     L3082
	eor     #$80
L3082:	bpl     L3353
;
; BoxGuy1.vel_y = -0x200;
;
	ldx     #$FE
	lda     #$00
	sta     _BoxGuy1+6
	stx     _BoxGuy1+6+1
;
; short_jump_count = 0;
;
	sta     _short_jump_count
;
; temp5 = low_byte(scroll_x) + high_byte(BoxGuy1.x);
;
L3353:	ldx     #$00
L3347:	lda     _scroll_x
	clc
	adc     _BoxGuy1+1
	bcc     L3320
	ldx     #$01
L3320:	sta     _temp5
	stx     _temp5+1
;
; if (temp5 > 0x98 && temp5 < 0xa4) // middle of the screen
;
	cmp     #$99
	txa
	sbc     #$00
	bcc     L308C
	lda     _temp5+1
	cmp     #$00
	bne     L308F
	lda     _temp5
	cmp     #$A4
L308F:	bcs     L308C
;
; map_loaded = 0;
;
	lda     #$00
	sta     _map_loaded
;
; temp5 = BoxGuy1.x; // store his x before we check the scrolling
;
L308C:	lda     _BoxGuy1+1
	sta     _temp5+1
	lda     _BoxGuy1
	sta     _temp5
;
; if (BoxGuy1.x < MAX_LEFT)
;
	ldx     _BoxGuy1+1
	cpx     #$40
	bcs     L30AA
;
; if (!map_loaded)
;
	lda     _map_loaded
	bne     L3097
;
; if (room >= 1)
;
	lda     _room
	beq     L3099
;
; room = ((scroll_x >> 8) - 1); // high byte = room, one to the left
;
	lda     _scroll_x+1
	sec
	sbc     #$01
	sta     _room
;
; new_cmap();
;
L3099:	jsr     _new_cmap
;
; map_loaded = 1; // only do once
;
	lda     #$01
	sta     _map_loaded
;
; temp1 = (MAX_LEFT - BoxGuy1.x) >> 8;
;
L3097:	lda     #$00
	sec
	sbc     _BoxGuy1
	lda     #$40
	sbc     _BoxGuy1+1
	sta     _temp1
;
; if (temp1 > 3)
;
	cmp     #$04
	bcc     L334B
;
; temp1 = 3; // max scroll change
;
	lda     #$03
	sta     _temp1
;
; if (max_rooms > 1 && room != 0)
;
L334B:	lda     _max_rooms
	cmp     #$02
	bcc     L30AA
	lda     _room
	beq     L30AA
;
; scroll_x -= temp1;                  // scroll the window
;
	lda     _temp1
	eor     #$FF
	sec
	adc     _scroll_x
	sta     _scroll_x
	lda     #$FF
	adc     _scroll_x+1
	sta     _scroll_x+1
;
; high_byte(BoxGuy1.x) = high_byte(BoxGuy1.x) + temp1; // add the offset to the guy
;
	lda     _BoxGuy1+1
	clc
	adc     _temp1
	sta     _BoxGuy1+1
;
; if (BoxGuy1.x > MAX_RIGHT)
;
L30AA:	lda     _BoxGuy1
	cmp     #$01
	lda     _BoxGuy1+1
	sbc     #$90
	bcc     L30C7
;
; if (!map_loaded) // gets reset whenever the player's in the middle of the level
;
	lda     _map_loaded
	bne     L30B6
;
; room = ((scroll_x >> 8) + 1); // high byte = room, one to the right
;
	lda     _scroll_x+1
	clc
	adc     #$01
	sta     _room
;
; new_cmap();
;
	jsr     _new_cmap
;
; map_loaded = 1; // only do once
;
	lda     #$01
	sta     _map_loaded
;
; temp1 = (BoxGuy1.x - MAX_RIGHT) >> 8;
;
L30B6:	lda     _BoxGuy1+1
	sec
	sbc     #$90
	sta     _temp1
;
; if (temp1 > 3)
;
	cmp     #$04
	bcc     L334F
;
; temp1 = 3; // max scroll change
;
	lda     #$03
	sta     _temp1
;
; if (max_rooms > 1)
;
L334F:	lda     _max_rooms
	cmp     #$02
	bcc     L30C7
;
; scroll_x += temp1;                  // scroll the window
;
	lda     _temp1
	clc
	adc     _scroll_x
	sta     _scroll_x
	lda     #$00
	adc     _scroll_x+1
	sta     _scroll_x+1
;
; high_byte(BoxGuy1.x) = high_byte(BoxGuy1.x) - temp1; // sub the offet from the guy
;
	lda     _BoxGuy1+1
	sec
	sbc     _temp1
	sta     _BoxGuy1+1
;
; if (scroll_x >= max_scroll)
;
L30C7:	lda     _scroll_x
	cmp     _max_scroll
	lda     _scroll_x+1
	sbc     _max_scroll+1
	bcc     L30D5
;
; scroll_x = max_scroll;      // stop scrolling right, end of level
;
	lda     _max_scroll+1
	sta     _scroll_x+1
	lda     _max_scroll
	sta     _scroll_x
;
; BoxGuy1.x = temp5;        // but allow the x position to go all the way right
;
	lda     _temp5+1
	sta     _BoxGuy1+1
	lda     _temp5
	sta     _BoxGuy1
;
; if (high_byte(BoxGuy1.x) >= 0xe0) // but limit how far right he can go
;
	lda     _BoxGuy1+1
	cmp     #$E0
	bcc     L30D5
;
; BoxGuy1.x = 0xe000;
;
	ldx     #$E0
	lda     #$00
	sta     _BoxGuy1
	stx     _BoxGuy1+1
;
; }
;
L30D5:	rts

.endproc

; ---------------------------------------------------------------
; unsigned char __near__ bg_collision_sub (void)
; ---------------------------------------------------------------

.segment	"CODE"

.proc	_bg_collision_sub: near

.segment	"CODE"

;
; if (temp_y >= 0xf0)
;
	lda     _temp_y
	cmp     #$F0
	ldx     #$00
	bcc     L3357
;
; return 0;
;
	txa
	rts
;
; coordinates = (temp_x >> 4) + (temp_y & 0xf0);
;
L3357:	lda     _temp_x
	lsr     a
	lsr     a
	lsr     a
	lsr     a
	sta     ptr1
	lda     _temp_y
	and     #$F0
	clc
	adc     ptr1
	sta     _coordinates
;
; map = temp_room & 1; // high byte
;
	lda     _temp_room
	and     #$01
	sta     _map
;
; if (!map)
;
	lda     _map
	bne     L2AC9
;
; collision = c_map[coordinates];
;
	ldy     _coordinates
	lda     _c_map,y
;
; else
;
	jmp     L3356
;
; collision = c_map2[coordinates];
;
L2AC9:	ldy     _coordinates
	lda     _c_map2,y
L3356:	sta     _collision
;
; return metatile_colision_map[collision];
;
	ldy     _collision
	lda     _metatile_colision_map,y
;
; }
;
	rts

.endproc

; ---------------------------------------------------------------
; void __near__ draw_screen_R (void)
; ---------------------------------------------------------------

.segment	"CODE"

.proc	_draw_screen_R: near

.segment	"CODE"

;
; pseudo_scroll_x = scroll_x + 0x120;
;
	lda     _scroll_x
	ldx     _scroll_x+1
	clc
	adc     #$20
	bcc     L315C
	inx
L315C:	inx
	sta     _pseudo_scroll_x
	stx     _pseudo_scroll_x+1
;
; temp1 = pseudo_scroll_x >> 8;
;
	lda     _pseudo_scroll_x+1
	sta     _temp1
;
; offset = Level_offsets[level];
;
	ldy     _level
	lda     _Level_offsets,y
	sta     _offset
;
; offset += temp1; // in place of room?!?
;
	lda     _temp1
	clc
	adc     _offset
	sta     _offset
;
; set_data_pointer(stage1_levels_list[offset]);
;
	ldx     #$00
	lda     _offset
	asl     a
	bcc     L335B
	inx
	clc
L335B:	adc     #<(_stage1_levels_list)
	sta     ptr1
	txa
	adc     #>(_stage1_levels_list)
	sta     ptr1+1
	ldy     #$01
	lda     (ptr1),y
	tax
	dey
	lda     (ptr1),y
	jsr     _set_data_pointer
;
; nt = temp1 & 1;
;
	lda     _temp1
	and     #$01
	sta     _nt
;
; x = pseudo_scroll_x & 0xff;
;
	lda     _pseudo_scroll_x
	sta     _x
;
; switch (scroll_count)
;
	lda     _scroll_count
;
; }
;
	beq     L3170
	cmp     #$01
	beq     L3189
	cmp     #$02
	jeq     L31A3
	jmp     L31BC
;
; address = get_ppu_addr(nt, x, 0);
;
L3170:	jsr     decsp2
	lda     _nt
	ldy     #$01
	sta     (sp),y
	lda     _x
	dey
	sta     (sp),y
	tya
	jsr     _get_ppu_addr
	sta     _address
	stx     _address+1
;
; index = 0 + (x >> 4);
;
	lda     _x
	lsr     a
	lsr     a
	lsr     a
	lsr     a
	sta     _index
;
; buffer_4_mt(address, index); // ppu_address, index to the data
;
	lda     _address
	ldx     _address+1
	jsr     pushax
	lda     _index
	jsr     _buffer_4_mt
;
; address = get_ppu_addr(nt, x, 0x20);
;
	jsr     decsp2
	lda     _nt
	ldy     #$01
	sta     (sp),y
	lda     _x
	dey
	sta     (sp),y
	lda     #$20
	jsr     _get_ppu_addr
	sta     _address
	stx     _address+1
;
; index = 0x20 + (x >> 4);
;
	lda     _x
	lsr     a
	lsr     a
	lsr     a
	lsr     a
	clc
	adc     #$20
;
; break;
;
	jmp     L3360
;
; address = get_ppu_addr(nt, x, 0x40);
;
L3189:	jsr     decsp2
	lda     _nt
	ldy     #$01
	sta     (sp),y
	lda     _x
	dey
	sta     (sp),y
	lda     #$40
	jsr     _get_ppu_addr
	sta     _address
	stx     _address+1
;
; index = 0x40 + (x >> 4);
;
	lda     _x
	lsr     a
	lsr     a
	lsr     a
	lsr     a
	clc
	adc     #$40
	sta     _index
;
; buffer_4_mt(address, index); // ppu_address, index to the data
;
	lda     _address
	ldx     _address+1
	jsr     pushax
	lda     _index
	jsr     _buffer_4_mt
;
; address = get_ppu_addr(nt, x, 0x60);
;
	jsr     decsp2
	lda     _nt
	ldy     #$01
	sta     (sp),y
	lda     _x
	dey
	sta     (sp),y
	lda     #$60
	jsr     _get_ppu_addr
	sta     _address
	stx     _address+1
;
; index = 0x60 + (x >> 4);
;
	lda     _x
	lsr     a
	lsr     a
	lsr     a
	lsr     a
	clc
	adc     #$60
;
; break;
;
	jmp     L3360
;
; address = get_ppu_addr(nt, x, 0x80);
;
L31A3:	jsr     decsp2
	lda     _nt
	ldy     #$01
	sta     (sp),y
	lda     _x
	dey
	sta     (sp),y
	lda     #$80
	jsr     _get_ppu_addr
	sta     _address
	stx     _address+1
;
; index = 0x80 + (x >> 4);
;
	lda     _x
	lsr     a
	lsr     a
	lsr     a
	lsr     a
	clc
	adc     #$80
	sta     _index
;
; buffer_4_mt(address, index); // ppu_address, index to the data
;
	lda     _address
	ldx     _address+1
	jsr     pushax
	lda     _index
	jsr     _buffer_4_mt
;
; address = get_ppu_addr(nt, x, 0xa0);
;
	jsr     decsp2
	lda     _nt
	ldy     #$01
	sta     (sp),y
	lda     _x
	dey
	sta     (sp),y
	lda     #$A0
	jsr     _get_ppu_addr
	sta     _address
	stx     _address+1
;
; index = 0xa0 + (x >> 4);
;
	lda     _x
	lsr     a
	lsr     a
	lsr     a
	lsr     a
	clc
	adc     #$A0
;
; break;
;
	jmp     L3360
;
; address = get_ppu_addr(nt, x, 0xc0);
;
L31BC:	jsr     decsp2
	lda     _nt
	ldy     #$01
	sta     (sp),y
	lda     _x
	dey
	sta     (sp),y
	lda     #$C0
	jsr     _get_ppu_addr
	sta     _address
	stx     _address+1
;
; index = 0xc0 + (x >> 4);
;
	lda     _x
	lsr     a
	lsr     a
	lsr     a
	lsr     a
	clc
	adc     #$C0
	sta     _index
;
; buffer_4_mt(address, index); // ppu_address, index to the data
;
	lda     _address
	ldx     _address+1
	jsr     pushax
	lda     _index
	jsr     _buffer_4_mt
;
; address = get_ppu_addr(nt, x, 0xe0);
;
	jsr     decsp2
	lda     _nt
	ldy     #$01
	sta     (sp),y
	lda     _x
	dey
	sta     (sp),y
	lda     #$E0
	jsr     _get_ppu_addr
	sta     _address
	stx     _address+1
;
; index = 0xe0 + (x >> 4);
;
	lda     _x
	lsr     a
	lsr     a
	lsr     a
	lsr     a
	clc
	adc     #$E0
L3360:	sta     _index
;
; buffer_4_mt(address, index); // ppu_address, index to the data
;
	lda     _address
	ldx     _address+1
	jsr     pushax
	lda     _index
	jsr     _buffer_4_mt
;
; ++scroll_count;
;
	inc     _scroll_count
;
; scroll_count &= 3; // mask off top bits, keep it 0-3
;
	lda     _scroll_count
	and     #$03
	sta     _scroll_count
;
; }
;
	rts

.endproc

; ---------------------------------------------------------------
; void __near__ draw_screen_L (void)
; ---------------------------------------------------------------

.segment	"CODE"

.proc	_draw_screen_L: near

.segment	"CODE"

;
; pseudo_scroll_x = scroll_x - 0x20; // Modify the scroll offset for left scroll
;
	lda     _scroll_x
	ldx     _scroll_x+1
	sec
	sbc     #$20
	bcs     L30DD
	dex
L30DD:	sta     _pseudo_scroll_x
	stx     _pseudo_scroll_x+1
;
; temp1 = pseudo_scroll_x >> 8;
;
	lda     _pseudo_scroll_x+1
	sta     _temp1
;
; offset = Level_offsets[level];
;
	ldy     _level
	lda     _Level_offsets,y
	sta     _offset
;
; offset += temp1; // in place of room?!?
;
	lda     _temp1
	clc
	adc     _offset
	sta     _offset
;
; set_data_pointer(stage1_levels_list[offset]);
;
	ldx     #$00
	lda     _offset
	asl     a
	bcc     L3363
	inx
	clc
L3363:	adc     #<(_stage1_levels_list)
	sta     ptr1
	txa
	adc     #>(_stage1_levels_list)
	sta     ptr1+1
	ldy     #$01
	lda     (ptr1),y
	tax
	dey
	lda     (ptr1),y
	jsr     _set_data_pointer
;
; nt = temp1 & 1;
;
	lda     _temp1
	and     #$01
	sta     _nt
;
; x = pseudo_scroll_x & 0xff;
;
	lda     _pseudo_scroll_x
	sta     _x
;
; switch (scroll_count)
;
	lda     _scroll_count
;
; }
;
	beq     L30F1
	cmp     #$01
	beq     L310A
	cmp     #$02
	jeq     L3124
	jmp     L313D
;
; address = get_ppu_addr(nt, x, 0);
;
L30F1:	jsr     decsp2
	lda     _nt
	ldy     #$01
	sta     (sp),y
	lda     _x
	dey
	sta     (sp),y
	tya
	jsr     _get_ppu_addr
	sta     _address
	stx     _address+1
;
; index = 0 + (x >> 4);
;
	lda     _x
	lsr     a
	lsr     a
	lsr     a
	lsr     a
	sta     _index
;
; buffer_4_mt(address, index); // ppu_address, index to the data
;
	lda     _address
	ldx     _address+1
	jsr     pushax
	lda     _index
	jsr     _buffer_4_mt
;
; address = get_ppu_addr(nt, x, 0x20);
;
	jsr     decsp2
	lda     _nt
	ldy     #$01
	sta     (sp),y
	lda     _x
	dey
	sta     (sp),y
	lda     #$20
	jsr     _get_ppu_addr
	sta     _address
	stx     _address+1
;
; index = 0x20 + (x >> 4);
;
	lda     _x
	lsr     a
	lsr     a
	lsr     a
	lsr     a
	clc
	adc     #$20
;
; break;
;
	jmp     L3368
;
; address = get_ppu_addr(nt, x, 0x40);
;
L310A:	jsr     decsp2
	lda     _nt
	ldy     #$01
	sta     (sp),y
	lda     _x
	dey
	sta     (sp),y
	lda     #$40
	jsr     _get_ppu_addr
	sta     _address
	stx     _address+1
;
; index = 0x40 + (x >> 4);
;
	lda     _x
	lsr     a
	lsr     a
	lsr     a
	lsr     a
	clc
	adc     #$40
	sta     _index
;
; buffer_4_mt(address, index); // ppu_address, index to the data
;
	lda     _address
	ldx     _address+1
	jsr     pushax
	lda     _index
	jsr     _buffer_4_mt
;
; address = get_ppu_addr(nt, x, 0x60);
;
	jsr     decsp2
	lda     _nt
	ldy     #$01
	sta     (sp),y
	lda     _x
	dey
	sta     (sp),y
	lda     #$60
	jsr     _get_ppu_addr
	sta     _address
	stx     _address+1
;
; index = 0x60 + (x >> 4);
;
	lda     _x
	lsr     a
	lsr     a
	lsr     a
	lsr     a
	clc
	adc     #$60
;
; break;
;
	jmp     L3368
;
; address = get_ppu_addr(nt, x, 0x80);
;
L3124:	jsr     decsp2
	lda     _nt
	ldy     #$01
	sta     (sp),y
	lda     _x
	dey
	sta     (sp),y
	lda     #$80
	jsr     _get_ppu_addr
	sta     _address
	stx     _address+1
;
; index = 0x80 + (x >> 4);
;
	lda     _x
	lsr     a
	lsr     a
	lsr     a
	lsr     a
	clc
	adc     #$80
	sta     _index
;
; buffer_4_mt(address, index); // ppu_address, index to the data
;
	lda     _address
	ldx     _address+1
	jsr     pushax
	lda     _index
	jsr     _buffer_4_mt
;
; address = get_ppu_addr(nt, x, 0xa0);
;
	jsr     decsp2
	lda     _nt
	ldy     #$01
	sta     (sp),y
	lda     _x
	dey
	sta     (sp),y
	lda     #$A0
	jsr     _get_ppu_addr
	sta     _address
	stx     _address+1
;
; index = 0xa0 + (x >> 4);
;
	lda     _x
	lsr     a
	lsr     a
	lsr     a
	lsr     a
	clc
	adc     #$A0
;
; break;
;
	jmp     L3368
;
; address = get_ppu_addr(nt, x, 0xc0);
;
L313D:	jsr     decsp2
	lda     _nt
	ldy     #$01
	sta     (sp),y
	lda     _x
	dey
	sta     (sp),y
	lda     #$C0
	jsr     _get_ppu_addr
	sta     _address
	stx     _address+1
;
; index = 0xc0 + (x >> 4);
;
	lda     _x
	lsr     a
	lsr     a
	lsr     a
	lsr     a
	clc
	adc     #$C0
	sta     _index
;
; buffer_4_mt(address, index); // ppu_address, index to the data
;
	lda     _address
	ldx     _address+1
	jsr     pushax
	lda     _index
	jsr     _buffer_4_mt
;
; address = get_ppu_addr(nt, x, 0xe0);
;
	jsr     decsp2
	lda     _nt
	ldy     #$01
	sta     (sp),y
	lda     _x
	dey
	sta     (sp),y
	lda     #$E0
	jsr     _get_ppu_addr
	sta     _address
	stx     _address+1
;
; index = 0xe0 + (x >> 4);
;
	lda     _x
	lsr     a
	lsr     a
	lsr     a
	lsr     a
	clc
	adc     #$E0
L3368:	sta     _index
;
; buffer_4_mt(address, index); // ppu_address, index to the data
;
	lda     _address
	ldx     _address+1
	jsr     pushax
	lda     _index
	jsr     _buffer_4_mt
;
; --scroll_count;   // Reverse the increment to scroll in the opposite direction
;
	dec     _scroll_count
;
; scroll_count &= 3; // mask off top bits, keep it 0-3
;
	lda     _scroll_count
	and     #$03
	sta     _scroll_count
;
; }
;
	rts

.endproc

; ---------------------------------------------------------------
; void __near__ new_cmap (void)
; ---------------------------------------------------------------

.segment	"CODE"

.proc	_new_cmap: near

.segment	"CODE"

;
; offset = Level_offsets[level];
;
	ldy     _level
	lda     _Level_offsets,y
	sta     _offset
;
; offset += room;
;
	lda     _room
	clc
	adc     _offset
	sta     _offset
;
; map = room & 1; // even or odd?
;
	lda     _room
	and     #$01
	sta     _map
;
; if (!map)
;
	lda     _map
	bne     L31E1
;
; memcpy(c_map, stage1_levels_list[offset], 240);
;
	lda     #<(_c_map)
	ldx     #>(_c_map)
	jsr     pushax
	ldx     #$00
	lda     _offset
	asl     a
	bcc     L336B
	inx
	clc
L336B:	adc     #<(_stage1_levels_list)
	sta     ptr1
	txa
	adc     #>(_stage1_levels_list)
	sta     ptr1+1
	ldy     #$01
	lda     (ptr1),y
	tax
	dey
	lda     (ptr1),y
	jsr     pushax
	ldx     #$00
	lda     #$F0
	jsr     _memcpy
;
; temp_cmap1 = room;
;
	lda     _room
	sta     _temp_cmap1
;
; else
;
	rts
;
; memcpy(c_map2, stage1_levels_list[offset], 240);
;
L31E1:	lda     #<(_c_map2)
	ldx     #>(_c_map2)
	jsr     pushax
	ldx     #$00
	lda     _offset
	asl     a
	bcc     L336C
	inx
	clc
L336C:	adc     #<(_stage1_levels_list)
	sta     ptr1
	txa
	adc     #>(_stage1_levels_list)
	sta     ptr1+1
	ldy     #$01
	lda     (ptr1),y
	tax
	dey
	lda     (ptr1),y
	jsr     pushax
	ldx     #$00
	lda     #$F0
	jsr     _memcpy
;
; temp_cmap2 = room;
;
	lda     _room
	sta     _temp_cmap2
;
; }
;
	rts

.endproc

; ---------------------------------------------------------------
; void __near__ handle_scrolling (void)
; ---------------------------------------------------------------

.segment	"CODE"

.proc	_handle_scrolling: near

.segment	"CODE"

;
; if (!r_scroll_frames && !l_scroll_frames)
;
	lda     _r_scroll_frames
	bne     L2E39
	lda     _l_scroll_frames
	bne     L2E39
;
; if (direction == RIGHT)
;
	lda     _direction
	cmp     #$01
	bne     L336D
;
; r_scroll_frames = 4;
;
	lda     #$04
	sta     _r_scroll_frames
;
; else
;
	jmp     L2E39
;
; l_scroll_frames = 4;
;
L336D:	lda     #$04
	sta     _l_scroll_frames
;
; if (r_scroll_frames)
;
L2E39:	lda     _r_scroll_frames
	beq     L2E3C
;
; draw_screen_R();
;
	jsr     _draw_screen_R
;
; --r_scroll_frames;
;
	dec     _r_scroll_frames
;
; else if (l_scroll_frames)
;
	rts
L2E3C:	lda     _l_scroll_frames
	beq     L2E41
;
; draw_screen_L();
;
	jsr     _draw_screen_L
;
; --l_scroll_frames;
;
	dec     _l_scroll_frames
;
; }
;
L2E41:	rts

.endproc

; ---------------------------------------------------------------
; void __near__ projectile_movement (void)
; ---------------------------------------------------------------

.segment	"CODE"

.proc	_projectile_movement: near

.segment	"CODE"

;
; for (temp1 = 0; temp1 < 3; ++temp1)
;
	lda     #$00
	sta     _temp1
L3370:	lda     _temp1
	cmp     #$03
	bcc     L337F
;
; }
;
	rts
;
; if (projectiles_list[temp1] != TURN_OFF)
;
L337F:	ldy     _temp1
	lda     _projectiles_list,y
	cmp     #$FF
	jeq     L337E
;
; if (projectiles_x[temp1] > 250)
;
	ldy     _temp1
	lda     _projectiles_x,y
	cmp     #$FB
	bcc     L3371
;
; projectiles_list[temp1] = TURN_OFF;
;
	ldy     _temp1
	lda     #$FF
	sta     _projectiles_list,y
;
; else
;
	jmp     L337E
;
; temp2 = 2; // projectile speed
;
L3371:	lda     #$02
	sta     _temp2
;
; if (projectiles_list[temp1] == RIGHT)
;
	ldy     _temp1
	lda     _projectiles_list,y
	cmp     #$01
	jne     L2DF2
;
; if (BoxGuy1.x > (MAX_RIGHT - 4) && pad1_new & PAD_RIGHT)
;
	lda     _BoxGuy1
	cmp     #$FD
	lda     _BoxGuy1+1
	sbc     #$8F
	bcc     L2DF6
	lda     _pad1_new
	and     #$01
	beq     L2DF6
;
; temp3 = (BoxGuy1.x - MAX_RIGHT - 4) >> 8;
;
	lda     _BoxGuy1
	pha
	lda     _BoxGuy1+1
	sec
	sbc     #$90
	tax
	pla
	sec
	sbc     #$04
	bcs     L2DFE
	dex
L2DFE:	txa
	sta     _temp3
;
; if (temp3 > 3)
;
	cmp     #$04
	bcc     L3375
;
; temp3 = 3; // max scroll change
;
	lda     #$03
	sta     _temp3
;
; temp2 += temp3;
;
L3375:	lda     _temp3
	clc
	adc     _temp2
	sta     _temp2
;
; if (BoxGuy1.x < (MAX_LEFT + 4) && pad1_new & PAD_LEFT)
;
L2DF6:	lda     _BoxGuy1+1
	cmp     #$40
	bne     L2E08
	lda     _BoxGuy1
	cmp     #$04
L2E08:	bcs     L2E05
	lda     _pad1_new
	and     #$02
	beq     L2E05
;
; temp3 = (MAX_LEFT + 4 - BoxGuy1.x) >> 8;
;
	lda     #$04
	sec
	sbc     _BoxGuy1
	lda     #$40
	sbc     _BoxGuy1+1
	sta     _temp3
;
; if (temp3 > 3)
;
	cmp     #$04
	bcc     L3378
;
; temp3 = 3;
;
	lda     #$03
	sta     _temp3
;
; temp2 += temp3;
;
L3378:	lda     _temp3
	clc
	adc     _temp2
	sta     _temp2
;
; projectiles_x[temp1] += temp2;
;
L2E05:	lda     #<(_projectiles_x)
	ldx     #>(_projectiles_x)
	clc
	adc     _temp1
	bcc     L2E16
	inx
L2E16:	jsr     pushax
	sta     ptr1
	stx     ptr1+1
	ldy     #$00
	lda     (ptr1),y
	clc
	adc     _temp2
;
; else if (projectiles_list[temp1] == LEFT)
;
	jmp     L336F
L2DF2:	ldy     _temp1
	lda     _projectiles_list,y
	bne     L337E
;
; if (BoxGuy1.x > (MAX_RIGHT - 4) && pad1_new & PAD_RIGHT)
;
	lda     _BoxGuy1
	cmp     #$FD
	lda     _BoxGuy1+1
	sbc     #$8F
	bcc     L2E1D
	lda     _pad1_new
	and     #$01
	beq     L2E1D
;
; temp2 += 3;
;
	lda     #$03
	clc
	adc     _temp2
	sta     _temp2
;
; if (BoxGuy1.x < (MAX_LEFT + 4) && pad1_new & PAD_LEFT)
;
L2E1D:	lda     _BoxGuy1+1
	cmp     #$40
	bne     L2E27
	lda     _BoxGuy1
	cmp     #$04
L2E27:	bcs     L2E24
	lda     _pad1_new
	and     #$02
	beq     L2E24
;
; temp2 -= 1;
;
	dec     _temp2
;
; projectiles_x[temp1] -= temp2;
;
L2E24:	lda     #<(_projectiles_x)
	ldx     #>(_projectiles_x)
	clc
	adc     _temp1
	bcc     L2E2E
	inx
L2E2E:	jsr     pushax
	sta     ptr1
	stx     ptr1+1
	ldy     #$00
	lda     (ptr1),y
	sec
	sbc     _temp2
L336F:	jsr     staspidx
;
; for (temp1 = 0; temp1 < 3; ++temp1)
;
L337E:	inc     _temp1
	jmp     L3370

.endproc

; ---------------------------------------------------------------
; void __near__ check_spr_objects (void)
; ---------------------------------------------------------------

.segment	"CODE"

.proc	_check_spr_objects: near

.segment	"CODE"

;
; ++enemy_frames;
;
	inc     _enemy_frames
;
; Generic2.x = high_byte(BoxGuy1.x);
;
	lda     _BoxGuy1+1
	sta     _Generic2
;
; for (index = 0; index < MAX_ENEMY; ++index)
;
	lda     #$00
	sta     _index
L3380:	lda     _index
	cmp     #$10
	bcs     L3202
;
; enemy_active[index] = 0; // default to zero
;
	ldy     _index
	lda     #$00
	sta     _enemy_active,y
;
; if (enemy_y[index] != TURN_OFF)
;
	ldy     _index
	lda     _enemy_y,y
	cmp     #$FF
	beq     L3382
;
; high_byte(temp5) = enemy_room[index];
;
	ldy     _index
	lda     _enemy_room,y
	sta     _temp5+1
;
; low_byte(temp5) = enemy_actual_x[index];
;
	ldy     _index
	lda     _enemy_actual_x,y
	sta     _temp5
;
; temp1 = enemy_active[index] = get_position();
;
	lda     #<(_enemy_active)
	ldx     #>(_enemy_active)
	clc
	adc     _index
	bcc     L321E
	inx
L321E:	jsr     pushax
	jsr     _get_position
	ldy     #$00
	jsr     staspidx
	sta     _temp1
;
; if (temp1 == 0 || enemy_health[index] == 0)
;
	lda     _temp1
	beq     L3382
	ldy     _index
	lda     _enemy_health,y
	beq     L3382
;
; enemy_x[index] = temp_x; // screen x coords
;
	ldy     _index
	lda     _temp_x
	sta     _enemy_x,y
;
; enemy_moves(); // if active, do it's moves now
;
	jsr     _enemy_moves
;
; for (index = 0; index < MAX_ENEMY; ++index)
;
L3382:	inc     _index
	jmp     L3380
;
; }
;
L3202:	rts

.endproc

; ---------------------------------------------------------------
; void __near__ enemy_moves (void)
; ---------------------------------------------------------------

.segment	"CODE"

.proc	_enemy_moves: near

.segment	"CODE"

;
; if (invul_frames > 0)
;
	lda     _invul_frames
	beq     L322B
;
; --invul_frames;
;
	dec     _invul_frames
;
; if (enemy_x[index] == Generic2.x && invul_frames == 0)
;
L322B:	ldy     _index
	lda     _enemy_x,y
	cmp     _Generic2
	bne     L338F
	lda     _invul_frames
	bne     L338F
;
; --BoxGuy1.health;
;
	dec     _BoxGuy1+8
;
; player_in_hitstun = 15;
;
	lda     #$0F
	sta     _player_in_hitstun
;
; invul_frames = 30;
;
	lda     #$1E
	sta     _invul_frames
;
; if (BoxGuy1.health == 0)
;
	lda     _BoxGuy1+8
	bne     L338F
;
; death = 1;
;
	lda     #$01
	sta     _death
;
; for (temp1 = 0; temp1 < MAX_PROJECTILES; ++temp1)
;
L338F:	lda     #$00
	sta     _temp1
L3391:	lda     _temp1
	cmp     #$03
	jcs     L323E
;
; if (projectiles_list[temp1] != TURN_OFF)
;
	ldy     _temp1
	lda     _projectiles_list,y
	cmp     #$FF
	jeq     L3396
;
; (enemy_x[index] > projectiles_x[temp1] - 5 && enemy_x[index] < projectiles_x[temp1] + 5) &&
;
	ldy     _index
	lda     _enemy_x,y
	jsr     pusha0
	ldy     _temp1
	lda     _projectiles_x,y
	sec
	sbc     #$05
	bcs     L3250
	ldx     #$FF
L3250:	jsr     tosicmp
	bcc     L3396
	beq     L3396
	ldy     _index
	lda     _enemy_x,y
	jsr     pusha0
	ldy     _temp1
	lda     _projectiles_x,y
	clc
	adc     #$05
	bcc     L3256
	ldx     #$01
L3256:	jsr     tosicmp
	bcs     L3396
;
; (enemy_y[index] > projectiles_y[temp1] - 30 && enemy_y[index] < projectiles_y[temp1] + 30))
;
	ldy     _index
	lda     _enemy_y,y
	jsr     pusha0
	ldy     _temp1
	lda     _projectiles_y,y
	sec
	sbc     #$1E
	bcs     L325E
	ldx     #$FF
L325E:	jsr     tosicmp
	bcc     L3396
	beq     L3396
	ldy     _index
	lda     _enemy_y,y
	jsr     pusha0
	ldy     _temp1
	lda     _projectiles_y,y
	clc
	adc     #$1E
	bcc     L3264
	ldx     #$01
L3264:	jsr     tosicmp
	bcs     L3396
;
; projectiles_list[temp1] = TURN_OFF;
;
	ldy     _temp1
	lda     #$FF
	sta     _projectiles_list,y
;
; --enemy_health[index];
;
	lda     #<(_enemy_health)
	ldx     #>(_enemy_health)
	clc
	adc     _index
	bcc     L326D
	inx
L326D:	sta     ptr1
	stx     ptr1+1
	ldy     #$00
	lda     (ptr1),y
	sec
	sbc     #$01
	sta     (ptr1),y
;
; for (temp1 = 0; temp1 < MAX_PROJECTILES; ++temp1)
;
L3396:	inc     _temp1
	jmp     L3391
;
; if (enemy_type[index] == ENEMY_SNAIL)
;
L323E:	ldy     _index
	lda     _enemy_type,y
	beq     L339A
;
; }
;
	rts
;
; Generic.x = enemy_x[index];
;
L339A:	ldy     _index
	lda     _enemy_x,y
	sta     _Generic
;
; Generic.y = enemy_y[index] + 6; // mid point
;
	ldy     _index
	lda     _enemy_y,y
	clc
	adc     #$06
	sta     _Generic+1
;
; Generic.width = 13;
;
	lda     #$0D
	sta     _Generic+2
;
; Generic.height = 15;
;
	lda     #$0F
	sta     _Generic+3
;
; if (enemy_frames < 10)
;
	ldx     #$00
	lda     _enemy_frames
	cmp     #$0A
	bcs     L3397
;
; enemy_anim[index] = animate_snail1left_data;
;
	lda     _index
	asl     a
	bcc     L3389
	inx
	clc
L3389:	adc     #<(_enemy_anim)
	sta     ptr1
	txa
	adc     #>(_enemy_anim)
	sta     ptr1+1
	lda     #<(_animate_snail1left_data)
	ldy     #$00
	sta     (ptr1),y
	iny
	lda     #>(_animate_snail1left_data)
	sta     (ptr1),y
;
; else if (enemy_frames < 20)
;
	jmp     L3290
L3397:	lda     _enemy_frames
	cmp     #$14
	bcs     L3398
;
; enemy_anim[index] = animate_snail2left_data;
;
	lda     _index
	asl     a
	bcc     L338A
	inx
	clc
L338A:	adc     #<(_enemy_anim)
	sta     ptr1
	txa
	adc     #>(_enemy_anim)
	sta     ptr1+1
	lda     #<(_animate_snail2left_data)
	ldy     #$00
	sta     (ptr1),y
	iny
	lda     #>(_animate_snail2left_data)
	sta     (ptr1),y
;
; else if (enemy_frames < 30)
;
	jmp     L3290
L3398:	lda     _enemy_frames
	cmp     #$1E
	bcs     L3399
;
; enemy_anim[index] = animate_snail3left_data;
;
	lda     _index
	asl     a
	bcc     L338B
	inx
	clc
L338B:	adc     #<(_enemy_anim)
	sta     ptr1
	txa
	adc     #>(_enemy_anim)
	sta     ptr1+1
	lda     #<(_animate_snail3left_data)
	ldy     #$00
	sta     (ptr1),y
	iny
	lda     #>(_animate_snail3left_data)
	sta     (ptr1),y
;
; else
;
	jmp     L3290
;
; enemy_anim[index] = animate_snail3left_data;
;
L3399:	lda     _index
	asl     a
	bcc     L338C
	inx
	clc
L338C:	adc     #<(_enemy_anim)
	sta     ptr1
	txa
	adc     #>(_enemy_anim)
	sta     ptr1+1
	lda     #<(_animate_snail3left_data)
	ldy     #$00
	sta     (ptr1),y
	iny
	lda     #>(_animate_snail3left_data)
	sta     (ptr1),y
;
; enemy_frames = 0;
;
	lda     #$00
	sta     _enemy_frames
;
; if (frame_counter % 3 == 0)
;
L3290:	lda     _frame_counter
	jsr     pusha0
	lda     #$03
	jsr     tosumoda0
	cpx     #$00
	beq     L339B
;
; }
;
	rts
;
; if (frame_counter % 3 == 0)
;
L339B:	cmp     #$00
	beq     L339C
;
; }
;
	rts
;
; if (enemy_x[index] > Generic2.x)
;
L339C:	ldy     _index
	lda     _enemy_x,y
	sec
	sbc     _Generic2
	bcc     L3299
	beq     L3299
;
; Generic.x -= 1;
;
	dec     _Generic
;
; Generic.x -= 1; // test going left
;
	dec     _Generic
;
; bg_collision_fast();
;
	jsr     _bg_collision_fast
;
; if (collision_L)
;
	lda     _collision_L
;
; return;
;
	beq     L339D
;
; }
;
	rts
;
; if (enemy_actual_x[index] == 0)
;
L339D:	ldy     _index
	lda     _enemy_actual_x,y
	bne     L32A4
;
; --enemy_room[index];
;
	lda     #<(_enemy_room)
	ldx     #>(_enemy_room)
	clc
	adc     _index
	bcc     L32AA
	inx
L32AA:	sta     ptr1
	stx     ptr1+1
	ldy     #$00
	lda     (ptr1),y
	sec
	sbc     #$01
	sta     (ptr1),y
;
; --enemy_actual_x[index];
;
L32A4:	lda     #<(_enemy_actual_x)
	ldx     #>(_enemy_actual_x)
	clc
	adc     _index
	bcc     L32AD
	inx
L32AD:	sta     ptr1
	stx     ptr1+1
	ldy     #$00
	lda     (ptr1),y
	sec
	sbc     #$01
;
; else if (enemy_x[index] < Generic2.x)
;
	jmp     L3388
L3299:	ldy     _index
	lda     _enemy_x,y
	cmp     _Generic2
	bcs     L32BB
;
; Generic.x += 1; // test going right
;
	inc     _Generic
;
; bg_collision_fast();
;
	jsr     _bg_collision_fast
;
; if (collision_R)
;
	lda     _collision_R
;
; return;
;
	bne     L32BB
;
; ++enemy_actual_x[index];
;
	lda     #<(_enemy_actual_x)
	ldx     #>(_enemy_actual_x)
	clc
	adc     _index
	bcc     L32BA
	inx
L32BA:	sta     ptr1
	stx     ptr1+1
	ldy     #$00
	lda     #$01
	clc
	adc     (ptr1),y
	sta     (ptr1),y
;
; if (enemy_actual_x[index] == 0)
;
	ldy     _index
	lda     _enemy_actual_x,y
	bne     L32BB
;
; ++enemy_room[index];
;
	lda     #<(_enemy_room)
	ldx     #>(_enemy_room)
	clc
	adc     _index
	bcc     L32C1
	inx
L32C1:	sta     ptr1
	stx     ptr1+1
	ldy     #$00
	lda     #$01
	clc
	adc     (ptr1),y
L3388:	sta     (ptr1),y
;
; }
;
L32BB:	rts

.endproc

; ---------------------------------------------------------------
; void __near__ reset (void)
; ---------------------------------------------------------------

.segment	"CODE"

.proc	_reset: near

.segment	"CODE"

;
; ppu_wait_nmi();
;
	jsr     _ppu_wait_nmi
;
; ppu_off();   // screen off
;
	jsr     _ppu_off
;
; pal_bright(4); // back to normal brightness
;
	lda     #$04
	jsr     _pal_bright
;
; scroll_x = 0;
;
	lda     #$00
	sta     _scroll_x
	sta     _scroll_x+1
;
; scroll_y = 0;
;
	sta     _scroll_y
	sta     _scroll_y+1
;
; room = 0;
;
	sta     _room
;
; map_loaded = 0;
;
	sta     _map_loaded
;
; player_in_air = 0;
;
	sta     _player_in_air
;
; player_on_ladder = 0;
;
	sta     _player_on_ladder
;
; player_jumping = 0;
;
	sta     _player_jumping
;
; short_jump_count = 0;
;
	sta     _short_jump_count
;
; projectile_cooldown = 0;
;
	sta     _projectile_cooldown
;
; projectile_count = 0;
;
	sta     _projectile_count
;
; projectile_index = 0;
;
	sta     _projectile_index
;
; player_shooting = 0;
;
	sta     _player_shooting
;
; direction = 1;
;
	lda     #$01
	sta     _direction
;
; frame_counter = 0;
;
	lda     #$00
	sta     _frame_counter
;
; sprite_frame_counter = 0;
;
	sta     _sprite_frame_counter
;
; r_scroll_frames = 0;
;
	sta     _r_scroll_frames
;
; l_scroll_frames = 0;
;
	sta     _l_scroll_frames
;
; collision = 0;
;
	sta     _collision
;
; player_shooting = 0;
;
	sta     _player_shooting
;
; death = 0;
;
	sta     _death
;
; BoxGuy1.x = 0x4000;
;
	ldx     #$40
	sta     _BoxGuy1
	stx     _BoxGuy1+1
;
; BoxGuy1.y = 0x8400;
;
	ldx     #$84
	sta     _BoxGuy1+2
	stx     _BoxGuy1+2+1
;
; BoxGuy1.health = 28;
;
	lda     #$1C
	sta     _BoxGuy1+8
;
; invul_frames = 0;
;
	lda     #$00
	sta     _invul_frames
;
; game_mode = MODE_GAME;
;
	lda     #$01
	sta     _game_mode
;
; level = 0;
;
	lda     #$00
	sta     _level
;
; for (temp1 = 0; temp1 < MAX_PROJECTILES; ++temp1)
;
	sta     _temp1
L339E:	lda     _temp1
	cmp     #$03
	bcs     L2DC0
;
; projectiles_list[temp1] = OFF;
;
	ldy     _temp1
	lda     #$FF
	sta     _projectiles_list,y
;
; for (temp1 = 0; temp1 < MAX_PROJECTILES; ++temp1)
;
	inc     _temp1
	jmp     L339E
;
; ppu_mask(0); // grayscale mode
;
L2DC0:	lda     #$00
	jsr     _ppu_mask
;
; pal_bg(palette_bg);
;
	lda     #<(_palette_bg)
	ldx     #>(_palette_bg)
	jsr     _pal_bg
;
; pal_spr(palette_sp);
;
	lda     #<(_palette_sp)
	ldx     #>(_palette_sp)
	jsr     _pal_spr
;
; bank_spr(0);
;
	lda     #$00
	jsr     _bank_spr
;
; bank_bg(1);
;
	lda     #$01
	jsr     _bank_bg
;
; set_vram_buffer(); // do at least once, sets a pointer to a buffer
;
	jsr     _set_vram_buffer
;
; load_room();
;
	jsr     _load_room
;
; set_scroll_y(0xff); // shift the bg down 1 pixel
;
	ldx     #$00
	lda     #$FF
	jsr     _set_scroll_y
;
; ppu_on_all(); // turn on screen
;
	jmp     _ppu_on_all

.endproc

; ---------------------------------------------------------------
; void __near__ sprite_obj_init (void)
; ---------------------------------------------------------------

.segment	"CODE"

.proc	_sprite_obj_init: near

.segment	"CODE"

;
; pointer = Enemy_list[level];
;
	ldx     #$00
	lda     _level
	asl     a
	bcc     L33A6
	inx
	clc
L33A6:	adc     #<(_Enemy_list)
	sta     ptr1
	txa
	adc     #>(_Enemy_list)
	sta     ptr1+1
	ldy     #$01
	lda     (ptr1),y
	sta     _pointer+1
	dey
	lda     (ptr1),y
	sta     _pointer
;
; for (index = 0, index2 = 0; index < MAX_ENEMY; ++index)
;
	tya
	sta     _index
	sta     _index2
L33A7:	lda     _index
	cmp     #$10
	jcs     L33A8
;
; enemy_x[index] = 0;
;
	ldy     _index
	lda     #$00
	sta     _enemy_x,y
;
; temp1 = pointer[index2]; // get a byte of data
;
	lda     _pointer
	ldx     _pointer+1
	ldy     _index2
	sta     ptr1
	stx     ptr1+1
	lda     (ptr1),y
	sta     _temp1
;
; enemy_y[index] = temp1;
;
	ldy     _index
	lda     _temp1
	sta     _enemy_y,y
;
; if (temp1 == TURN_OFF)
;
	lda     _temp1
	cmp     #$FF
;
; break;
;
	jeq     L33A8
;
; ++index2;
;
	inc     _index2
;
; enemy_active[index] = 0;
;
	ldy     _index
	lda     #$00
	sta     _enemy_active,y
;
; temp1 = pointer[index2]; // get a byte of data
;
	lda     _pointer
	ldx     _pointer+1
	ldy     _index2
	sta     ptr1
	stx     ptr1+1
	lda     (ptr1),y
	sta     _temp1
;
; enemy_room[index] = temp1;
;
	ldy     _index
	lda     _temp1
	sta     _enemy_room,y
;
; ++index2;
;
	inc     _index2
;
; temp1 = pointer[index2]; // get a byte of data
;
	lda     _pointer
	ldx     _pointer+1
	ldy     _index2
	sta     ptr1
	stx     ptr1+1
	lda     (ptr1),y
	sta     _temp1
;
; enemy_actual_x[index] = temp1;
;
	ldy     _index
	lda     _temp1
	sta     _enemy_actual_x,y
;
; ++index2;
;
	inc     _index2
;
; temp1 = pointer[index2]; // get a byte of data
;
	lda     _pointer
	ldx     _pointer+1
	ldy     _index2
	sta     ptr1
	stx     ptr1+1
	lda     (ptr1),y
	sta     _temp1
;
; enemy_health[index] = temp1;
;
	ldy     _index
	lda     _temp1
	sta     _enemy_health,y
;
; ++index2;
;
	inc     _index2
;
; temp1 = pointer[index2]; // get a byte of data
;
	lda     _pointer
	ldx     _pointer+1
	ldy     _index2
	sta     ptr1
	stx     ptr1+1
	lda     (ptr1),y
	sta     _temp1
;
; enemy_type[index] = temp1;
;
	ldy     _index
	lda     _temp1
	sta     _enemy_type,y
;
; ++index2;
;
	inc     _index2
;
; for (index = 0, index2 = 0; index < MAX_ENEMY; ++index)
;
	inc     _index
	jmp     L33A7
;
; for (++index; index < MAX_ENEMY; ++index)
;
L33A8:	inc     _index
	lda     _index
	cmp     #$10
	bcs     L3303
;
; enemy_y[index] = TURN_OFF;
;
	ldy     _index
	lda     #$FF
	sta     _enemy_y,y
;
; for (++index; index < MAX_ENEMY; ++index)
;
	jmp     L33A8
;
; }
;
L3303:	rts

.endproc

; ---------------------------------------------------------------
; unsigned char __near__ bg_coll_L (void)
; ---------------------------------------------------------------

.segment	"CODE"

.proc	_bg_coll_L: near

.segment	"CODE"

;
; temp5 = Generic.x + scroll_x;
;
	lda     _Generic
	clc
	adc     _scroll_x
	sta     _temp5
	lda     #$00
	adc     _scroll_x+1
	sta     _temp5+1
;
; temp_x = (char)temp5;   // low byte
;
	lda     _temp5
	sta     _temp_x
;
; temp_room = temp5 >> 8; // high byte
;
	lda     _temp5+1
	sta     _temp_room
;
; eject_L = temp_x | 0xf0;
;
	lda     _temp_x
	ora     #$F0
	sta     _eject_L
;
; temp_y = Generic.y + 2;
;
	lda     _Generic+1
	clc
	adc     #$02
	sta     _temp_y
;
; if (bg_collision_sub() & COL_ALL)
;
	jsr     _bg_collision_sub
	and     #$40
	beq     L33AA
;
; return 1;
;
	ldx     #$00
	lda     #$01
	rts
;
; temp_y = Generic.y + Generic.height;
;
L33AA:	lda     _Generic+1
	clc
	adc     _Generic+3
	sta     _temp_y
;
; temp_y -= 2;
;
	sec
	sbc     #$02
	sta     _temp_y
;
; if (bg_collision_sub() & COL_ALL)
;
	jsr     _bg_collision_sub
	ldx     #$00
	and     #$40
	beq     L33AC
;
; return 1;
;
	lda     #$01
	rts
;
; }
;
L33AC:	rts

.endproc

; ---------------------------------------------------------------
; unsigned char __near__ bg_coll_R (void)
; ---------------------------------------------------------------

.segment	"CODE"

.proc	_bg_coll_R: near

.segment	"CODE"

;
; temp5 = Generic.x + scroll_x + Generic.width;
;
	lda     _Generic
	clc
	adc     _scroll_x
	pha
	lda     #$00
	adc     _scroll_x+1
	tax
	pla
	clc
	adc     _Generic+2
	bcc     L33AD
	inx
L33AD:	sta     _temp5
	stx     _temp5+1
;
; temp_x = (char)temp5;   // low byte
;
	lda     _temp5
	sta     _temp_x
;
; temp_room = temp5 >> 8; // high byte
;
	lda     _temp5+1
	sta     _temp_room
;
; eject_R = (temp_x + 1) & 0x0f;
;
	lda     _temp_x
	clc
	adc     #$01
	and     #$0F
	sta     _eject_R
;
; temp_y = Generic.y + 2;
;
	lda     _Generic+1
	clc
	adc     #$02
	sta     _temp_y
;
; if (bg_collision_sub() & COL_ALL)
;
	jsr     _bg_collision_sub
	and     #$40
	beq     L33AF
;
; return 1;
;
	ldx     #$00
	lda     #$01
	rts
;
; temp_y = Generic.y + Generic.height;
;
L33AF:	lda     _Generic+1
	clc
	adc     _Generic+3
	sta     _temp_y
;
; temp_y -= 2;
;
	sec
	sbc     #$02
	sta     _temp_y
;
; if (bg_collision_sub() & COL_ALL)
;
	jsr     _bg_collision_sub
	ldx     #$00
	and     #$40
	beq     L33B1
;
; return 1;
;
	lda     #$01
	rts
;
; }
;
L33B1:	rts

.endproc

; ---------------------------------------------------------------
; unsigned char __near__ bg_coll_U (void)
; ---------------------------------------------------------------

.segment	"CODE"

.proc	_bg_coll_U: near

.segment	"CODE"

;
; temp5 = Generic.x + scroll_x;
;
	lda     _Generic
	clc
	adc     _scroll_x
	sta     _temp5
	lda     #$00
	adc     _scroll_x+1
	sta     _temp5+1
;
; temp5 += 2;
;
	lda     #$02
	clc
	adc     _temp5
	sta     _temp5
	bcc     L2A64
	inc     _temp5+1
;
; temp_x = (char)temp5;   // low byte
;
L2A64:	lda     _temp5
	sta     _temp_x
;
; temp_room = temp5 >> 8; // high byte
;
	lda     _temp5+1
	sta     _temp_room
;
; temp_y = Generic.y;
;
	lda     _Generic+1
	sta     _temp_y
;
; eject_U = temp_y | 0xf0;
;
	ora     #$F0
	sta     _eject_U
;
; if (bg_collision_sub() & COL_ALL)
;
	jsr     _bg_collision_sub
	and     #$40
	beq     L33B3
;
; return 1;
;
	ldx     #$00
	lda     #$01
	rts
;
; temp5 = Generic.x + scroll_x + Generic.width;
;
L33B3:	lda     _Generic
	clc
	adc     _scroll_x
	pha
	lda     #$00
	adc     _scroll_x+1
	tax
	pla
	clc
	adc     _Generic+2
	bcc     L33B2
	inx
L33B2:	sta     _temp5
	stx     _temp5+1
;
; temp5 -= 2;
;
	lda     _temp5
	sec
	sbc     #$02
	sta     _temp5
	bcs     L2A74
	dec     _temp5+1
;
; temp_x = (char)temp5;   // low byte
;
L2A74:	lda     _temp5
	sta     _temp_x
;
; temp_room = temp5 >> 8; // high byte
;
	lda     _temp5+1
	sta     _temp_room
;
; if (bg_collision_sub() & COL_ALL)
;
	jsr     _bg_collision_sub
	ldx     #$00
	and     #$40
	beq     L33B5
;
; return 1;
;
	lda     #$01
	rts
;
; }
;
L33B5:	rts

.endproc

; ---------------------------------------------------------------
; unsigned char __near__ bg_coll_D (void)
; ---------------------------------------------------------------

.segment	"CODE"

.proc	_bg_coll_D: near

.segment	"CODE"

;
; temp5 = Generic.x + scroll_x;
;
	lda     _Generic
	clc
	adc     _scroll_x
	sta     _temp5
	lda     #$00
	adc     _scroll_x+1
	sta     _temp5+1
;
; temp5 += 2;
;
	lda     #$02
	clc
	adc     _temp5
	sta     _temp5
	bcc     L2A82
	inc     _temp5+1
;
; temp_x = (char)temp5;   // low byte
;
L2A82:	lda     _temp5
	sta     _temp_x
;
; temp_room = temp5 >> 8; // high byte
;
	lda     _temp5+1
	sta     _temp_room
;
; temp_y = Generic.y + Generic.height;
;
	lda     _Generic+1
	clc
	adc     _Generic+3
	sta     _temp_y
;
; if ((temp_y & 0x0f) > 3)
;
	and     #$0F
	cmp     #$04
	lda     #$00
	bcc     L33B9
;
; return 0; // bug fix
;
	tax
	rts
;
; eject_D = (temp_y + 1) & 0x0f;
;
L33B9:	lda     _temp_y
	clc
	adc     #$01
	and     #$0F
	sta     _eject_D
;
; if (bg_collision_sub() & COL_ALL)
;
	jsr     _bg_collision_sub
	and     #$40
	beq     L33BA
;
; return 1;
;
	ldx     #$00
	lda     #$01
	rts
;
; temp5 = Generic.x + scroll_x + Generic.width;
;
L33BA:	lda     _Generic
	clc
	adc     _scroll_x
	pha
	lda     #$00
	adc     _scroll_x+1
	tax
	pla
	clc
	adc     _Generic+2
	bcc     L33B7
	inx
L33B7:	sta     _temp5
	stx     _temp5+1
;
; temp5 -= 2;
;
	lda     _temp5
	sec
	sbc     #$02
	sta     _temp5
	bcs     L2A98
	dec     _temp5+1
;
; temp_x = (char)temp5;   // low byte
;
L2A98:	lda     _temp5
	sta     _temp_x
;
; temp_room = temp5 >> 8; // high byte
;
	lda     _temp5+1
	sta     _temp_room
;
; if (bg_collision_sub() & COL_ALL)
;
	jsr     _bg_collision_sub
	ldx     #$00
	and     #$40
	beq     L33BB
;
; return 1;
;
	lda     #$01
	rts
;
; }
;
L33BB:	rts

.endproc

; ---------------------------------------------------------------
; unsigned char __near__ bg_coll_D2 (void)
; ---------------------------------------------------------------

.segment	"CODE"

.proc	_bg_coll_D2: near

.segment	"CODE"

;
; temp5 = Generic.x + scroll_x;
;
	lda     _Generic
	clc
	adc     _scroll_x
	sta     _temp5
	lda     #$00
	adc     _scroll_x+1
	sta     _temp5+1
;
; temp5 += 2;
;
	lda     #$02
	clc
	adc     _temp5
	sta     _temp5
	bcc     L2AA6
	inc     _temp5+1
;
; temp_x = (char)temp5;   // low byte
;
L2AA6:	lda     _temp5
	sta     _temp_x
;
; temp_room = temp5 >> 8; // high byte
;
	lda     _temp5+1
	sta     _temp_room
;
; temp_y = Generic.y + Generic.height;
;
	lda     _Generic+1
	clc
	adc     _Generic+3
	sta     _temp_y
;
; temp_y += 2;
;
	lda     #$02
	clc
	adc     _temp_y
	sta     _temp_y
;
; if (bg_collision_sub())
;
	jsr     _bg_collision_sub
	tax
	beq     L33BE
;
; return 1;
;
	ldx     #$00
	lda     #$01
	rts
;
; temp5 = Generic.x + scroll_x + Generic.width;
;
L33BE:	lda     _Generic
	clc
	adc     _scroll_x
	pha
	txa
	adc     _scroll_x+1
	tax
	pla
	clc
	adc     _Generic+2
	bcc     L33BD
	inx
L33BD:	sta     _temp5
	stx     _temp5+1
;
; temp5 -= 2;
;
	lda     _temp5
	sec
	sbc     #$02
	sta     _temp5
	bcs     L2AB6
	dec     _temp5+1
;
; temp_x = (char)temp5;   // low byte
;
L2AB6:	lda     _temp5
	sta     _temp_x
;
; temp_room = temp5 >> 8; // high byte
;
	lda     _temp5+1
	sta     _temp_room
;
; if (bg_collision_sub())
;
	jsr     _bg_collision_sub
	tax
	beq     L33C0
;
; return 1;
;
	ldx     #$00
	lda     #$01
	rts
;
; }
;
L33C0:	rts

.endproc

; ---------------------------------------------------------------
; unsigned char __near__ get_position (void)
; ---------------------------------------------------------------

.segment	"CODE"

.proc	_get_position: near

.segment	"CODE"

;
; temp5 -= scroll_x;
;
	lda     _scroll_x
	eor     #$FF
	sec
	adc     _temp5
	sta     _temp5
	lda     _scroll_x+1
	eor     #$FF
	adc     _temp5+1
	sta     _temp5+1
;
; temp_x = temp5 & 0xff;
;
	lda     _temp5
	ldx     #$00
	sta     _temp_x
;
; if (high_byte(temp5))
;
	lda     _temp5+1
	beq     L33C1
;
; return 0;
;
	txa
	rts
;
; return 1;
;
L33C1:	lda     #$01
;
; }
;
	rts

.endproc

; ---------------------------------------------------------------
; void __near__ bg_collision_fast (void)
; ---------------------------------------------------------------

.segment	"CODE"

.proc	_bg_collision_fast: near

.segment	"CODE"

;
; collision_L = 0;
;
	lda     #$00
	sta     _collision_L
;
; collision_R = 0;
;
	sta     _collision_R
;
; if (Generic.y >= 0xf0)
;
	lda     _Generic+1
	cmp     #$F0
;
; return;
;
	bcs     L2A1F
;
; temp5 = Generic.x + scroll_x;
;
	lda     _Generic
	clc
	adc     _scroll_x
	pha
	lda     #$00
	adc     _scroll_x+1
	sta     _temp5+1
	pla
	sta     _temp5
;
; temp_x = temp5 & 0xff;  // low byte x
;
	sta     _temp_x
;
; temp_room = temp5 >> 8; // high byte x
;
	lda     _temp5+1
	sta     _temp_room
;
; temp_y = Generic.y + 6; // y middle
;
	lda     _Generic+1
	clc
	adc     #$06
	sta     _temp_y
;
; bg_collision_sub();
;
	jsr     _bg_collision_sub
;
; if (bg_collision_sub() & COL_ALL)
;
	jsr     _bg_collision_sub
	and     #$40
	beq     L33C2
;
; ++collision_L;
;
	inc     _collision_L
;
; temp5 += Generic.width;
;
L33C2:	lda     _Generic+2
	clc
	adc     _temp5
	sta     _temp5
	lda     #$00
	adc     _temp5+1
	sta     _temp5+1
;
; temp_x = temp5 & 0xff;  // low byte x
;
	lda     _temp5
	sta     _temp_x
;
; temp_room = temp5 >> 8; // high byte x
;
	lda     _temp5+1
	sta     _temp_room
;
; bg_collision_sub();
;
	jsr     _bg_collision_sub
;
; if (bg_collision_sub() & COL_ALL)
;
	jsr     _bg_collision_sub
	and     #$40
	beq     L2A1F
;
; ++collision_R;
;
	inc     _collision_R
;
; }
;
L2A1F:	rts

.endproc

; ---------------------------------------------------------------
; unsigned char __near__ bg_coll_ladder (void)
; ---------------------------------------------------------------

.segment	"CODE"

.proc	_bg_coll_ladder: near

.segment	"CODE"

;
; temp5 = Generic.x + scroll_x + Generic.width;
;
	lda     _Generic
	clc
	adc     _scroll_x
	pha
	lda     #$00
	adc     _scroll_x+1
	tax
	pla
	clc
	adc     _Generic+2
	bcc     L33C3
	inx
L33C3:	sta     _temp5
	stx     _temp5+1
;
; temp_x = (char)temp5; // low byte
;
	lda     _temp5
	sta     _temp_x
;
; temp_y = Generic.y + Generic.height;
;
	lda     _Generic+1
	clc
	adc     _Generic+3
	sta     _temp_y
;
; temp_y -= 2;
;
	sec
	sbc     #$02
	sta     _temp_y
;
; if (bg_collision_sub() & COL_LADDER)
;
	jsr     _bg_collision_sub
	ldx     #$00
	and     #$01
	beq     L33C6
;
; return 1;
;
	lda     #$01
	rts
;
; }
;
L33C6:	rts

.endproc

; ---------------------------------------------------------------
; void __near__ draw_player_health_meter (void)
; ---------------------------------------------------------------

.segment	"CODE"

.proc	_draw_player_health_meter: near

.segment	"CODE"

;
; switch (BoxGuy1.health)
;
	lda     _BoxGuy1+8
;
; }
;
	cmp     #$01
	jeq     L2B7E
	cmp     #$02
	jeq     L2B78
	cmp     #$03
	jeq     L2B72
	cmp     #$04
	jeq     L2B6C
	cmp     #$05
	jeq     L2B66
	cmp     #$06
	jeq     L2B60
	cmp     #$07
	jeq     L2B5A
	cmp     #$08
	jeq     L2B54
	cmp     #$09
	jeq     L2B4E
	cmp     #$0A
	jeq     L2B48
	cmp     #$0B
	jeq     L2B42
	cmp     #$0C
	jeq     L2B3C
	cmp     #$0D
	jeq     L2B36
	cmp     #$0E
	jeq     L2B30
	cmp     #$0F
	jeq     L2B2A
	cmp     #$10
	jeq     L2B24
	cmp     #$11
	jeq     L2B1E
	cmp     #$12
	jeq     L2B18
	cmp     #$13
	jeq     L2B12
	cmp     #$14
	jeq     L2B0C
	cmp     #$15
	jeq     L2B06
	cmp     #$16
	jeq     L2B00
	cmp     #$17
	beq     L2AFA
	cmp     #$18
	beq     L2AF4
	cmp     #$19
	beq     L2AEE
	cmp     #$1A
	beq     L2AE8
	cmp     #$1B
	beq     L2AE2
	cmp     #$1C
	jne     L2B83
;
; oam_meta_spr(0x16, 0x16, animate_meter28_data);
;
	jsr     decsp2
	lda     #$16
	ldy     #$01
	sta     (sp),y
	dey
	sta     (sp),y
	lda     #<(_animate_meter28_data)
	ldx     #>(_animate_meter28_data)
	jmp     _oam_meta_spr
;
; oam_meta_spr(0x16, 0x16, animate_meter27_data);
;
L2AE2:	jsr     decsp2
	lda     #$16
	ldy     #$01
	sta     (sp),y
	dey
	sta     (sp),y
	lda     #<(_animate_meter27_data)
	ldx     #>(_animate_meter27_data)
	jmp     _oam_meta_spr
;
; oam_meta_spr(0x16, 0x16, animate_meter26_data);
;
L2AE8:	jsr     decsp2
	lda     #$16
	ldy     #$01
	sta     (sp),y
	dey
	sta     (sp),y
	lda     #<(_animate_meter26_data)
	ldx     #>(_animate_meter26_data)
	jmp     _oam_meta_spr
;
; oam_meta_spr(0x16, 0x16, animate_meter25_data);
;
L2AEE:	jsr     decsp2
	lda     #$16
	ldy     #$01
	sta     (sp),y
	dey
	sta     (sp),y
	lda     #<(_animate_meter25_data)
	ldx     #>(_animate_meter25_data)
	jmp     _oam_meta_spr
;
; oam_meta_spr(0x16, 0x16, animate_meter24_data);
;
L2AF4:	jsr     decsp2
	lda     #$16
	ldy     #$01
	sta     (sp),y
	dey
	sta     (sp),y
	lda     #<(_animate_meter24_data)
	ldx     #>(_animate_meter24_data)
	jmp     _oam_meta_spr
;
; oam_meta_spr(0x16, 0x16, animate_meter23_data);
;
L2AFA:	jsr     decsp2
	lda     #$16
	ldy     #$01
	sta     (sp),y
	dey
	sta     (sp),y
	lda     #<(_animate_meter23_data)
	ldx     #>(_animate_meter23_data)
	jmp     _oam_meta_spr
;
; oam_meta_spr(0x16, 0x16, animate_meter22_data);
;
L2B00:	jsr     decsp2
	lda     #$16
	ldy     #$01
	sta     (sp),y
	dey
	sta     (sp),y
	lda     #<(_animate_meter22_data)
	ldx     #>(_animate_meter22_data)
	jmp     _oam_meta_spr
;
; oam_meta_spr(0x16, 0x16, animate_meter21_data);
;
L2B06:	jsr     decsp2
	lda     #$16
	ldy     #$01
	sta     (sp),y
	dey
	sta     (sp),y
	lda     #<(_animate_meter21_data)
	ldx     #>(_animate_meter21_data)
	jmp     _oam_meta_spr
;
; oam_meta_spr(0x16, 0x16, animate_meter20_data);
;
L2B0C:	jsr     decsp2
	lda     #$16
	ldy     #$01
	sta     (sp),y
	dey
	sta     (sp),y
	lda     #<(_animate_meter20_data)
	ldx     #>(_animate_meter20_data)
	jmp     _oam_meta_spr
;
; oam_meta_spr(0x16, 0x16, animate_meter19_data);
;
L2B12:	jsr     decsp2
	lda     #$16
	ldy     #$01
	sta     (sp),y
	dey
	sta     (sp),y
	lda     #<(_animate_meter19_data)
	ldx     #>(_animate_meter19_data)
	jmp     _oam_meta_spr
;
; oam_meta_spr(0x16, 0x16, animate_meter18_data);
;
L2B18:	jsr     decsp2
	lda     #$16
	ldy     #$01
	sta     (sp),y
	dey
	sta     (sp),y
	lda     #<(_animate_meter18_data)
	ldx     #>(_animate_meter18_data)
	jmp     _oam_meta_spr
;
; oam_meta_spr(0x16, 0x16, animate_meter17_data);
;
L2B1E:	jsr     decsp2
	lda     #$16
	ldy     #$01
	sta     (sp),y
	dey
	sta     (sp),y
	lda     #<(_animate_meter17_data)
	ldx     #>(_animate_meter17_data)
	jmp     _oam_meta_spr
;
; oam_meta_spr(0x16, 0x16, animate_meter16_data);
;
L2B24:	jsr     decsp2
	lda     #$16
	ldy     #$01
	sta     (sp),y
	dey
	sta     (sp),y
	lda     #<(_animate_meter16_data)
	ldx     #>(_animate_meter16_data)
	jmp     _oam_meta_spr
;
; oam_meta_spr(0x16, 0x16, animate_meter15_data);
;
L2B2A:	jsr     decsp2
	lda     #$16
	ldy     #$01
	sta     (sp),y
	dey
	sta     (sp),y
	lda     #<(_animate_meter15_data)
	ldx     #>(_animate_meter15_data)
	jmp     _oam_meta_spr
;
; oam_meta_spr(0x16, 0x16, animate_meter14_data);
;
L2B30:	jsr     decsp2
	lda     #$16
	ldy     #$01
	sta     (sp),y
	dey
	sta     (sp),y
	lda     #<(_animate_meter14_data)
	ldx     #>(_animate_meter14_data)
	jmp     _oam_meta_spr
;
; oam_meta_spr(0x16, 0x16, animate_meter13_data);
;
L2B36:	jsr     decsp2
	lda     #$16
	ldy     #$01
	sta     (sp),y
	dey
	sta     (sp),y
	lda     #<(_animate_meter13_data)
	ldx     #>(_animate_meter13_data)
	jmp     _oam_meta_spr
;
; oam_meta_spr(0x16, 0x16, animate_meter12_data);
;
L2B3C:	jsr     decsp2
	lda     #$16
	ldy     #$01
	sta     (sp),y
	dey
	sta     (sp),y
	lda     #<(_animate_meter12_data)
	ldx     #>(_animate_meter12_data)
	jmp     _oam_meta_spr
;
; oam_meta_spr(0x16, 0x16, animate_meter11_data);
;
L2B42:	jsr     decsp2
	lda     #$16
	ldy     #$01
	sta     (sp),y
	dey
	sta     (sp),y
	lda     #<(_animate_meter11_data)
	ldx     #>(_animate_meter11_data)
	jmp     _oam_meta_spr
;
; oam_meta_spr(0x16, 0x16, animate_meter10_data);
;
L2B48:	jsr     decsp2
	lda     #$16
	ldy     #$01
	sta     (sp),y
	dey
	sta     (sp),y
	lda     #<(_animate_meter10_data)
	ldx     #>(_animate_meter10_data)
	jmp     _oam_meta_spr
;
; oam_meta_spr(0x16, 0x16, animate_meter9_data);
;
L2B4E:	jsr     decsp2
	lda     #$16
	ldy     #$01
	sta     (sp),y
	dey
	sta     (sp),y
	lda     #<(_animate_meter9_data)
	ldx     #>(_animate_meter9_data)
	jmp     _oam_meta_spr
;
; oam_meta_spr(0x16, 0x16, animate_meter8_data);
;
L2B54:	jsr     decsp2
	lda     #$16
	ldy     #$01
	sta     (sp),y
	dey
	sta     (sp),y
	lda     #<(_animate_meter8_data)
	ldx     #>(_animate_meter8_data)
	jmp     _oam_meta_spr
;
; oam_meta_spr(0x16, 0x16, animate_meter7_data);
;
L2B5A:	jsr     decsp2
	lda     #$16
	ldy     #$01
	sta     (sp),y
	dey
	sta     (sp),y
	lda     #<(_animate_meter7_data)
	ldx     #>(_animate_meter7_data)
	jmp     _oam_meta_spr
;
; oam_meta_spr(0x16, 0x16, animate_meter6_data);
;
L2B60:	jsr     decsp2
	lda     #$16
	ldy     #$01
	sta     (sp),y
	dey
	sta     (sp),y
	lda     #<(_animate_meter6_data)
	ldx     #>(_animate_meter6_data)
	jmp     _oam_meta_spr
;
; oam_meta_spr(0x16, 0x16, animate_meter5_data);
;
L2B66:	jsr     decsp2
	lda     #$16
	ldy     #$01
	sta     (sp),y
	dey
	sta     (sp),y
	lda     #<(_animate_meter5_data)
	ldx     #>(_animate_meter5_data)
	jmp     _oam_meta_spr
;
; oam_meta_spr(0x16, 0x16, animate_meter4_data);
;
L2B6C:	jsr     decsp2
	lda     #$16
	ldy     #$01
	sta     (sp),y
	dey
	sta     (sp),y
	lda     #<(_animate_meter4_data)
	ldx     #>(_animate_meter4_data)
	jmp     _oam_meta_spr
;
; oam_meta_spr(0x16, 0x16, animate_meter3_data);
;
L2B72:	jsr     decsp2
	lda     #$16
	ldy     #$01
	sta     (sp),y
	dey
	sta     (sp),y
	lda     #<(_animate_meter3_data)
	ldx     #>(_animate_meter3_data)
	jmp     _oam_meta_spr
;
; oam_meta_spr(0x16, 0x16, animate_meter2_data);
;
L2B78:	jsr     decsp2
	lda     #$16
	ldy     #$01
	sta     (sp),y
	dey
	sta     (sp),y
	lda     #<(_animate_meter2_data)
	ldx     #>(_animate_meter2_data)
	jmp     _oam_meta_spr
;
; oam_meta_spr(0x16, 0x16, animate_meter1_data);
;
L2B7E:	jsr     decsp2
	lda     #$16
	ldy     #$01
	sta     (sp),y
	dey
	sta     (sp),y
	lda     #<(_animate_meter1_data)
	ldx     #>(_animate_meter1_data)
	jmp     _oam_meta_spr
;
; oam_meta_spr(0x16, 0x16, animate_meter0_data);
;
L2B83:	jsr     decsp2
	lda     #$16
	ldy     #$01
	sta     (sp),y
	dey
	sta     (sp),y
	lda     #<(_animate_meter0_data)
	ldx     #>(_animate_meter0_data)
	jmp     _oam_meta_spr

.endproc

; ---------------------------------------------------------------
; void __near__ draw_player_sprites (void)
; ---------------------------------------------------------------

.segment	"CODE"

.proc	_draw_player_sprites: near

.segment	"CODE"

;
; draw_player_health_meter();
;
	jsr     _draw_player_health_meter
;
; temp_x = BoxGuy1.x >> 8;
;
	lda     _BoxGuy1+1
	sta     _temp_x
;
; temp_y = BoxGuy1.y >> 8;
;
	lda     _BoxGuy1+3
	sta     _temp_y
;
; if (temp_x == 0)
;
	lda     _temp_x
	bne     L33CB
;
; temp_x = 1;
;
	lda     #$01
	sta     _temp_x
;
; if (temp_y == 0)
;
L33CB:	lda     _temp_y
	bne     L33CC
;
; temp_y = 1;
;
	lda     #$01
	sta     _temp_y
;
; ++sprite_frame_counter;
;
L33CC:	inc     _sprite_frame_counter
;
; if (player_in_hitstun)
;
	lda     _player_in_hitstun
	beq     L2B97
;
; player_in_hitstun--;
;
	dec     _player_in_hitstun
;
; if (direction == LEFT)
;
	lda     _direction
	bne     L2B9A
;
; oam_meta_spr(temp_x, temp_y, animate_recoilleft_data);
;
	jsr     decsp2
	lda     _temp_x
	ldy     #$01
	sta     (sp),y
	lda     _temp_y
	dey
	sta     (sp),y
	lda     #<(_animate_recoilleft_data)
	ldx     #>(_animate_recoilleft_data)
	jmp     _oam_meta_spr
;
; oam_meta_spr(temp_x, temp_y, animate_recoilright_data);
;
L2B9A:	jsr     decsp2
	lda     _temp_x
	ldy     #$01
	sta     (sp),y
	lda     _temp_y
	dey
	sta     (sp),y
	lda     #<(_animate_recoilright_data)
	ldx     #>(_animate_recoilright_data)
	jmp     _oam_meta_spr
;
; if (player_shooting)
;
L2B97:	lda     _player_shooting
	jeq     L2BA5
;
; ++player_shooting;
;
	inc     _player_shooting
;
; if (player_shooting > 15)
;
	lda     _player_shooting
	cmp     #$10
	bcc     L33CD
;
; player_shooting = 0;
;
	lda     #$00
	sta     _player_shooting
;
; if (direction == LEFT)
;
L33CD:	lda     _direction
	jne     L2BAC
;
; if (player_in_air)
;
	lda     _player_in_air
	beq     L2BAE
;
; oam_meta_spr(temp_x, temp_y, animate_playerjumpleftshoot_data);
;
	jsr     decsp2
	lda     _temp_x
	ldy     #$01
	sta     (sp),y
	lda     _temp_y
	dey
	sta     (sp),y
	lda     #<(_animate_playerjumpleftshoot_data)
	ldx     #>(_animate_playerjumpleftshoot_data)
;
; else
;
	jmp     _oam_meta_spr
;
; if (BoxGuy1.vel_x)
;
L2BAE:	lda     _BoxGuy1+4
	ora     _BoxGuy1+4+1
	beq     L2BB5
;
; if (sprite_frame_counter < 8)
;
	lda     _sprite_frame_counter
	cmp     #$08
	bcs     L33CE
;
; oam_meta_spr(temp_x, temp_y, animate_playerrunshoot1left_data);
;
	jsr     decsp2
	lda     _temp_x
	ldy     #$01
	sta     (sp),y
	lda     _temp_y
	dey
	sta     (sp),y
	lda     #<(_animate_playerrunshoot1left_data)
	ldx     #>(_animate_playerrunshoot1left_data)
;
; else if (sprite_frame_counter < 15)
;
	jmp     _oam_meta_spr
L33CE:	lda     _sprite_frame_counter
	cmp     #$0F
	bcs     L33CF
;
; oam_meta_spr(temp_x, temp_y, animate_playerrunshoot2left_data);
;
	jsr     decsp2
	lda     _temp_x
	ldy     #$01
	sta     (sp),y
	lda     _temp_y
	dey
	sta     (sp),y
	lda     #<(_animate_playerrunshoot2left_data)
	ldx     #>(_animate_playerrunshoot2left_data)
;
; else
;
	jmp     _oam_meta_spr
;
; sprite_frame_counter = 0;
;
L33CF:	lda     #$00
	sta     _sprite_frame_counter
;
; oam_meta_spr(temp_x, temp_y, animate_playerrunshoot2left_data);
;
	jsr     decsp2
	lda     _temp_x
	ldy     #$01
	sta     (sp),y
	lda     _temp_y
	dey
	sta     (sp),y
	lda     #<(_animate_playerrunshoot2left_data)
	ldx     #>(_animate_playerrunshoot2left_data)
;
; else
;
	jmp     _oam_meta_spr
;
; oam_meta_spr(temp_x, temp_y, animate_playerstandshootleft_data);
;
L2BB5:	jsr     decsp2
	lda     _temp_x
	ldy     #$01
	sta     (sp),y
	lda     _temp_y
	dey
	sta     (sp),y
	lda     #<(_animate_playerstandshootleft_data)
	ldx     #>(_animate_playerstandshootleft_data)
	jmp     _oam_meta_spr
;
; if (player_in_air)
;
L2BAC:	lda     _player_in_air
	beq     L2BD1
;
; oam_meta_spr(temp_x, temp_y, animate_playerjumprightshoot_data);
;
	jsr     decsp2
	lda     _temp_x
	ldy     #$01
	sta     (sp),y
	lda     _temp_y
	dey
	sta     (sp),y
	lda     #<(_animate_playerjumprightshoot_data)
	ldx     #>(_animate_playerjumprightshoot_data)
	jmp     _oam_meta_spr
;
; if (BoxGuy1.vel_x)
;
L2BD1:	lda     _BoxGuy1+4
	ora     _BoxGuy1+4+1
	beq     L2BD8
;
; if (sprite_frame_counter < 8)
;
	lda     _sprite_frame_counter
	cmp     #$08
	bcs     L33D0
;
; oam_meta_spr(temp_x, temp_y, animate_playerrunshoot1right_data);
;
	jsr     decsp2
	lda     _temp_x
	ldy     #$01
	sta     (sp),y
	lda     _temp_y
	dey
	sta     (sp),y
	lda     #<(_animate_playerrunshoot1right_data)
	ldx     #>(_animate_playerrunshoot1right_data)
;
; else if (sprite_frame_counter < 15)
;
	jmp     _oam_meta_spr
L33D0:	lda     _sprite_frame_counter
	cmp     #$0F
	bcs     L33D1
;
; oam_meta_spr(temp_x, temp_y, animate_playerrunshoot2right_data);
;
	jsr     decsp2
	lda     _temp_x
	ldy     #$01
	sta     (sp),y
	lda     _temp_y
	dey
	sta     (sp),y
	lda     #<(_animate_playerrunshoot2right_data)
	ldx     #>(_animate_playerrunshoot2right_data)
;
; else
;
	jmp     _oam_meta_spr
;
; sprite_frame_counter = 0;
;
L33D1:	lda     #$00
	sta     _sprite_frame_counter
;
; oam_meta_spr(temp_x, temp_y, animate_playerrunshoot2right_data);
;
	jsr     decsp2
	lda     _temp_x
	ldy     #$01
	sta     (sp),y
	lda     _temp_y
	dey
	sta     (sp),y
	lda     #<(_animate_playerrunshoot2right_data)
	ldx     #>(_animate_playerrunshoot2right_data)
	jmp     _oam_meta_spr
;
; oam_meta_spr(temp_x, temp_y, animate_playerstandshootright_data);
;
L2BD8:	jsr     decsp2
	lda     _temp_x
	ldy     #$01
	sta     (sp),y
	lda     _temp_y
	dey
	sta     (sp),y
	lda     #<(_animate_playerstandshootright_data)
	ldx     #>(_animate_playerstandshootright_data)
	jmp     _oam_meta_spr
;
; if (player_on_ladder)
;
L2BA5:	lda     _player_on_ladder
	jeq     L2BF4
;
; if (BoxGuy1.vel_y != 0)
;
	lda     _BoxGuy1+6
	ora     _BoxGuy1+6+1
	jeq     L2BF6
;
; if (sprite_frame_counter < 10)
;
	lda     _sprite_frame_counter
	cmp     #$0A
	bcs     L33D2
;
; oam_meta_spr(temp_x, temp_y, animate_playerclimb1_data);
;
	jsr     decsp2
	lda     _temp_x
	ldy     #$01
	sta     (sp),y
	lda     _temp_y
	dey
	sta     (sp),y
	lda     #<(_animate_playerclimb1_data)
	ldx     #>(_animate_playerclimb1_data)
	jmp     _oam_meta_spr
;
; else if (sprite_frame_counter < 20)
;
L33D2:	lda     _sprite_frame_counter
	cmp     #$14
	bcs     L33D3
;
; oam_meta_spr(temp_x, temp_y, animate_playerclimb2_data);
;
	jsr     decsp2
	lda     _temp_x
	ldy     #$01
	sta     (sp),y
	lda     _temp_y
	dey
	sta     (sp),y
	lda     #<(_animate_playerclimb2_data)
	ldx     #>(_animate_playerclimb2_data)
	jmp     _oam_meta_spr
;
; else if (sprite_frame_counter < 30)
;
L33D3:	lda     _sprite_frame_counter
	cmp     #$1E
	bcs     L33D4
;
; oam_meta_spr(temp_x, temp_y, animate_playerclimb3_data);
;
	jsr     decsp2
	lda     _temp_x
	ldy     #$01
	sta     (sp),y
	lda     _temp_y
	dey
	sta     (sp),y
	lda     #<(_animate_playerclimb3_data)
	ldx     #>(_animate_playerclimb3_data)
	jmp     _oam_meta_spr
;
; else if (sprite_frame_counter < 40)
;
L33D4:	lda     _sprite_frame_counter
	cmp     #$28
	bcs     L33D5
;
; oam_meta_spr(temp_x, temp_y, animate_playerclimb2_data);
;
	jsr     decsp2
	lda     _temp_x
	ldy     #$01
	sta     (sp),y
	lda     _temp_y
	dey
	sta     (sp),y
	lda     #<(_animate_playerclimb2_data)
	ldx     #>(_animate_playerclimb2_data)
	jmp     _oam_meta_spr
;
; if (sprite_frame_counter < 50)
;
L33D5:	lda     _sprite_frame_counter
	cmp     #$32
	bcs     L33D6
;
; oam_meta_spr(temp_x, temp_y, animate_playerclimb1_data);
;
	jsr     decsp2
	lda     _temp_x
	ldy     #$01
	sta     (sp),y
	lda     _temp_y
	dey
	sta     (sp),y
	lda     #<(_animate_playerclimb1_data)
	ldx     #>(_animate_playerclimb1_data)
	jmp     _oam_meta_spr
;
; sprite_frame_counter = 0;
;
L33D6:	lda     #$00
	sta     _sprite_frame_counter
;
; oam_meta_spr(temp_x, temp_y, animate_playerclimb1_data);
;
	jsr     decsp2
	lda     _temp_x
	ldy     #$01
	sta     (sp),y
	lda     _temp_y
	dey
	sta     (sp),y
	lda     #<(_animate_playerclimb1_data)
	ldx     #>(_animate_playerclimb1_data)
	jmp     _oam_meta_spr
;
; oam_meta_spr(temp_x, temp_y, animate_playerclimb1_data);
;
L2BF6:	jsr     decsp2
	lda     _temp_x
	ldy     #$01
	sta     (sp),y
	lda     _temp_y
	dey
	sta     (sp),y
	lda     #<(_animate_playerclimb1_data)
	ldx     #>(_animate_playerclimb1_data)
	jmp     _oam_meta_spr
;
; else if (player_in_air) // aka, falling
;
L2BF4:	lda     _player_in_air
	jeq     L2C27
;
; if (player_jumping)
;
	lda     _player_jumping
	beq     L2C29
;
; if (direction == LEFT)
;
	lda     _direction
	bne     L2C2B
;
; oam_meta_spr(temp_x, temp_y, animate_playerjumpleft_data);
;
	jsr     decsp2
	lda     _temp_x
	ldy     #$01
	sta     (sp),y
	lda     _temp_y
	dey
	sta     (sp),y
	lda     #<(_animate_playerjumpleft_data)
	ldx     #>(_animate_playerjumpleft_data)
;
; else
;
	jmp     _oam_meta_spr
;
; oam_meta_spr(temp_x, temp_y, animate_playerjumpright_data);
;
L2C2B:	jsr     decsp2
	lda     _temp_x
	ldy     #$01
	sta     (sp),y
	lda     _temp_y
	dey
	sta     (sp),y
	lda     #<(_animate_playerjumpright_data)
	ldx     #>(_animate_playerjumpright_data)
	jmp     _oam_meta_spr
;
; if (direction == LEFT)
;
L2C29:	lda     _direction
	bne     L33D9
;
; if (sprite_frame_counter < 8)
;
	lda     _sprite_frame_counter
	cmp     #$08
	bcs     L33D7
;
; oam_meta_spr(temp_x, temp_y, animate_playerfallwiggle1left_data);
;
	jsr     decsp2
	lda     _temp_x
	ldy     #$01
	sta     (sp),y
	lda     _temp_y
	dey
	sta     (sp),y
	lda     #<(_animate_playerfallwiggle1left_data)
	ldx     #>(_animate_playerfallwiggle1left_data)
;
; else if (sprite_frame_counter < 15)
;
	jmp     _oam_meta_spr
L33D7:	lda     _sprite_frame_counter
	cmp     #$0F
	bcs     L33D8
;
; oam_meta_spr(temp_x, temp_y, animate_playerfallwiggle2leftshoot_data);
;
	jsr     decsp2
	lda     _temp_x
	ldy     #$01
	sta     (sp),y
	lda     _temp_y
	dey
	sta     (sp),y
	lda     #<(_animate_playerfallwiggle2leftshoot_data)
	ldx     #>(_animate_playerfallwiggle2leftshoot_data)
;
; else
;
	jmp     _oam_meta_spr
;
; sprite_frame_counter = 0;
;
L33D8:	lda     #$00
	sta     _sprite_frame_counter
;
; oam_meta_spr(temp_x, temp_y, animate_playerfallwiggle2leftshoot_data);
;
	jsr     decsp2
	lda     _temp_x
	ldy     #$01
	sta     (sp),y
	lda     _temp_y
	dey
	sta     (sp),y
	lda     #<(_animate_playerfallwiggle2leftshoot_data)
	ldx     #>(_animate_playerfallwiggle2leftshoot_data)
	jmp     _oam_meta_spr
;
; if (sprite_frame_counter < 8)
;
L33D9:	lda     _sprite_frame_counter
	cmp     #$08
	bcs     L33DA
;
; oam_meta_spr(temp_x, temp_y, animate_playerfallwiggle1right_data);
;
	jsr     decsp2
	lda     _temp_x
	ldy     #$01
	sta     (sp),y
	lda     _temp_y
	dey
	sta     (sp),y
	lda     #<(_animate_playerfallwiggle1right_data)
	ldx     #>(_animate_playerfallwiggle1right_data)
	jmp     _oam_meta_spr
;
; else if (sprite_frame_counter < 15)
;
L33DA:	lda     _sprite_frame_counter
	cmp     #$0F
	bcs     L33DB
;
; oam_meta_spr(temp_x, temp_y, animate_playerfallwiggle2right_data);
;
	jsr     decsp2
	lda     _temp_x
	ldy     #$01
	sta     (sp),y
	lda     _temp_y
	dey
	sta     (sp),y
	lda     #<(_animate_playerfallwiggle2right_data)
	ldx     #>(_animate_playerfallwiggle2right_data)
	jmp     _oam_meta_spr
;
; sprite_frame_counter = 0;
;
L33DB:	lda     #$00
	sta     _sprite_frame_counter
;
; oam_meta_spr(temp_x, temp_y, animate_playerfallwiggle2right_data);
;
	jsr     decsp2
	lda     _temp_x
	ldy     #$01
	sta     (sp),y
	lda     _temp_y
	dey
	sta     (sp),y
	lda     #<(_animate_playerfallwiggle2right_data)
	ldx     #>(_animate_playerfallwiggle2right_data)
	jmp     _oam_meta_spr
;
; else if (direction == LEFT) // not jumping
;
L2C27:	lda     _direction
	jne     L2C63
;
; if (BoxGuy1.vel_x)
;
	lda     _BoxGuy1+4
	ora     _BoxGuy1+4+1
	jeq     L33E6
;
; if (sprite_frame_counter < 4)
;
	lda     _sprite_frame_counter
	cmp     #$04
	bcs     L33DC
;
; oam_meta_spr(temp_x, temp_y, animate_playerrun1left_data);
;
	jsr     decsp2
	lda     _temp_x
	ldy     #$01
	sta     (sp),y
	lda     _temp_y
	dey
	sta     (sp),y
	lda     #<(_animate_playerrun1left_data)
	ldx     #>(_animate_playerrun1left_data)
;
; else if (sprite_frame_counter < 8)
;
	jmp     _oam_meta_spr
L33DC:	lda     _sprite_frame_counter
	cmp     #$08
	bcs     L33DD
;
; oam_meta_spr(temp_x, temp_y, animate_playerrun2left_data);
;
	jsr     decsp2
	lda     _temp_x
	ldy     #$01
	sta     (sp),y
	lda     _temp_y
	dey
	sta     (sp),y
	lda     #<(_animate_playerrun2left_data)
	ldx     #>(_animate_playerrun2left_data)
;
; else if (sprite_frame_counter < 12)
;
	jmp     _oam_meta_spr
L33DD:	lda     _sprite_frame_counter
	cmp     #$0C
	bcs     L33DE
;
; oam_meta_spr(temp_x, temp_y, animate_playerrun3left_data);
;
	jsr     decsp2
	lda     _temp_x
	ldy     #$01
	sta     (sp),y
	lda     _temp_y
	dey
	sta     (sp),y
	lda     #<(_animate_playerrun3left_data)
	ldx     #>(_animate_playerrun3left_data)
;
; else if (sprite_frame_counter < 16)
;
	jmp     _oam_meta_spr
L33DE:	lda     _sprite_frame_counter
	cmp     #$10
	bcs     L33DF
;
; oam_meta_spr(temp_x, temp_y, animate_playerrun4left_data);
;
	jsr     decsp2
	lda     _temp_x
	ldy     #$01
	sta     (sp),y
	lda     _temp_y
	dey
	sta     (sp),y
	lda     #<(_animate_playerrun4left_data)
	ldx     #>(_animate_playerrun4left_data)
;
; else if (sprite_frame_counter < 20)
;
	jmp     _oam_meta_spr
L33DF:	lda     _sprite_frame_counter
	cmp     #$14
	bcs     L33E0
;
; oam_meta_spr(temp_x, temp_y, animate_playerrun5left_data);
;
	jsr     decsp2
	lda     _temp_x
	ldy     #$01
	sta     (sp),y
	lda     _temp_y
	dey
	sta     (sp),y
	lda     #<(_animate_playerrun5left_data)
	ldx     #>(_animate_playerrun5left_data)
;
; else if (sprite_frame_counter < 24)
;
	jmp     _oam_meta_spr
L33E0:	lda     _sprite_frame_counter
	cmp     #$18
	bcs     L33E1
;
; oam_meta_spr(temp_x, temp_y, animate_playerrun4left_data);
;
	jsr     decsp2
	lda     _temp_x
	ldy     #$01
	sta     (sp),y
	lda     _temp_y
	dey
	sta     (sp),y
	lda     #<(_animate_playerrun4left_data)
	ldx     #>(_animate_playerrun4left_data)
;
; else if (sprite_frame_counter < 28)
;
	jmp     _oam_meta_spr
L33E1:	lda     _sprite_frame_counter
	cmp     #$1C
	bcs     L33E2
;
; oam_meta_spr(temp_x, temp_y, animate_playerrun3left_data);
;
	jsr     decsp2
	lda     _temp_x
	ldy     #$01
	sta     (sp),y
	lda     _temp_y
	dey
	sta     (sp),y
	lda     #<(_animate_playerrun3left_data)
	ldx     #>(_animate_playerrun3left_data)
;
; else if (sprite_frame_counter < 32)
;
	jmp     _oam_meta_spr
L33E2:	lda     _sprite_frame_counter
	cmp     #$20
	bcs     L33E3
;
; oam_meta_spr(temp_x, temp_y, animate_playerrun2left_data);
;
	jsr     decsp2
	lda     _temp_x
	ldy     #$01
	sta     (sp),y
	lda     _temp_y
	dey
	sta     (sp),y
	lda     #<(_animate_playerrun2left_data)
	ldx     #>(_animate_playerrun2left_data)
;
; else if (sprite_frame_counter < 35)
;
	jmp     _oam_meta_spr
L33E3:	lda     _sprite_frame_counter
	cmp     #$23
	bcs     L33E4
;
; oam_meta_spr(temp_x, temp_y, animate_playerrun1left_data);
;
	jsr     decsp2
	lda     _temp_x
	ldy     #$01
	sta     (sp),y
	lda     _temp_y
	dey
	sta     (sp),y
	lda     #<(_animate_playerrun1left_data)
	ldx     #>(_animate_playerrun1left_data)
;
; else
;
	jmp     _oam_meta_spr
;
; sprite_frame_counter = 0;
;
L33E4:	lda     #$00
	sta     _sprite_frame_counter
;
; oam_meta_spr(temp_x, temp_y, animate_playerrun1left_data);
;
	jsr     decsp2
	lda     _temp_x
	ldy     #$01
	sta     (sp),y
	lda     _temp_y
	dey
	sta     (sp),y
	lda     #<(_animate_playerrun1left_data)
	ldx     #>(_animate_playerrun1left_data)
	jmp     _oam_meta_spr
;
; sprite_frame_counter = 0;
;
L33E6:	sta     _sprite_frame_counter
;
; oam_meta_spr(temp_x, temp_y, animate_playerstandleft_data);
;
	jsr     decsp2
	lda     _temp_x
	ldy     #$01
	sta     (sp),y
	lda     _temp_y
	dey
	sta     (sp),y
	lda     #<(_animate_playerstandleft_data)
	ldx     #>(_animate_playerstandleft_data)
	jmp     _oam_meta_spr
;
; if (BoxGuy1.vel_x)
;
L2C63:	lda     _BoxGuy1+4
	ora     _BoxGuy1+4+1
	jeq     L33F0
;
; if (sprite_frame_counter < 4)
;
	lda     _sprite_frame_counter
	cmp     #$04
	bcs     L33E7
;
; oam_meta_spr(temp_x, temp_y, animate_playerrun1right_data);
;
	jsr     decsp2
	lda     _temp_x
	ldy     #$01
	sta     (sp),y
	lda     _temp_y
	dey
	sta     (sp),y
	lda     #<(_animate_playerrun1right_data)
	ldx     #>(_animate_playerrun1right_data)
	jmp     _oam_meta_spr
;
; else if (sprite_frame_counter < 8)
;
L33E7:	lda     _sprite_frame_counter
	cmp     #$08
	bcs     L33E8
;
; oam_meta_spr(temp_x, temp_y, animate_playerrun2right_data);
;
	jsr     decsp2
	lda     _temp_x
	ldy     #$01
	sta     (sp),y
	lda     _temp_y
	dey
	sta     (sp),y
	lda     #<(_animate_playerrun2right_data)
	ldx     #>(_animate_playerrun2right_data)
	jmp     _oam_meta_spr
;
; else if (sprite_frame_counter < 12)
;
L33E8:	lda     _sprite_frame_counter
	cmp     #$0C
	bcs     L33E9
;
; oam_meta_spr(temp_x, temp_y, animate_playerrun3right_data);
;
	jsr     decsp2
	lda     _temp_x
	ldy     #$01
	sta     (sp),y
	lda     _temp_y
	dey
	sta     (sp),y
	lda     #<(_animate_playerrun3right_data)
	ldx     #>(_animate_playerrun3right_data)
	jmp     _oam_meta_spr
;
; else if (sprite_frame_counter < 16)
;
L33E9:	lda     _sprite_frame_counter
	cmp     #$10
	bcs     L33EA
;
; oam_meta_spr(temp_x, temp_y, animate_playerrun4right_data);
;
	jsr     decsp2
	lda     _temp_x
	ldy     #$01
	sta     (sp),y
	lda     _temp_y
	dey
	sta     (sp),y
	lda     #<(_animate_playerrun4right_data)
	ldx     #>(_animate_playerrun4right_data)
	jmp     _oam_meta_spr
;
; else if (sprite_frame_counter < 20)
;
L33EA:	lda     _sprite_frame_counter
	cmp     #$14
	bcs     L33EB
;
; oam_meta_spr(temp_x, temp_y, animate_playerrun5right_data);
;
	jsr     decsp2
	lda     _temp_x
	ldy     #$01
	sta     (sp),y
	lda     _temp_y
	dey
	sta     (sp),y
	lda     #<(_animate_playerrun5right_data)
	ldx     #>(_animate_playerrun5right_data)
	jmp     _oam_meta_spr
;
; else if (sprite_frame_counter < 24)
;
L33EB:	lda     _sprite_frame_counter
	cmp     #$18
	bcs     L33EC
;
; oam_meta_spr(temp_x, temp_y, animate_playerrun4right_data);
;
	jsr     decsp2
	lda     _temp_x
	ldy     #$01
	sta     (sp),y
	lda     _temp_y
	dey
	sta     (sp),y
	lda     #<(_animate_playerrun4right_data)
	ldx     #>(_animate_playerrun4right_data)
	jmp     _oam_meta_spr
;
; else if (sprite_frame_counter < 28)
;
L33EC:	lda     _sprite_frame_counter
	cmp     #$1C
	bcs     L33ED
;
; oam_meta_spr(temp_x, temp_y, animate_playerrun3right_data);
;
	jsr     decsp2
	lda     _temp_x
	ldy     #$01
	sta     (sp),y
	lda     _temp_y
	dey
	sta     (sp),y
	lda     #<(_animate_playerrun3right_data)
	ldx     #>(_animate_playerrun3right_data)
	jmp     _oam_meta_spr
;
; else if (sprite_frame_counter < 32)
;
L33ED:	lda     _sprite_frame_counter
	cmp     #$20
	bcs     L33EE
;
; oam_meta_spr(temp_x, temp_y, animate_playerrun2right_data);
;
	jsr     decsp2
	lda     _temp_x
	ldy     #$01
	sta     (sp),y
	lda     _temp_y
	dey
	sta     (sp),y
	lda     #<(_animate_playerrun2right_data)
	ldx     #>(_animate_playerrun2right_data)
	jmp     _oam_meta_spr
;
; else if (sprite_frame_counter < 35)
;
L33EE:	lda     _sprite_frame_counter
	cmp     #$23
	bcs     L33EF
;
; oam_meta_spr(temp_x, temp_y, animate_playerrun1right_data);
;
	jsr     decsp2
	lda     _temp_x
	ldy     #$01
	sta     (sp),y
	lda     _temp_y
	dey
	sta     (sp),y
	lda     #<(_animate_playerrun1right_data)
	ldx     #>(_animate_playerrun1right_data)
	jmp     _oam_meta_spr
;
; sprite_frame_counter = 0;
;
L33EF:	lda     #$00
	sta     _sprite_frame_counter
;
; oam_meta_spr(temp_x, temp_y, animate_playerrun1right_data);
;
	jsr     decsp2
	lda     _temp_x
	ldy     #$01
	sta     (sp),y
	lda     _temp_y
	dey
	sta     (sp),y
	lda     #<(_animate_playerrun1right_data)
	ldx     #>(_animate_playerrun1right_data)
	jmp     _oam_meta_spr
;
; sprite_frame_counter = 0;
;
L33F0:	sta     _sprite_frame_counter
;
; oam_meta_spr(temp_x, temp_y, animate_playerstandright_data);
;
	jsr     decsp2
	lda     _temp_x
	ldy     #$01
	sta     (sp),y
	lda     _temp_y
	dey
	sta     (sp),y
	lda     #<(_animate_playerstandright_data)
	ldx     #>(_animate_playerstandright_data)
	jmp     _oam_meta_spr

.endproc

; ---------------------------------------------------------------
; void __near__ main (void)
; ---------------------------------------------------------------

.segment	"CODE"

.proc	_main: near

.segment	"CODE"

;
; reset();
;
	jsr     _reset
;
; while (game_mode == MODE_TITLE)
;
	jmp     L33F2
;
; ppu_wait_nmi();
;
L2D08:	jsr     _ppu_wait_nmi
;
; pad1 = pad_poll(0); // read the first controller
;
	lda     #$00
	jsr     _pad_poll
	sta     _pad1
;
; pad1_new = get_pad_new(0);
;
	lda     #$00
	jsr     _get_pad_new
	sta     _pad1_new
;
; if (pad1_new & PAD_START)
;
	and     #$10
	beq     L33F2
;
; pal_fade_to(4, 0); // fade to black
;
	lda     #$04
	jsr     pusha
	lda     #$00
	jsr     _pal_fade_to
;
; ppu_off();
;
	jsr     _ppu_off
;
; game_mode = MODE_GAME;
;
	lda     #$01
	sta     _game_mode
;
; ppu_on_all();
;
	jsr     _ppu_on_all
;
; pal_bright(4); // back to normal brightness
;
	lda     #$04
	jsr     _pal_bright
;
; while (game_mode == MODE_TITLE)
;
L33F2:	lda     _game_mode
	beq     L2D08
;
; while (game_mode == MODE_GAME)
;
	jmp     L33F3
;
; gray_line();
;
L2D1E:	jsr     _gray_line
;
; ++frame_counter;
;
	inc     _frame_counter
;
; ppu_wait_nmi(); // wait till beginning of the frame
;
	jsr     _ppu_wait_nmi
;
; pad1 = pad_poll(0); // read the first controller
;
	lda     #$00
	jsr     _pad_poll
	sta     _pad1
;
; pad1_new = get_pad_new(0);
;
	lda     #$00
	jsr     _get_pad_new
	sta     _pad1_new
;
; if (pad1_new & PAD_START)
;
	and     #$10
	beq     L2D2B
;
; game_mode = MODE_PAUSE;
;
	lda     #$02
	sta     _game_mode
;
; ppu_mask(0b00011001); // grayscale mode
;
	lda     #$19
;
; break; // out of the game loop
;
	jmp     L33F1
;
; movement();
;
L2D2B:	jsr     _movement
;
; check_spr_objects();
;
	jsr     _check_spr_objects
;
; projectile_movement();
;
	jsr     _projectile_movement
;
; set_scroll_x(scroll_x);
;
	lda     _scroll_x
	ldx     _scroll_x+1
	jsr     _set_scroll_x
;
; set_scroll_y(scroll_y);
;
	lda     _scroll_y
	ldx     _scroll_y+1
	jsr     _set_scroll_y
;
; handle_scrolling();
;
	jsr     _handle_scrolling
;
; draw_sprites();
;
	jsr     _draw_sprites
;
; if (level_up)
;
	lda     _level_up
	beq     L2D3A
;
; pal_fade_to(4, 0); // fade to black
;
	lda     #$04
	jsr     pusha
	lda     #$00
	jsr     _pal_fade_to
;
; game_mode = MODE_SWITCH;
;
	lda     #$03
	sta     _game_mode
;
; level_up = 0;
;
	lda     #$00
	sta     _level_up
;
; room = 0;
;
	sta     _room
;
; scroll_x = 0;
;
	sta     _scroll_x
	sta     _scroll_x+1
;
; ++level;
;
	inc     _level
;
; ppu_off();
;
	jsr     _ppu_off
;
; else if (death)
;
	jmp     L33F3
L2D3A:	lda     _death
	beq     L33F3
;
; pal_fade_to(4, 0); // fade to black
;
	lda     #$04
	jsr     pusha
	lda     #$00
	jsr     _pal_fade_to
;
; reset();
;
	jsr     _reset
;
; while (game_mode == MODE_GAME)
;
L33F3:	lda     _game_mode
	cmp     #$01
	jeq     L2D1E
;
; while (game_mode == MODE_PAUSE)
;
	jmp     L33F4
;
; ppu_wait_nmi();
;
L2D50:	jsr     _ppu_wait_nmi
;
; pad1 = pad_poll(0); // read the first controller
;
	lda     #$00
	jsr     _pad_poll
	sta     _pad1
;
; pad1_new = get_pad_new(0);
;
	lda     #$00
	jsr     _get_pad_new
	sta     _pad1_new
;
; if (pad1_new & PAD_START)
;
	and     #$10
	beq     L33F4
;
; game_mode = MODE_GAME;
;
	lda     #$01
	sta     _game_mode
;
; ppu_mask(0b00011000); // grayscale mode
;
	lda     #$18
L33F1:	jsr     _ppu_mask
;
; while (game_mode == MODE_PAUSE)
;
L33F4:	lda     _game_mode
	cmp     #$02
	beq     L2D50
;
; while (game_mode == MODE_SWITCH)
;
	jmp     L33F5
;
; ppu_wait_nmi();
;
L2D61:	jsr     _ppu_wait_nmi
;
; ++bright_count;
;
	inc     _bright_count
;
; if (bright_count >= 0x10)
;
	lda     _bright_count
	cmp     #$10
	bcc     L2D6C
;
; bright_count = 0;
;
	lda     #$00
	sta     _bright_count
;
; --bright;
;
	dec     _bright
;
; if (bright != 0xff)
;
	lda     _bright
	cmp     #$FF
	beq     L2D6C
;
; pal_bright(bright); // fade out
;
	jsr     _pal_bright
;
; set_scroll_x(scroll_x);
;
L2D6C:	lda     _scroll_x
	ldx     _scroll_x+1
	jsr     _set_scroll_x
;
; if (bright == 0xff)
;
	lda     _bright
	cmp     #$FF
	bne     L33F5
;
; ppu_off();
;
	jsr     _ppu_off
;
; oam_clear();
;
	jsr     _oam_clear
;
; scroll_x = 0;
;
	ldx     #$00
	txa
	sta     _scroll_x
	sta     _scroll_x+1
;
; set_scroll_x(scroll_x);
;
	jsr     _set_scroll_x
;
; if (level < 9)
;
	lda     _level
	cmp     #$09
	bcs     L33F5
;
; load_room();
;
	jsr     _load_room
;
; game_mode = MODE_GAME;
;
	lda     #$01
	sta     _game_mode
;
; ppu_on_all();
;
	jsr     _ppu_on_all
;
; pal_bright(4); // back to normal brighness
;
	lda     #$04
	jsr     _pal_bright
;
; BoxGuy1.x = 0x4000;
;
	ldx     #$40
	lda     #$00
	sta     _BoxGuy1
	stx     _BoxGuy1+1
;
; BoxGuy1.y = 0x2400;
;
	ldx     #$24
	sta     _BoxGuy1+2
	stx     _BoxGuy1+2+1
;
; while (game_mode == MODE_SWITCH)
;
L33F5:	lda     _game_mode
	cmp     #$03
	beq     L2D61
;
; while (1)
;
	jmp     L33F2

.endproc

